
prog.elf:     file format elf32-littleriscv


Disassembly of section .text:

00008000 <_start>:
    8000:	0080006f          	j	8008 <_init_reg>

00008004 <_end>:
    8004:	0000006f          	j	8004 <_end>

00008008 <_init_reg>:
    8008:	00000093          	li	ra,0
    800c:	00000113          	li	sp,0
    8010:	00000193          	li	gp,0
    8014:	00000213          	li	tp,0
    8018:	00000293          	li	t0,0
    801c:	00000313          	li	t1,0
    8020:	00000393          	li	t2,0
    8024:	00000413          	li	s0,0
    8028:	00000493          	li	s1,0
    802c:	00000513          	li	a0,0
    8030:	00000593          	li	a1,0
    8034:	00000613          	li	a2,0
    8038:	00000693          	li	a3,0
    803c:	00000713          	li	a4,0
    8040:	00000793          	li	a5,0
    8044:	00000813          	li	a6,0
    8048:	00000893          	li	a7,0
    804c:	00000913          	li	s2,0
    8050:	00000993          	li	s3,0
    8054:	00000a13          	li	s4,0
    8058:	00000a93          	li	s5,0
    805c:	00000b13          	li	s6,0
    8060:	00000b93          	li	s7,0
    8064:	00000c13          	li	s8,0
    8068:	00000c93          	li	s9,0
    806c:	00000d13          	li	s10,0
    8070:	00000d93          	li	s11,0
    8074:	00000e13          	li	t3,0
    8078:	00000e93          	li	t4,0
    807c:	00000f13          	li	t5,0
    8080:	00000f93          	li	t6,0
    8084:	00020137          	lui	sp,0x20

00008088 <_call_main>:
    8088:	4a1040ef          	jal	ra,cd28 <main>
    808c:	f79ff06f          	j	8004 <_end>

00008090 <calc_func>:
    8090:	fe010113          	addi	sp,sp,-32 # 1ffe0 <start_time_val+0xf858>
    8094:	00812c23          	sw	s0,24(sp)
    8098:	00051403          	lh	s0,0(a0)
    809c:	00112e23          	sw	ra,28(sp)
    80a0:	00912a23          	sw	s1,20(sp)
    80a4:	40745793          	srai	a5,s0,0x7
    80a8:	01212823          	sw	s2,16(sp)
    80ac:	01312623          	sw	s3,12(sp)
    80b0:	0017f793          	andi	a5,a5,1
    80b4:	02078263          	beqz	a5,80d8 <calc_func+0x48>
    80b8:	01c12083          	lw	ra,28(sp)
    80bc:	07f47513          	andi	a0,s0,127
    80c0:	01812403          	lw	s0,24(sp)
    80c4:	01412483          	lw	s1,20(sp)
    80c8:	01012903          	lw	s2,16(sp)
    80cc:	00c12983          	lw	s3,12(sp)
    80d0:	02010113          	addi	sp,sp,32
    80d4:	00008067          	ret
    80d8:	00058493          	mv	s1,a1
    80dc:	40345593          	srai	a1,s0,0x3
    80e0:	00f5f593          	andi	a1,a1,15
    80e4:	00459713          	slli	a4,a1,0x4
    80e8:	00747693          	andi	a3,s0,7
    80ec:	0384d783          	lhu	a5,56(s1)
    80f0:	00050993          	mv	s3,a0
    80f4:	00b765b3          	or	a1,a4,a1
    80f8:	04068c63          	beqz	a3,8150 <calc_func+0xc0>
    80fc:	00100713          	li	a4,1
    8100:	08e68a63          	beq	a3,a4,8194 <calc_func+0x104>
    8104:	01041513          	slli	a0,s0,0x10
    8108:	01055513          	srli	a0,a0,0x10
    810c:	00040913          	mv	s2,s0
    8110:	00078593          	mv	a1,a5
    8114:	3dc020ef          	jal	ra,a4f0 <crcu16>
    8118:	00050793          	mv	a5,a0
    811c:	f0047413          	andi	s0,s0,-256
    8120:	07f97513          	andi	a0,s2,127
    8124:	00856433          	or	s0,a0,s0
    8128:	02f49c23          	sh	a5,56(s1)
    812c:	08046413          	ori	s0,s0,128
    8130:	00899023          	sh	s0,0(s3)
    8134:	01c12083          	lw	ra,28(sp)
    8138:	01812403          	lw	s0,24(sp)
    813c:	01412483          	lw	s1,20(sp)
    8140:	01012903          	lw	s2,16(sp)
    8144:	00c12983          	lw	s3,12(sp)
    8148:	02010113          	addi	sp,sp,32
    814c:	00008067          	ret
    8150:	02200693          	li	a3,34
    8154:	00058713          	mv	a4,a1
    8158:	00d5d463          	bge	a1,a3,8160 <calc_func+0xd0>
    815c:	02200713          	li	a4,34
    8160:	00249683          	lh	a3,2(s1)
    8164:	00049603          	lh	a2,0(s1)
    8168:	0144a583          	lw	a1,20(s1)
    816c:	0184a503          	lw	a0,24(s1)
    8170:	0ff77713          	andi	a4,a4,255
    8174:	7dd010ef          	jal	ra,a150 <core_bench_state>
    8178:	03e4d783          	lhu	a5,62(s1)
    817c:	01051913          	slli	s2,a0,0x10
    8180:	41095913          	srai	s2,s2,0x10
    8184:	02079c63          	bnez	a5,81bc <calc_func+0x12c>
    8188:	0384d783          	lhu	a5,56(s1)
    818c:	02a49f23          	sh	a0,62(s1)
    8190:	f81ff06f          	j	8110 <calc_func+0x80>
    8194:	00078613          	mv	a2,a5
    8198:	02848513          	addi	a0,s1,40
    819c:	254010ef          	jal	ra,93f0 <core_bench_matrix>
    81a0:	03c4d783          	lhu	a5,60(s1)
    81a4:	01051913          	slli	s2,a0,0x10
    81a8:	41095913          	srai	s2,s2,0x10
    81ac:	00079863          	bnez	a5,81bc <calc_func+0x12c>
    81b0:	0384d783          	lhu	a5,56(s1)
    81b4:	02a49e23          	sh	a0,60(s1)
    81b8:	f59ff06f          	j	8110 <calc_func+0x80>
    81bc:	0384d783          	lhu	a5,56(s1)
    81c0:	f51ff06f          	j	8110 <calc_func+0x80>

000081c4 <cmp_complex>:
    81c4:	fe010113          	addi	sp,sp,-32
    81c8:	00912a23          	sw	s1,20(sp)
    81cc:	00051483          	lh	s1,0(a0)
    81d0:	00812c23          	sw	s0,24(sp)
    81d4:	01212823          	sw	s2,16(sp)
    81d8:	4074d793          	srai	a5,s1,0x7
    81dc:	01412423          	sw	s4,8(sp)
    81e0:	00112e23          	sw	ra,28(sp)
    81e4:	01312623          	sw	s3,12(sp)
    81e8:	0017f793          	andi	a5,a5,1
    81ec:	00058913          	mv	s2,a1
    81f0:	00060413          	mv	s0,a2
    81f4:	07f4fa13          	andi	s4,s1,127
    81f8:	04079c63          	bnez	a5,8250 <cmp_complex+0x8c>
    81fc:	4034d593          	srai	a1,s1,0x3
    8200:	00f5f593          	andi	a1,a1,15
    8204:	00459693          	slli	a3,a1,0x4
    8208:	0074f713          	andi	a4,s1,7
    820c:	03865783          	lhu	a5,56(a2)
    8210:	00050993          	mv	s3,a0
    8214:	00d5e5b3          	or	a1,a1,a3
    8218:	0e070463          	beqz	a4,8300 <cmp_complex+0x13c>
    821c:	00100693          	li	a3,1
    8220:	16d70463          	beq	a4,a3,8388 <cmp_complex+0x1c4>
    8224:	01049513          	slli	a0,s1,0x10
    8228:	01055513          	srli	a0,a0,0x10
    822c:	00048a13          	mv	s4,s1
    8230:	00078593          	mv	a1,a5
    8234:	07fa7a13          	andi	s4,s4,127
    8238:	f004f493          	andi	s1,s1,-256
    823c:	2b4020ef          	jal	ra,a4f0 <crcu16>
    8240:	009a64b3          	or	s1,s4,s1
    8244:	02a41c23          	sh	a0,56(s0)
    8248:	0804e493          	ori	s1,s1,128
    824c:	00999023          	sh	s1,0(s3)
    8250:	00091483          	lh	s1,0(s2)
    8254:	4074d793          	srai	a5,s1,0x7
    8258:	0017f793          	andi	a5,a5,1
    825c:	07f4f993          	andi	s3,s1,127
    8260:	06079663          	bnez	a5,82cc <cmp_complex+0x108>
    8264:	4034d593          	srai	a1,s1,0x3
    8268:	00f5f593          	andi	a1,a1,15
    826c:	00459693          	slli	a3,a1,0x4
    8270:	0074f713          	andi	a4,s1,7
    8274:	03845783          	lhu	a5,56(s0)
    8278:	00d5e5b3          	or	a1,a1,a3
    827c:	0c070463          	beqz	a4,8344 <cmp_complex+0x180>
    8280:	00100693          	li	a3,1
    8284:	06d71663          	bne	a4,a3,82f0 <cmp_complex+0x12c>
    8288:	00078613          	mv	a2,a5
    828c:	02840513          	addi	a0,s0,40
    8290:	160010ef          	jal	ra,93f0 <core_bench_matrix>
    8294:	03c45783          	lhu	a5,60(s0)
    8298:	01051993          	slli	s3,a0,0x10
    829c:	4109d993          	srai	s3,s3,0x10
    82a0:	10079863          	bnez	a5,83b0 <cmp_complex+0x1ec>
    82a4:	03845783          	lhu	a5,56(s0)
    82a8:	02a41e23          	sh	a0,60(s0)
    82ac:	00078593          	mv	a1,a5
    82b0:	07f9f993          	andi	s3,s3,127
    82b4:	f004f493          	andi	s1,s1,-256
    82b8:	238020ef          	jal	ra,a4f0 <crcu16>
    82bc:	0099e4b3          	or	s1,s3,s1
    82c0:	02a41c23          	sh	a0,56(s0)
    82c4:	0804e493          	ori	s1,s1,128
    82c8:	00991023          	sh	s1,0(s2)
    82cc:	01c12083          	lw	ra,28(sp)
    82d0:	01812403          	lw	s0,24(sp)
    82d4:	413a0533          	sub	a0,s4,s3
    82d8:	01412483          	lw	s1,20(sp)
    82dc:	01012903          	lw	s2,16(sp)
    82e0:	00c12983          	lw	s3,12(sp)
    82e4:	00812a03          	lw	s4,8(sp)
    82e8:	02010113          	addi	sp,sp,32
    82ec:	00008067          	ret
    82f0:	01049513          	slli	a0,s1,0x10
    82f4:	01055513          	srli	a0,a0,0x10
    82f8:	00048993          	mv	s3,s1
    82fc:	fb1ff06f          	j	82ac <cmp_complex+0xe8>
    8300:	02200693          	li	a3,34
    8304:	00058713          	mv	a4,a1
    8308:	00d5d463          	bge	a1,a3,8310 <cmp_complex+0x14c>
    830c:	02200713          	li	a4,34
    8310:	00241683          	lh	a3,2(s0)
    8314:	00041603          	lh	a2,0(s0)
    8318:	01442583          	lw	a1,20(s0)
    831c:	01842503          	lw	a0,24(s0)
    8320:	0ff77713          	andi	a4,a4,255
    8324:	62d010ef          	jal	ra,a150 <core_bench_state>
    8328:	03e45783          	lhu	a5,62(s0)
    832c:	01051a13          	slli	s4,a0,0x10
    8330:	410a5a13          	srai	s4,s4,0x10
    8334:	08079263          	bnez	a5,83b8 <cmp_complex+0x1f4>
    8338:	03845783          	lhu	a5,56(s0)
    833c:	02a41f23          	sh	a0,62(s0)
    8340:	ef1ff06f          	j	8230 <cmp_complex+0x6c>
    8344:	02200693          	li	a3,34
    8348:	00058713          	mv	a4,a1
    834c:	00d5d463          	bge	a1,a3,8354 <cmp_complex+0x190>
    8350:	02200713          	li	a4,34
    8354:	00241683          	lh	a3,2(s0)
    8358:	00041603          	lh	a2,0(s0)
    835c:	01442583          	lw	a1,20(s0)
    8360:	01842503          	lw	a0,24(s0)
    8364:	0ff77713          	andi	a4,a4,255
    8368:	5e9010ef          	jal	ra,a150 <core_bench_state>
    836c:	03e45783          	lhu	a5,62(s0)
    8370:	01051993          	slli	s3,a0,0x10
    8374:	4109d993          	srai	s3,s3,0x10
    8378:	02079c63          	bnez	a5,83b0 <cmp_complex+0x1ec>
    837c:	03845783          	lhu	a5,56(s0)
    8380:	02a41f23          	sh	a0,62(s0)
    8384:	f29ff06f          	j	82ac <cmp_complex+0xe8>
    8388:	00078613          	mv	a2,a5
    838c:	02840513          	addi	a0,s0,40
    8390:	060010ef          	jal	ra,93f0 <core_bench_matrix>
    8394:	03c45783          	lhu	a5,60(s0)
    8398:	01051a13          	slli	s4,a0,0x10
    839c:	410a5a13          	srai	s4,s4,0x10
    83a0:	00079c63          	bnez	a5,83b8 <cmp_complex+0x1f4>
    83a4:	03845783          	lhu	a5,56(s0)
    83a8:	02a41e23          	sh	a0,60(s0)
    83ac:	e85ff06f          	j	8230 <cmp_complex+0x6c>
    83b0:	03845783          	lhu	a5,56(s0)
    83b4:	ef9ff06f          	j	82ac <cmp_complex+0xe8>
    83b8:	03845783          	lhu	a5,56(s0)
    83bc:	e75ff06f          	j	8230 <cmp_complex+0x6c>

000083c0 <cmp_idx>:
    83c0:	00060a63          	beqz	a2,83d4 <cmp_idx+0x14>
    83c4:	00251503          	lh	a0,2(a0)
    83c8:	00259783          	lh	a5,2(a1)
    83cc:	40f50533          	sub	a0,a0,a5
    83d0:	00008067          	ret
    83d4:	00051783          	lh	a5,0(a0)
    83d8:	01079713          	slli	a4,a5,0x10
    83dc:	01075713          	srli	a4,a4,0x10
    83e0:	00875713          	srli	a4,a4,0x8
    83e4:	f007f793          	andi	a5,a5,-256
    83e8:	00e7e7b3          	or	a5,a5,a4
    83ec:	00f51023          	sh	a5,0(a0)
    83f0:	00059783          	lh	a5,0(a1)
    83f4:	00251503          	lh	a0,2(a0)
    83f8:	01079713          	slli	a4,a5,0x10
    83fc:	01075713          	srli	a4,a4,0x10
    8400:	00875713          	srli	a4,a4,0x8
    8404:	f007f793          	andi	a5,a5,-256
    8408:	00e7e7b3          	or	a5,a5,a4
    840c:	00f59023          	sh	a5,0(a1)
    8410:	00259783          	lh	a5,2(a1)
    8414:	40f50533          	sub	a0,a0,a5
    8418:	00008067          	ret

0000841c <copy_info>:
    841c:	00059703          	lh	a4,0(a1)
    8420:	00259783          	lh	a5,2(a1)
    8424:	00e51023          	sh	a4,0(a0)
    8428:	00f51123          	sh	a5,2(a0)
    842c:	00008067          	ret

00008430 <core_bench_list>:
    8430:	00451883          	lh	a7,4(a0)
    8434:	fc010113          	addi	sp,sp,-64
    8438:	02812c23          	sw	s0,56(sp)
    843c:	01b12623          	sw	s11,12(sp)
    8440:	02112e23          	sw	ra,60(sp)
    8444:	02912a23          	sw	s1,52(sp)
    8448:	03212823          	sw	s2,48(sp)
    844c:	03312623          	sw	s3,44(sp)
    8450:	03412423          	sw	s4,40(sp)
    8454:	03512223          	sw	s5,36(sp)
    8458:	03612023          	sw	s6,32(sp)
    845c:	01712e23          	sw	s7,28(sp)
    8460:	01812c23          	sw	s8,24(sp)
    8464:	01912a23          	sw	s9,20(sp)
    8468:	01a12823          	sw	s10,16(sp)
    846c:	02452403          	lw	s0,36(a0)
    8470:	00050d93          	mv	s11,a0
    8474:	00058513          	mv	a0,a1
    8478:	43105263          	blez	a7,889c <core_bench_list+0x46c>
    847c:	00058b93          	mv	s7,a1
    8480:	00000613          	li	a2,0
    8484:	00000813          	li	a6,0
    8488:	00000593          	li	a1,0
    848c:	00000913          	li	s2,0
    8490:	0ff67c93          	andi	s9,a2,255
    8494:	280bc063          	bltz	s7,8714 <core_bench_list+0x2e4>
    8498:	40040a63          	beqz	s0,88ac <core_bench_list+0x47c>
    849c:	00040793          	mv	a5,s0
    84a0:	00c0006f          	j	84ac <core_bench_list+0x7c>
    84a4:	0007a783          	lw	a5,0(a5)
    84a8:	00078863          	beqz	a5,84b8 <core_bench_list+0x88>
    84ac:	0047a703          	lw	a4,4(a5)
    84b0:	00271703          	lh	a4,2(a4)
    84b4:	ff7718e3          	bne	a4,s7,84a4 <core_bench_list+0x74>
    84b8:	00000693          	li	a3,0
    84bc:	00c0006f          	j	84c8 <core_bench_list+0x98>
    84c0:	00040693          	mv	a3,s0
    84c4:	00070413          	mv	s0,a4
    84c8:	00042703          	lw	a4,0(s0)
    84cc:	00d42023          	sw	a3,0(s0)
    84d0:	fe0718e3          	bnez	a4,84c0 <core_bench_list+0x90>
    84d4:	26078263          	beqz	a5,8738 <core_bench_list+0x308>
    84d8:	0047a683          	lw	a3,4(a5)
    84dc:	00158593          	addi	a1,a1,1
    84e0:	01059593          	slli	a1,a1,0x10
    84e4:	00069703          	lh	a4,0(a3)
    84e8:	0105d593          	srli	a1,a1,0x10
    84ec:	00177693          	andi	a3,a4,1
    84f0:	00068c63          	beqz	a3,8508 <core_bench_list+0xd8>
    84f4:	40975713          	srai	a4,a4,0x9
    84f8:	00177713          	andi	a4,a4,1
    84fc:	00e90733          	add	a4,s2,a4
    8500:	01071913          	slli	s2,a4,0x10
    8504:	01095913          	srli	s2,s2,0x10
    8508:	0007a683          	lw	a3,0(a5)
    850c:	00068c63          	beqz	a3,8524 <core_bench_list+0xf4>
    8510:	0006a703          	lw	a4,0(a3)
    8514:	00e7a023          	sw	a4,0(a5)
    8518:	00042783          	lw	a5,0(s0)
    851c:	00f6a023          	sw	a5,0(a3)
    8520:	00d42023          	sw	a3,0(s0)
    8524:	000bc863          	bltz	s7,8534 <core_bench_list+0x104>
    8528:	001b8b93          	addi	s7,s7,1
    852c:	010b9b93          	slli	s7,s7,0x10
    8530:	410bdb93          	srai	s7,s7,0x10
    8534:	00160613          	addi	a2,a2,1
    8538:	01061613          	slli	a2,a2,0x10
    853c:	41065613          	srai	a2,a2,0x10
    8540:	f4c898e3          	bne	a7,a2,8490 <core_bench_list+0x60>
    8544:	00259793          	slli	a5,a1,0x2
    8548:	410787b3          	sub	a5,a5,a6
    854c:	00f907b3          	add	a5,s2,a5
    8550:	01079913          	slli	s2,a5,0x10
    8554:	01095913          	srli	s2,s2,0x10
    8558:	26a04a63          	bgtz	a0,87cc <core_bench_list+0x39c>
    855c:	00042783          	lw	a5,0(s0)
    8560:	00040493          	mv	s1,s0
    8564:	0007a983          	lw	s3,0(a5)
    8568:	0047a703          	lw	a4,4(a5)
    856c:	0049a603          	lw	a2,4(s3)
    8570:	0009a683          	lw	a3,0(s3)
    8574:	00c7a223          	sw	a2,4(a5)
    8578:	00e9a223          	sw	a4,4(s3)
    857c:	00d7a023          	sw	a3,0(a5)
    8580:	0009a023          	sw	zero,0(s3)
    8584:	120bc663          	bltz	s7,86b0 <core_bench_list+0x280>
    8588:	0044a783          	lw	a5,4(s1)
    858c:	00279783          	lh	a5,2(a5)
    8590:	01778a63          	beq	a5,s7,85a4 <core_bench_list+0x174>
    8594:	0004a483          	lw	s1,0(s1)
    8598:	fe0498e3          	bnez	s1,8588 <core_bench_list+0x158>
    859c:	00042483          	lw	s1,0(s0)
    85a0:	02048463          	beqz	s1,85c8 <core_bench_list+0x198>
    85a4:	00442783          	lw	a5,4(s0)
    85a8:	00090593          	mv	a1,s2
    85ac:	00079503          	lh	a0,0(a5)
    85b0:	6e0020ef          	jal	ra,ac90 <crc16>
    85b4:	0004a483          	lw	s1,0(s1)
    85b8:	00050913          	mv	s2,a0
    85bc:	fe0494e3          	bnez	s1,85a4 <core_bench_list+0x174>
    85c0:	00042483          	lw	s1,0(s0)
    85c4:	0049a703          	lw	a4,4(s3)
    85c8:	0044a683          	lw	a3,4(s1)
    85cc:	0004a783          	lw	a5,0(s1)
    85d0:	00100e13          	li	t3,1
    85d4:	00d9a223          	sw	a3,4(s3)
    85d8:	00e4a223          	sw	a4,4(s1)
    85dc:	00f9a023          	sw	a5,0(s3)
    85e0:	0134a023          	sw	s3,0(s1)
    85e4:	00000613          	li	a2,0
    85e8:	00000493          	li	s1,0
    85ec:	00000f13          	li	t5,0
    85f0:	00100f93          	li	t6,1
    85f4:	001f0f13          	addi	t5,t5,1
    85f8:	00040793          	mv	a5,s0
    85fc:	00000713          	li	a4,0
    8600:	0007a783          	lw	a5,0(a5)
    8604:	00170713          	addi	a4,a4,1
    8608:	00078463          	beqz	a5,8610 <core_bench_list+0x1e0>
    860c:	feee1ae3          	bne	t3,a4,8600 <core_bench_list+0x1d0>
    8610:	000e0593          	mv	a1,t3
    8614:	06070c63          	beqz	a4,868c <core_bench_list+0x25c>
    8618:	0a058c63          	beqz	a1,86d0 <core_bench_list+0x2a0>
    861c:	0a078a63          	beqz	a5,86d0 <core_bench_list+0x2a0>
    8620:	00442883          	lw	a7,4(s0)
    8624:	0047a803          	lw	a6,4(a5)
    8628:	00089683          	lh	a3,0(a7)
    862c:	00281e83          	lh	t4,2(a6)
    8630:	00289503          	lh	a0,2(a7)
    8634:	01069313          	slli	t1,a3,0x10
    8638:	01035313          	srli	t1,t1,0x10
    863c:	f006f693          	andi	a3,a3,-256
    8640:	00835313          	srli	t1,t1,0x8
    8644:	0066e6b3          	or	a3,a3,t1
    8648:	00d89023          	sh	a3,0(a7)
    864c:	00081683          	lh	a3,0(a6)
    8650:	41d50533          	sub	a0,a0,t4
    8654:	01069893          	slli	a7,a3,0x10
    8658:	0108d893          	srli	a7,a7,0x10
    865c:	f006f693          	andi	a3,a3,-256
    8660:	0088d893          	srli	a7,a7,0x8
    8664:	0116e6b3          	or	a3,a3,a7
    8668:	00d81023          	sh	a3,0(a6)
    866c:	06a05263          	blez	a0,86d0 <core_bench_list+0x2a0>
    8670:	00078693          	mv	a3,a5
    8674:	0007a783          	lw	a5,0(a5)
    8678:	fff58593          	addi	a1,a1,-1
    867c:	02060463          	beqz	a2,86a4 <core_bench_list+0x274>
    8680:	00d62023          	sw	a3,0(a2)
    8684:	00068613          	mv	a2,a3
    8688:	f80718e3          	bnez	a4,8618 <core_bench_list+0x1e8>
    868c:	04058a63          	beqz	a1,86e0 <core_bench_list+0x2b0>
    8690:	04078e63          	beqz	a5,86ec <core_bench_list+0x2bc>
    8694:	00078693          	mv	a3,a5
    8698:	fff58593          	addi	a1,a1,-1
    869c:	0007a783          	lw	a5,0(a5)
    86a0:	fe0610e3          	bnez	a2,8680 <core_bench_list+0x250>
    86a4:	00068493          	mv	s1,a3
    86a8:	00068613          	mv	a2,a3
    86ac:	fddff06f          	j	8688 <core_bench_list+0x258>
    86b0:	0044a783          	lw	a5,4(s1)
    86b4:	0007c783          	lbu	a5,0(a5)
    86b8:	eefc86e3          	beq	s9,a5,85a4 <core_bench_list+0x174>
    86bc:	0004a483          	lw	s1,0(s1)
    86c0:	fe0498e3          	bnez	s1,86b0 <core_bench_list+0x280>
    86c4:	00042483          	lw	s1,0(s0)
    86c8:	ec049ee3          	bnez	s1,85a4 <core_bench_list+0x174>
    86cc:	efdff06f          	j	85c8 <core_bench_list+0x198>
    86d0:	00040693          	mv	a3,s0
    86d4:	fff70713          	addi	a4,a4,-1
    86d8:	00042403          	lw	s0,0(s0)
    86dc:	fa1ff06f          	j	867c <core_bench_list+0x24c>
    86e0:	00078663          	beqz	a5,86ec <core_bench_list+0x2bc>
    86e4:	00078413          	mv	s0,a5
    86e8:	f0dff06f          	j	85f4 <core_bench_list+0x1c4>
    86ec:	00062023          	sw	zero,0(a2)
    86f0:	07ff0c63          	beq	t5,t6,8768 <core_bench_list+0x338>
    86f4:	001e1e13          	slli	t3,t3,0x1
    86f8:	06048463          	beqz	s1,8760 <core_bench_list+0x330>
    86fc:	00048793          	mv	a5,s1
    8700:	00000f13          	li	t5,0
    8704:	00000613          	li	a2,0
    8708:	00000493          	li	s1,0
    870c:	00078413          	mv	s0,a5
    8710:	ee5ff06f          	j	85f4 <core_bench_list+0x1c4>
    8714:	18040c63          	beqz	s0,88ac <core_bench_list+0x47c>
    8718:	00040793          	mv	a5,s0
    871c:	00c0006f          	j	8728 <core_bench_list+0x2f8>
    8720:	0007a783          	lw	a5,0(a5)
    8724:	d8078ae3          	beqz	a5,84b8 <core_bench_list+0x88>
    8728:	0047a703          	lw	a4,4(a5)
    872c:	00074703          	lbu	a4,0(a4)
    8730:	feec98e3          	bne	s9,a4,8720 <core_bench_list+0x2f0>
    8734:	d85ff06f          	j	84b8 <core_bench_list+0x88>
    8738:	0046a703          	lw	a4,4(a3)
    873c:	00180793          	addi	a5,a6,1
    8740:	01079813          	slli	a6,a5,0x10
    8744:	00170783          	lb	a5,1(a4)
    8748:	01085813          	srli	a6,a6,0x10
    874c:	0017f793          	andi	a5,a5,1
    8750:	00f907b3          	add	a5,s2,a5
    8754:	01079913          	slli	s2,a5,0x10
    8758:	01095913          	srli	s2,s2,0x10
    875c:	dc9ff06f          	j	8524 <core_bench_list+0xf4>
    8760:	00002023          	sw	zero,0(zero) # 0 <_start-0x8000>
    8764:	00100073          	ebreak
    8768:	0004a403          	lw	s0,0(s1)
    876c:	02040063          	beqz	s0,878c <core_bench_list+0x35c>
    8770:	0044a783          	lw	a5,4(s1)
    8774:	00090593          	mv	a1,s2
    8778:	00079503          	lh	a0,0(a5)
    877c:	514020ef          	jal	ra,ac90 <crc16>
    8780:	00042403          	lw	s0,0(s0)
    8784:	00050913          	mv	s2,a0
    8788:	fe0414e3          	bnez	s0,8770 <core_bench_list+0x340>
    878c:	03c12083          	lw	ra,60(sp)
    8790:	03812403          	lw	s0,56(sp)
    8794:	03412483          	lw	s1,52(sp)
    8798:	02c12983          	lw	s3,44(sp)
    879c:	02812a03          	lw	s4,40(sp)
    87a0:	02412a83          	lw	s5,36(sp)
    87a4:	02012b03          	lw	s6,32(sp)
    87a8:	01c12b83          	lw	s7,28(sp)
    87ac:	01812c03          	lw	s8,24(sp)
    87b0:	01412c83          	lw	s9,20(sp)
    87b4:	01012d03          	lw	s10,16(sp)
    87b8:	00c12d83          	lw	s11,12(sp)
    87bc:	00090513          	mv	a0,s2
    87c0:	03012903          	lw	s2,48(sp)
    87c4:	04010113          	addi	sp,sp,64
    87c8:	00008067          	ret
    87cc:	00100d13          	li	s10,1
    87d0:	f80408e3          	beqz	s0,8760 <core_bench_list+0x330>
    87d4:	00000993          	li	s3,0
    87d8:	00000b13          	li	s6,0
    87dc:	00000c13          	li	s8,0
    87e0:	001c0c13          	addi	s8,s8,1
    87e4:	00040793          	mv	a5,s0
    87e8:	00000493          	li	s1,0
    87ec:	0007a783          	lw	a5,0(a5)
    87f0:	00148493          	addi	s1,s1,1
    87f4:	00078463          	beqz	a5,87fc <core_bench_list+0x3cc>
    87f8:	ffa49ae3          	bne	s1,s10,87ec <core_bench_list+0x3bc>
    87fc:	00040a93          	mv	s5,s0
    8800:	000d0a13          	mv	s4,s10
    8804:	00078413          	mv	s0,a5
    8808:	02048e63          	beqz	s1,8844 <core_bench_list+0x414>
    880c:	040a0e63          	beqz	s4,8868 <core_bench_list+0x438>
    8810:	04040c63          	beqz	s0,8868 <core_bench_list+0x438>
    8814:	00442583          	lw	a1,4(s0)
    8818:	004aa503          	lw	a0,4(s5)
    881c:	000d8613          	mv	a2,s11
    8820:	9a5ff0ef          	jal	ra,81c4 <cmp_complex>
    8824:	04a05263          	blez	a0,8868 <core_bench_list+0x438>
    8828:	00040793          	mv	a5,s0
    882c:	00042403          	lw	s0,0(s0)
    8830:	fffa0a13          	addi	s4,s4,-1
    8834:	02098463          	beqz	s3,885c <core_bench_list+0x42c>
    8838:	00f9a023          	sw	a5,0(s3)
    883c:	00078993          	mv	s3,a5
    8840:	fc0496e3          	bnez	s1,880c <core_bench_list+0x3dc>
    8844:	020a0a63          	beqz	s4,8878 <core_bench_list+0x448>
    8848:	02040a63          	beqz	s0,887c <core_bench_list+0x44c>
    884c:	00040793          	mv	a5,s0
    8850:	fffa0a13          	addi	s4,s4,-1
    8854:	00042403          	lw	s0,0(s0)
    8858:	fe0990e3          	bnez	s3,8838 <core_bench_list+0x408>
    885c:	00078b13          	mv	s6,a5
    8860:	00078993          	mv	s3,a5
    8864:	fddff06f          	j	8840 <core_bench_list+0x410>
    8868:	000a8793          	mv	a5,s5
    886c:	fff48493          	addi	s1,s1,-1
    8870:	000aaa83          	lw	s5,0(s5)
    8874:	fc1ff06f          	j	8834 <core_bench_list+0x404>
    8878:	f60414e3          	bnez	s0,87e0 <core_bench_list+0x3b0>
    887c:	0009a023          	sw	zero,0(s3)
    8880:	00100793          	li	a5,1
    8884:	00fc0863          	beq	s8,a5,8894 <core_bench_list+0x464>
    8888:	001d1d13          	slli	s10,s10,0x1
    888c:	000b0413          	mv	s0,s6
    8890:	f41ff06f          	j	87d0 <core_bench_list+0x3a0>
    8894:	000b0413          	mv	s0,s6
    8898:	cc5ff06f          	j	855c <core_bench_list+0x12c>
    889c:	00000c93          	li	s9,0
    88a0:	00058b93          	mv	s7,a1
    88a4:	00000913          	li	s2,0
    88a8:	cb1ff06f          	j	8558 <core_bench_list+0x128>
    88ac:	00002783          	lw	a5,0(zero) # 0 <_start-0x8000>
    88b0:	00100073          	ebreak

000088b4 <core_list_init>:
    88b4:	fe010113          	addi	sp,sp,-32
    88b8:	00812c23          	sw	s0,24(sp)
    88bc:	00058413          	mv	s0,a1
    88c0:	01400593          	li	a1,20
    88c4:	00912a23          	sw	s1,20(sp)
    88c8:	01312623          	sw	s3,12(sp)
    88cc:	00112e23          	sw	ra,28(sp)
    88d0:	00060993          	mv	s3,a2
    88d4:	01212823          	sw	s2,16(sp)
    88d8:	3a4040ef          	jal	ra,cc7c <__udivsi3>
    88dc:	ffe50513          	addi	a0,a0,-2
    88e0:	00351593          	slli	a1,a0,0x3
    88e4:	00b405b3          	add	a1,s0,a1
    88e8:	ffff87b7          	lui	a5,0xffff8
    88ec:	00042023          	sw	zero,0(s0)
    88f0:	00b42223          	sw	a1,4(s0)
    88f4:	08078713          	addi	a4,a5,128 # ffff8080 <stack_top+0xfffd8080>
    88f8:	00251e13          	slli	t3,a0,0x2
    88fc:	00e59023          	sh	a4,0(a1)
    8900:	00059123          	sh	zero,2(a1)
    8904:	01040713          	addi	a4,s0,16
    8908:	01c58e33          	add	t3,a1,t3
    890c:	00840493          	addi	s1,s0,8
    8910:	00458613          	addi	a2,a1,4
    8914:	24b77863          	bgeu	a4,a1,8b64 <core_list_init+0x2b0>
    8918:	00858693          	addi	a3,a1,8
    891c:	25c6f463          	bgeu	a3,t3,8b64 <core_list_init+0x2b0>
    8920:	00c42623          	sw	a2,12(s0)
    8924:	00042423          	sw	zero,8(s0)
    8928:	00942023          	sw	s1,0(s0)
    892c:	fff7c793          	not	a5,a5
    8930:	fff00613          	li	a2,-1
    8934:	00c59223          	sh	a2,4(a1)
    8938:	00f59323          	sh	a5,6(a1)
    893c:	06050a63          	beqz	a0,89b0 <core_list_init+0xfc>
    8940:	01099f13          	slli	t5,s3,0x10
    8944:	ffff8eb7          	lui	t4,0xffff8
    8948:	010f5f13          	srli	t5,t5,0x10
    894c:	00000613          	li	a2,0
    8950:	fffece93          	not	t4,t4
    8954:	00870893          	addi	a7,a4,8
    8958:	04b8fc63          	bgeu	a7,a1,89b0 <core_list_init+0xfc>
    895c:	00468313          	addi	t1,a3,4
    8960:	05c37463          	bgeu	t1,t3,89a8 <core_list_init+0xf4>
    8964:	01061813          	slli	a6,a2,0x10
    8968:	01085813          	srli	a6,a6,0x10
    896c:	01e847b3          	xor	a5,a6,t5
    8970:	00379793          	slli	a5,a5,0x3
    8974:	00787813          	andi	a6,a6,7
    8978:	0787f793          	andi	a5,a5,120
    897c:	00972023          	sw	s1,0(a4)
    8980:	0107e7b3          	or	a5,a5,a6
    8984:	00e42023          	sw	a4,0(s0)
    8988:	00879813          	slli	a6,a5,0x8
    898c:	00d72223          	sw	a3,4(a4)
    8990:	00f867b3          	or	a5,a6,a5
    8994:	00f69023          	sh	a5,0(a3)
    8998:	01d69123          	sh	t4,2(a3)
    899c:	00070493          	mv	s1,a4
    89a0:	00030693          	mv	a3,t1
    89a4:	00088713          	mv	a4,a7
    89a8:	00160613          	addi	a2,a2,1
    89ac:	fac514e3          	bne	a0,a2,8954 <core_list_init+0xa0>
    89b0:	0004a903          	lw	s2,0(s1)
    89b4:	06090c63          	beqz	s2,8a2c <core_list_init+0x178>
    89b8:	00500593          	li	a1,5
    89bc:	2c0040ef          	jal	ra,cc7c <__udivsi3>
    89c0:	00004837          	lui	a6,0x4
    89c4:	20000793          	li	a5,512
    89c8:	00100713          	li	a4,1
    89cc:	fff80813          	addi	a6,a6,-1 # 3fff <_start-0x4001>
    89d0:	0280006f          	j	89f8 <core_list_init+0x144>
    89d4:	00092683          	lw	a3,0(s2)
    89d8:	10078793          	addi	a5,a5,256
    89dc:	00e59123          	sh	a4,2(a1)
    89e0:	01079793          	slli	a5,a5,0x10
    89e4:	00170713          	addi	a4,a4,1
    89e8:	0107d793          	srli	a5,a5,0x10
    89ec:	04068063          	beqz	a3,8a2c <core_list_init+0x178>
    89f0:	00090493          	mv	s1,s2
    89f4:	00068913          	mv	s2,a3
    89f8:	0044a583          	lw	a1,4(s1)
    89fc:	fca76ce3          	bltu	a4,a0,89d4 <core_list_init+0x120>
    8a00:	013746b3          	xor	a3,a4,s3
    8a04:	7007f613          	andi	a2,a5,1792
    8a08:	00d66633          	or	a2,a2,a3
    8a0c:	00092683          	lw	a3,0(s2)
    8a10:	01067633          	and	a2,a2,a6
    8a14:	10078793          	addi	a5,a5,256
    8a18:	01079793          	slli	a5,a5,0x10
    8a1c:	00c59123          	sh	a2,2(a1)
    8a20:	00170713          	addi	a4,a4,1
    8a24:	0107d793          	srli	a5,a5,0x10
    8a28:	fc0694e3          	bnez	a3,89f0 <core_list_init+0x13c>
    8a2c:	00100e93          	li	t4,1
    8a30:	00000593          	li	a1,0
    8a34:	00000513          	li	a0,0
    8a38:	00000f93          	li	t6,0
    8a3c:	00100293          	li	t0,1
    8a40:	001f8f93          	addi	t6,t6,1
    8a44:	00040793          	mv	a5,s0
    8a48:	00000713          	li	a4,0
    8a4c:	0007a783          	lw	a5,0(a5)
    8a50:	00170713          	addi	a4,a4,1
    8a54:	00078463          	beqz	a5,8a5c <core_list_init+0x1a8>
    8a58:	ffd71ae3          	bne	a4,t4,8a4c <core_list_init+0x198>
    8a5c:	000e8613          	mv	a2,t4
    8a60:	06070c63          	beqz	a4,8ad8 <core_list_init+0x224>
    8a64:	08060c63          	beqz	a2,8afc <core_list_init+0x248>
    8a68:	08078a63          	beqz	a5,8afc <core_list_init+0x248>
    8a6c:	00442303          	lw	t1,4(s0)
    8a70:	0047a883          	lw	a7,4(a5)
    8a74:	00031683          	lh	a3,0(t1)
    8a78:	00289f03          	lh	t5,2(a7)
    8a7c:	00231803          	lh	a6,2(t1)
    8a80:	01069e13          	slli	t3,a3,0x10
    8a84:	010e5e13          	srli	t3,t3,0x10
    8a88:	f006f693          	andi	a3,a3,-256
    8a8c:	008e5e13          	srli	t3,t3,0x8
    8a90:	01c6e6b3          	or	a3,a3,t3
    8a94:	00d31023          	sh	a3,0(t1)
    8a98:	00089683          	lh	a3,0(a7)
    8a9c:	41e80833          	sub	a6,a6,t5
    8aa0:	01069313          	slli	t1,a3,0x10
    8aa4:	01035313          	srli	t1,t1,0x10
    8aa8:	f006f693          	andi	a3,a3,-256
    8aac:	00835313          	srli	t1,t1,0x8
    8ab0:	0066e6b3          	or	a3,a3,t1
    8ab4:	00d89023          	sh	a3,0(a7)
    8ab8:	05005263          	blez	a6,8afc <core_list_init+0x248>
    8abc:	00078693          	mv	a3,a5
    8ac0:	0007a783          	lw	a5,0(a5)
    8ac4:	fff60613          	addi	a2,a2,-1
    8ac8:	02058463          	beqz	a1,8af0 <core_list_init+0x23c>
    8acc:	00d5a023          	sw	a3,0(a1)
    8ad0:	00068593          	mv	a1,a3
    8ad4:	f80718e3          	bnez	a4,8a64 <core_list_init+0x1b0>
    8ad8:	02060a63          	beqz	a2,8b0c <core_list_init+0x258>
    8adc:	02078e63          	beqz	a5,8b18 <core_list_init+0x264>
    8ae0:	00078693          	mv	a3,a5
    8ae4:	fff60613          	addi	a2,a2,-1
    8ae8:	0007a783          	lw	a5,0(a5)
    8aec:	fe0590e3          	bnez	a1,8acc <core_list_init+0x218>
    8af0:	00068513          	mv	a0,a3
    8af4:	00068593          	mv	a1,a3
    8af8:	fddff06f          	j	8ad4 <core_list_init+0x220>
    8afc:	00040693          	mv	a3,s0
    8b00:	fff70713          	addi	a4,a4,-1
    8b04:	00042403          	lw	s0,0(s0)
    8b08:	fc1ff06f          	j	8ac8 <core_list_init+0x214>
    8b0c:	00078663          	beqz	a5,8b18 <core_list_init+0x264>
    8b10:	00078413          	mv	s0,a5
    8b14:	f2dff06f          	j	8a40 <core_list_init+0x18c>
    8b18:	0005a023          	sw	zero,0(a1)
    8b1c:	025f8263          	beq	t6,t0,8b40 <core_list_init+0x28c>
    8b20:	001e9e93          	slli	t4,t4,0x1
    8b24:	02050c63          	beqz	a0,8b5c <core_list_init+0x2a8>
    8b28:	00050793          	mv	a5,a0
    8b2c:	00000f93          	li	t6,0
    8b30:	00000593          	li	a1,0
    8b34:	00000513          	li	a0,0
    8b38:	00078413          	mv	s0,a5
    8b3c:	f05ff06f          	j	8a40 <core_list_init+0x18c>
    8b40:	01c12083          	lw	ra,28(sp)
    8b44:	01812403          	lw	s0,24(sp)
    8b48:	01412483          	lw	s1,20(sp)
    8b4c:	01012903          	lw	s2,16(sp)
    8b50:	00c12983          	lw	s3,12(sp)
    8b54:	02010113          	addi	sp,sp,32
    8b58:	00008067          	ret
    8b5c:	00002023          	sw	zero,0(zero) # 0 <_start-0x8000>
    8b60:	00100073          	ebreak
    8b64:	00048713          	mv	a4,s1
    8b68:	00060693          	mv	a3,a2
    8b6c:	00000493          	li	s1,0
    8b70:	dcdff06f          	j	893c <core_list_init+0x88>

00008b74 <core_list_insert_new>:
    8b74:	00062803          	lw	a6,0(a2)
    8b78:	00880893          	addi	a7,a6,8
    8b7c:	04e8f663          	bgeu	a7,a4,8bc8 <core_list_insert_new+0x54>
    8b80:	0006a703          	lw	a4,0(a3)
    8b84:	00470313          	addi	t1,a4,4
    8b88:	04f37063          	bgeu	t1,a5,8bc8 <core_list_insert_new+0x54>
    8b8c:	01162023          	sw	a7,0(a2)
    8b90:	00052783          	lw	a5,0(a0)
    8b94:	00059883          	lh	a7,0(a1)
    8b98:	00259603          	lh	a2,2(a1)
    8b9c:	00f82023          	sw	a5,0(a6)
    8ba0:	01052023          	sw	a6,0(a0)
    8ba4:	00e82223          	sw	a4,4(a6)
    8ba8:	0006a783          	lw	a5,0(a3)
    8bac:	00080513          	mv	a0,a6
    8bb0:	00478793          	addi	a5,a5,4
    8bb4:	00f6a023          	sw	a5,0(a3)
    8bb8:	00482783          	lw	a5,4(a6)
    8bbc:	01179023          	sh	a7,0(a5)
    8bc0:	00c79123          	sh	a2,2(a5)
    8bc4:	00008067          	ret
    8bc8:	00000813          	li	a6,0
    8bcc:	00080513          	mv	a0,a6
    8bd0:	00008067          	ret

00008bd4 <core_list_remove>:
    8bd4:	00050793          	mv	a5,a0
    8bd8:	00052503          	lw	a0,0(a0)
    8bdc:	0047a683          	lw	a3,4(a5)
    8be0:	00452603          	lw	a2,4(a0)
    8be4:	00052703          	lw	a4,0(a0)
    8be8:	00c7a223          	sw	a2,4(a5)
    8bec:	00d52223          	sw	a3,4(a0)
    8bf0:	00e7a023          	sw	a4,0(a5)
    8bf4:	00052023          	sw	zero,0(a0)
    8bf8:	00008067          	ret

00008bfc <core_list_undo_remove>:
    8bfc:	0045a603          	lw	a2,4(a1)
    8c00:	00452683          	lw	a3,4(a0)
    8c04:	0005a703          	lw	a4,0(a1)
    8c08:	00c52223          	sw	a2,4(a0)
    8c0c:	00d5a223          	sw	a3,4(a1)
    8c10:	00e52023          	sw	a4,0(a0)
    8c14:	00a5a023          	sw	a0,0(a1)
    8c18:	00008067          	ret

00008c1c <core_list_find>:
    8c1c:	00259703          	lh	a4,2(a1)
    8c20:	02074263          	bltz	a4,8c44 <core_list_find+0x28>
    8c24:	00051863          	bnez	a0,8c34 <core_list_find+0x18>
    8c28:	0480006f          	j	8c70 <core_list_find+0x54>
    8c2c:	00052503          	lw	a0,0(a0)
    8c30:	02050c63          	beqz	a0,8c68 <core_list_find+0x4c>
    8c34:	00452783          	lw	a5,4(a0)
    8c38:	00279783          	lh	a5,2(a5)
    8c3c:	fee798e3          	bne	a5,a4,8c2c <core_list_find+0x10>
    8c40:	00008067          	ret
    8c44:	02050263          	beqz	a0,8c68 <core_list_find+0x4c>
    8c48:	00059703          	lh	a4,0(a1)
    8c4c:	00c0006f          	j	8c58 <core_list_find+0x3c>
    8c50:	00052503          	lw	a0,0(a0)
    8c54:	00050c63          	beqz	a0,8c6c <core_list_find+0x50>
    8c58:	00452783          	lw	a5,4(a0)
    8c5c:	0007c783          	lbu	a5,0(a5)
    8c60:	fee798e3          	bne	a5,a4,8c50 <core_list_find+0x34>
    8c64:	00008067          	ret
    8c68:	00000513          	li	a0,0
    8c6c:	00008067          	ret
    8c70:	00008067          	ret

00008c74 <core_list_reverse>:
    8c74:	02050063          	beqz	a0,8c94 <core_list_reverse+0x20>
    8c78:	00000713          	li	a4,0
    8c7c:	0080006f          	j	8c84 <core_list_reverse+0x10>
    8c80:	00078513          	mv	a0,a5
    8c84:	00052783          	lw	a5,0(a0)
    8c88:	00e52023          	sw	a4,0(a0)
    8c8c:	00050713          	mv	a4,a0
    8c90:	fe0798e3          	bnez	a5,8c80 <core_list_reverse+0xc>
    8c94:	00008067          	ret

00008c98 <core_list_mergesort>:
    8c98:	fd010113          	addi	sp,sp,-48
    8c9c:	02912223          	sw	s1,36(sp)
    8ca0:	01512a23          	sw	s5,20(sp)
    8ca4:	01712623          	sw	s7,12(sp)
    8ca8:	01912223          	sw	s9,4(sp)
    8cac:	01a12023          	sw	s10,0(sp)
    8cb0:	02112623          	sw	ra,44(sp)
    8cb4:	02812423          	sw	s0,40(sp)
    8cb8:	03212023          	sw	s2,32(sp)
    8cbc:	01312e23          	sw	s3,28(sp)
    8cc0:	01412c23          	sw	s4,24(sp)
    8cc4:	01612823          	sw	s6,16(sp)
    8cc8:	01812423          	sw	s8,8(sp)
    8ccc:	00050493          	mv	s1,a0
    8cd0:	00058b93          	mv	s7,a1
    8cd4:	00060d13          	mv	s10,a2
    8cd8:	00100a93          	li	s5,1
    8cdc:	00100c93          	li	s9,1
    8ce0:	0c048063          	beqz	s1,8da0 <core_list_mergesort+0x108>
    8ce4:	00000c13          	li	s8,0
    8ce8:	00000913          	li	s2,0
    8cec:	00000b13          	li	s6,0
    8cf0:	001c0c13          	addi	s8,s8,1
    8cf4:	00048793          	mv	a5,s1
    8cf8:	00000413          	li	s0,0
    8cfc:	0007a783          	lw	a5,0(a5)
    8d00:	00140413          	addi	s0,s0,1
    8d04:	00078463          	beqz	a5,8d0c <core_list_mergesort+0x74>
    8d08:	fe8a9ae3          	bne	s5,s0,8cfc <core_list_mergesort+0x64>
    8d0c:	00048a13          	mv	s4,s1
    8d10:	000a8993          	mv	s3,s5
    8d14:	00078493          	mv	s1,a5
    8d18:	02040e63          	beqz	s0,8d54 <core_list_mergesort+0xbc>
    8d1c:	04098e63          	beqz	s3,8d78 <core_list_mergesort+0xe0>
    8d20:	04048c63          	beqz	s1,8d78 <core_list_mergesort+0xe0>
    8d24:	0044a583          	lw	a1,4(s1)
    8d28:	004a2503          	lw	a0,4(s4)
    8d2c:	000d0613          	mv	a2,s10
    8d30:	000b80e7          	jalr	s7
    8d34:	04a05263          	blez	a0,8d78 <core_list_mergesort+0xe0>
    8d38:	00048793          	mv	a5,s1
    8d3c:	0004a483          	lw	s1,0(s1)
    8d40:	fff98993          	addi	s3,s3,-1
    8d44:	02090463          	beqz	s2,8d6c <core_list_mergesort+0xd4>
    8d48:	00f92023          	sw	a5,0(s2)
    8d4c:	00078913          	mv	s2,a5
    8d50:	fc0416e3          	bnez	s0,8d1c <core_list_mergesort+0x84>
    8d54:	02098a63          	beqz	s3,8d88 <core_list_mergesort+0xf0>
    8d58:	02048a63          	beqz	s1,8d8c <core_list_mergesort+0xf4>
    8d5c:	00048793          	mv	a5,s1
    8d60:	fff98993          	addi	s3,s3,-1
    8d64:	0004a483          	lw	s1,0(s1)
    8d68:	fe0910e3          	bnez	s2,8d48 <core_list_mergesort+0xb0>
    8d6c:	00078b13          	mv	s6,a5
    8d70:	00078913          	mv	s2,a5
    8d74:	fddff06f          	j	8d50 <core_list_mergesort+0xb8>
    8d78:	000a0793          	mv	a5,s4
    8d7c:	fff40413          	addi	s0,s0,-1
    8d80:	000a2a03          	lw	s4,0(s4)
    8d84:	fc1ff06f          	j	8d44 <core_list_mergesort+0xac>
    8d88:	f60494e3          	bnez	s1,8cf0 <core_list_mergesort+0x58>
    8d8c:	00092023          	sw	zero,0(s2)
    8d90:	019c0c63          	beq	s8,s9,8da8 <core_list_mergesort+0x110>
    8d94:	001a9a93          	slli	s5,s5,0x1
    8d98:	000b0493          	mv	s1,s6
    8d9c:	f45ff06f          	j	8ce0 <core_list_mergesort+0x48>
    8da0:	00002023          	sw	zero,0(zero) # 0 <_start-0x8000>
    8da4:	00100073          	ebreak
    8da8:	02c12083          	lw	ra,44(sp)
    8dac:	02812403          	lw	s0,40(sp)
    8db0:	02412483          	lw	s1,36(sp)
    8db4:	02012903          	lw	s2,32(sp)
    8db8:	01c12983          	lw	s3,28(sp)
    8dbc:	01812a03          	lw	s4,24(sp)
    8dc0:	01412a83          	lw	s5,20(sp)
    8dc4:	00c12b83          	lw	s7,12(sp)
    8dc8:	00812c03          	lw	s8,8(sp)
    8dcc:	00412c83          	lw	s9,4(sp)
    8dd0:	00012d03          	lw	s10,0(sp)
    8dd4:	000b0513          	mv	a0,s6
    8dd8:	01012b03          	lw	s6,16(sp)
    8ddc:	03010113          	addi	sp,sp,48
    8de0:	00008067          	ret

00008de4 <iterate>:
    8de4:	ff010113          	addi	sp,sp,-16
    8de8:	01212023          	sw	s2,0(sp)
    8dec:	01c52903          	lw	s2,28(a0)
    8df0:	00112623          	sw	ra,12(sp)
    8df4:	00812423          	sw	s0,8(sp)
    8df8:	00912223          	sw	s1,4(sp)
    8dfc:	02052c23          	sw	zero,56(a0)
    8e00:	02052e23          	sw	zero,60(a0)
    8e04:	04090463          	beqz	s2,8e4c <iterate+0x68>
    8e08:	00050413          	mv	s0,a0
    8e0c:	00000493          	li	s1,0
    8e10:	00100593          	li	a1,1
    8e14:	00040513          	mv	a0,s0
    8e18:	e18ff0ef          	jal	ra,8430 <core_bench_list>
    8e1c:	03845583          	lhu	a1,56(s0)
    8e20:	6d0010ef          	jal	ra,a4f0 <crcu16>
    8e24:	02a41c23          	sh	a0,56(s0)
    8e28:	fff00593          	li	a1,-1
    8e2c:	00040513          	mv	a0,s0
    8e30:	e00ff0ef          	jal	ra,8430 <core_bench_list>
    8e34:	03845583          	lhu	a1,56(s0)
    8e38:	6b8010ef          	jal	ra,a4f0 <crcu16>
    8e3c:	02a41c23          	sh	a0,56(s0)
    8e40:	02048463          	beqz	s1,8e68 <iterate+0x84>
    8e44:	00148493          	addi	s1,s1,1
    8e48:	fc9914e3          	bne	s2,s1,8e10 <iterate+0x2c>
    8e4c:	00c12083          	lw	ra,12(sp)
    8e50:	00812403          	lw	s0,8(sp)
    8e54:	00412483          	lw	s1,4(sp)
    8e58:	00012903          	lw	s2,0(sp)
    8e5c:	00000513          	li	a0,0
    8e60:	01010113          	addi	sp,sp,16
    8e64:	00008067          	ret
    8e68:	02a41d23          	sh	a0,58(s0)
    8e6c:	00100793          	li	a5,1
    8e70:	fcf90ee3          	beq	s2,a5,8e4c <iterate+0x68>
    8e74:	00100493          	li	s1,1
    8e78:	f99ff06f          	j	8e10 <iterate+0x2c>

00008e7c <matrix_test>:
    8e7c:	fa010113          	addi	sp,sp,-96
    8e80:	05212823          	sw	s2,80(sp)
    8e84:	04112e23          	sw	ra,92(sp)
    8e88:	fffff937          	lui	s2,0xfffff
    8e8c:	04812c23          	sw	s0,88(sp)
    8e90:	04912a23          	sw	s1,84(sp)
    8e94:	05312623          	sw	s3,76(sp)
    8e98:	05412423          	sw	s4,72(sp)
    8e9c:	05512223          	sw	s5,68(sp)
    8ea0:	05612023          	sw	s6,64(sp)
    8ea4:	03712e23          	sw	s7,60(sp)
    8ea8:	03812c23          	sw	s8,56(sp)
    8eac:	03912a23          	sw	s9,52(sp)
    8eb0:	03a12823          	sw	s10,48(sp)
    8eb4:	03b12623          	sw	s11,44(sp)
    8eb8:	00b12223          	sw	a1,4(sp)
    8ebc:	00c12823          	sw	a2,16(sp)
    8ec0:	00d12423          	sw	a3,8(sp)
    8ec4:	01276933          	or	s2,a4,s2
    8ec8:	4e050c63          	beqz	a0,93c0 <matrix_test+0x544>
    8ecc:	40a00ab3          	neg	s5,a0
    8ed0:	00151493          	slli	s1,a0,0x1
    8ed4:	001a9793          	slli	a5,s5,0x1
    8ed8:	009609b3          	add	s3,a2,s1
    8edc:	01071b13          	slli	s6,a4,0x10
    8ee0:	00070d13          	mv	s10,a4
    8ee4:	00050813          	mv	a6,a0
    8ee8:	010b5b13          	srli	s6,s6,0x10
    8eec:	00f12623          	sw	a5,12(sp)
    8ef0:	00098693          	mv	a3,s3
    8ef4:	00000a13          	li	s4,0
    8ef8:	002a9a93          	slli	s5,s5,0x2
    8efc:	00c12783          	lw	a5,12(sp)
    8f00:	00f68633          	add	a2,a3,a5
    8f04:	00060793          	mv	a5,a2
    8f08:	0007d703          	lhu	a4,0(a5)
    8f0c:	00278793          	addi	a5,a5,2
    8f10:	00eb0733          	add	a4,s6,a4
    8f14:	fee79f23          	sh	a4,-2(a5)
    8f18:	fed798e3          	bne	a5,a3,8f08 <matrix_test+0x8c>
    8f1c:	001a0413          	addi	s0,s4,1
    8f20:	415606b3          	sub	a3,a2,s5
    8f24:	00880663          	beq	a6,s0,8f30 <matrix_test+0xb4>
    8f28:	00040a13          	mv	s4,s0
    8f2c:	fd1ff06f          	j	8efc <matrix_test+0x80>
    8f30:	00000c93          	li	s9,0
    8f34:	00012a23          	sw	zero,20(sp)
    8f38:	00c12783          	lw	a5,12(sp)
    8f3c:	002c9713          	slli	a4,s9,0x2
    8f40:	01378db3          	add	s11,a5,s3
    8f44:	00412783          	lw	a5,4(sp)
    8f48:	000d8b93          	mv	s7,s11
    8f4c:	00f70c33          	add	s8,a4,a5
    8f50:	000b9503          	lh	a0,0(s7)
    8f54:	000d0593          	mv	a1,s10
    8f58:	002b8b93          	addi	s7,s7,2
    8f5c:	4f5030ef          	jal	ra,cc50 <__mulsi3>
    8f60:	00ac2023          	sw	a0,0(s8)
    8f64:	004c0c13          	addi	s8,s8,4
    8f68:	ff3b94e3          	bne	s7,s3,8f50 <matrix_test+0xd4>
    8f6c:	01412703          	lw	a4,20(sp)
    8f70:	008c8cb3          	add	s9,s9,s0
    8f74:	415d89b3          	sub	s3,s11,s5
    8f78:	00170793          	addi	a5,a4,1
    8f7c:	01470663          	beq	a4,s4,8f88 <matrix_test+0x10c>
    8f80:	00f12a23          	sw	a5,20(sp)
    8f84:	fb5ff06f          	j	8f38 <matrix_test+0xbc>
    8f88:	00412703          	lw	a4,4(sp)
    8f8c:	00241793          	slli	a5,s0,0x2
    8f90:	40800e33          	neg	t3,s0
    8f94:	00f70cb3          	add	s9,a4,a5
    8f98:	00f12c23          	sw	a5,24(sp)
    8f9c:	000c8813          	mv	a6,s9
    8fa0:	00000513          	li	a0,0
    8fa4:	00000713          	li	a4,0
    8fa8:	00000613          	li	a2,0
    8fac:	00000893          	li	a7,0
    8fb0:	003e1e13          	slli	t3,t3,0x3
    8fb4:	010a8333          	add	t1,s5,a6
    8fb8:	00030793          	mv	a5,t1
    8fbc:	0140006f          	j	8fd0 <matrix_test+0x154>
    8fc0:	01051513          	slli	a0,a0,0x10
    8fc4:	00478793          	addi	a5,a5,4
    8fc8:	41055513          	srai	a0,a0,0x10
    8fcc:	03078e63          	beq	a5,a6,9008 <matrix_test+0x18c>
    8fd0:	00070693          	mv	a3,a4
    8fd4:	0007a703          	lw	a4,0(a5)
    8fd8:	01051513          	slli	a0,a0,0x10
    8fdc:	01055513          	srli	a0,a0,0x10
    8fe0:	00e6a6b3          	slt	a3,a3,a4
    8fe4:	00e60633          	add	a2,a2,a4
    8fe8:	00a50593          	addi	a1,a0,10
    8fec:	00d50533          	add	a0,a0,a3
    8ff0:	fcc958e3          	bge	s2,a2,8fc0 <matrix_test+0x144>
    8ff4:	01059513          	slli	a0,a1,0x10
    8ff8:	00478793          	addi	a5,a5,4
    8ffc:	41055513          	srai	a0,a0,0x10
    9000:	00000613          	li	a2,0
    9004:	fd0796e3          	bne	a5,a6,8fd0 <matrix_test+0x154>
    9008:	00188793          	addi	a5,a7,1
    900c:	41c30833          	sub	a6,t1,t3
    9010:	011a0663          	beq	s4,a7,901c <matrix_test+0x1a0>
    9014:	00078893          	mv	a7,a5
    9018:	f9dff06f          	j	8fb4 <matrix_test+0x138>
    901c:	00000593          	li	a1,0
    9020:	471010ef          	jal	ra,ac90 <crc16>
    9024:	00812783          	lw	a5,8(sp)
    9028:	00412a03          	lw	s4,4(sp)
    902c:	00050d13          	mv	s10,a0
    9030:	009789b3          	add	s3,a5,s1
    9034:	00000a93          	li	s5,0
    9038:	01012703          	lw	a4,16(sp)
    903c:	00812d83          	lw	s11,8(sp)
    9040:	001a9793          	slli	a5,s5,0x1
    9044:	00f70c33          	add	s8,a4,a5
    9048:	00000b93          	li	s7,0
    904c:	000d9583          	lh	a1,0(s11)
    9050:	000c1503          	lh	a0,0(s8)
    9054:	002d8d93          	addi	s11,s11,2
    9058:	002c0c13          	addi	s8,s8,2
    905c:	3f5030ef          	jal	ra,cc50 <__mulsi3>
    9060:	00ab8bb3          	add	s7,s7,a0
    9064:	ffb994e3          	bne	s3,s11,904c <matrix_test+0x1d0>
    9068:	017a2023          	sw	s7,0(s4)
    906c:	004a0a13          	addi	s4,s4,4
    9070:	008a8ab3          	add	s5,s5,s0
    9074:	fd9a12e3          	bne	s4,s9,9038 <matrix_test+0x1bc>
    9078:	00000313          	li	t1,0
    907c:	00000513          	li	a0,0
    9080:	00000793          	li	a5,0
    9084:	00000693          	li	a3,0
    9088:	00000893          	li	a7,0
    908c:	00412703          	lw	a4,4(sp)
    9090:	00231613          	slli	a2,t1,0x2
    9094:	00000593          	li	a1,0
    9098:	00c70633          	add	a2,a4,a2
    909c:	0180006f          	j	90b4 <matrix_test+0x238>
    90a0:	01051513          	slli	a0,a0,0x10
    90a4:	00158593          	addi	a1,a1,1
    90a8:	41055513          	srai	a0,a0,0x10
    90ac:	00460613          	addi	a2,a2,4
    90b0:	0485f063          	bgeu	a1,s0,90f0 <matrix_test+0x274>
    90b4:	00078713          	mv	a4,a5
    90b8:	00062783          	lw	a5,0(a2)
    90bc:	01051513          	slli	a0,a0,0x10
    90c0:	01055513          	srli	a0,a0,0x10
    90c4:	00f72733          	slt	a4,a4,a5
    90c8:	00f686b3          	add	a3,a3,a5
    90cc:	00a50813          	addi	a6,a0,10
    90d0:	00e50533          	add	a0,a0,a4
    90d4:	fcd956e3          	bge	s2,a3,90a0 <matrix_test+0x224>
    90d8:	01081513          	slli	a0,a6,0x10
    90dc:	00158593          	addi	a1,a1,1
    90e0:	41055513          	srai	a0,a0,0x10
    90e4:	00000693          	li	a3,0
    90e8:	00460613          	addi	a2,a2,4
    90ec:	fc85e4e3          	bltu	a1,s0,90b4 <matrix_test+0x238>
    90f0:	00188893          	addi	a7,a7,1
    90f4:	00830333          	add	t1,t1,s0
    90f8:	f888eae3          	bltu	a7,s0,908c <matrix_test+0x210>
    90fc:	000d0593          	mv	a1,s10
    9100:	391010ef          	jal	ra,ac90 <crc16>
    9104:	00412783          	lw	a5,4(sp)
    9108:	01012c83          	lw	s9,16(sp)
    910c:	00a12e23          	sw	a0,28(sp)
    9110:	00f12623          	sw	a5,12(sp)
    9114:	00012a23          	sw	zero,20(sp)
    9118:	00812a83          	lw	s5,8(sp)
    911c:	00c12a03          	lw	s4,12(sp)
    9120:	00000993          	li	s3,0
    9124:	000a8d93          	mv	s11,s5
    9128:	000c8d13          	mv	s10,s9
    912c:	00000b93          	li	s7,0
    9130:	00000c13          	li	s8,0
    9134:	000d9583          	lh	a1,0(s11)
    9138:	000d1503          	lh	a0,0(s10)
    913c:	001c0c13          	addi	s8,s8,1
    9140:	002d0d13          	addi	s10,s10,2
    9144:	30d030ef          	jal	ra,cc50 <__mulsi3>
    9148:	00ab8bb3          	add	s7,s7,a0
    914c:	009d8db3          	add	s11,s11,s1
    9150:	fe8c62e3          	bltu	s8,s0,9134 <matrix_test+0x2b8>
    9154:	017a2023          	sw	s7,0(s4)
    9158:	00198993          	addi	s3,s3,1
    915c:	004a0a13          	addi	s4,s4,4
    9160:	002a8a93          	addi	s5,s5,2
    9164:	fc89e0e3          	bltu	s3,s0,9124 <matrix_test+0x2a8>
    9168:	01412783          	lw	a5,20(sp)
    916c:	00c12703          	lw	a4,12(sp)
    9170:	01812683          	lw	a3,24(sp)
    9174:	00178793          	addi	a5,a5,1
    9178:	00f12a23          	sw	a5,20(sp)
    917c:	00d70733          	add	a4,a4,a3
    9180:	00e12623          	sw	a4,12(sp)
    9184:	009c8cb3          	add	s9,s9,s1
    9188:	f887e8e3          	bltu	a5,s0,9118 <matrix_test+0x29c>
    918c:	00000313          	li	t1,0
    9190:	00000513          	li	a0,0
    9194:	00000793          	li	a5,0
    9198:	00000693          	li	a3,0
    919c:	00000893          	li	a7,0
    91a0:	00412703          	lw	a4,4(sp)
    91a4:	00231613          	slli	a2,t1,0x2
    91a8:	00000593          	li	a1,0
    91ac:	00c70633          	add	a2,a4,a2
    91b0:	0180006f          	j	91c8 <matrix_test+0x34c>
    91b4:	01051513          	slli	a0,a0,0x10
    91b8:	00158593          	addi	a1,a1,1
    91bc:	41055513          	srai	a0,a0,0x10
    91c0:	00460613          	addi	a2,a2,4
    91c4:	0485f063          	bgeu	a1,s0,9204 <matrix_test+0x388>
    91c8:	00078713          	mv	a4,a5
    91cc:	00062783          	lw	a5,0(a2)
    91d0:	01051513          	slli	a0,a0,0x10
    91d4:	01055513          	srli	a0,a0,0x10
    91d8:	00f72733          	slt	a4,a4,a5
    91dc:	00f686b3          	add	a3,a3,a5
    91e0:	00a50813          	addi	a6,a0,10
    91e4:	00e50533          	add	a0,a0,a4
    91e8:	fcd956e3          	bge	s2,a3,91b4 <matrix_test+0x338>
    91ec:	01081513          	slli	a0,a6,0x10
    91f0:	00158593          	addi	a1,a1,1
    91f4:	41055513          	srai	a0,a0,0x10
    91f8:	00000693          	li	a3,0
    91fc:	00460613          	addi	a2,a2,4
    9200:	fc85e4e3          	bltu	a1,s0,91c8 <matrix_test+0x34c>
    9204:	00188893          	addi	a7,a7,1
    9208:	00830333          	add	t1,t1,s0
    920c:	f888eae3          	bltu	a7,s0,91a0 <matrix_test+0x324>
    9210:	01c12583          	lw	a1,28(sp)
    9214:	27d010ef          	jal	ra,ac90 <crc16>
    9218:	00412783          	lw	a5,4(sp)
    921c:	01012c83          	lw	s9,16(sp)
    9220:	00a12e23          	sw	a0,28(sp)
    9224:	00f12623          	sw	a5,12(sp)
    9228:	00012a23          	sw	zero,20(sp)
    922c:	00812a83          	lw	s5,8(sp)
    9230:	00c12a03          	lw	s4,12(sp)
    9234:	00000993          	li	s3,0
    9238:	000a8b93          	mv	s7,s5
    923c:	000c8c13          	mv	s8,s9
    9240:	00000d13          	li	s10,0
    9244:	00000d93          	li	s11,0
    9248:	000b9583          	lh	a1,0(s7)
    924c:	000c1503          	lh	a0,0(s8)
    9250:	001d8d93          	addi	s11,s11,1
    9254:	002c0c13          	addi	s8,s8,2
    9258:	1f9030ef          	jal	ra,cc50 <__mulsi3>
    925c:	40255813          	srai	a6,a0,0x2
    9260:	40555593          	srai	a1,a0,0x5
    9264:	07f5f593          	andi	a1,a1,127
    9268:	00f87513          	andi	a0,a6,15
    926c:	1e5030ef          	jal	ra,cc50 <__mulsi3>
    9270:	00ad0d33          	add	s10,s10,a0
    9274:	009b8bb3          	add	s7,s7,s1
    9278:	fc8de8e3          	bltu	s11,s0,9248 <matrix_test+0x3cc>
    927c:	01aa2023          	sw	s10,0(s4)
    9280:	00198993          	addi	s3,s3,1
    9284:	004a0a13          	addi	s4,s4,4
    9288:	002a8a93          	addi	s5,s5,2
    928c:	fa89e6e3          	bltu	s3,s0,9238 <matrix_test+0x3bc>
    9290:	01412783          	lw	a5,20(sp)
    9294:	00c12703          	lw	a4,12(sp)
    9298:	01812683          	lw	a3,24(sp)
    929c:	00178793          	addi	a5,a5,1
    92a0:	00f12a23          	sw	a5,20(sp)
    92a4:	00d70733          	add	a4,a4,a3
    92a8:	00e12623          	sw	a4,12(sp)
    92ac:	009c8cb3          	add	s9,s9,s1
    92b0:	f687eee3          	bltu	a5,s0,922c <matrix_test+0x3b0>
    92b4:	00000313          	li	t1,0
    92b8:	00000513          	li	a0,0
    92bc:	00000793          	li	a5,0
    92c0:	00000693          	li	a3,0
    92c4:	00000893          	li	a7,0
    92c8:	00412703          	lw	a4,4(sp)
    92cc:	00231613          	slli	a2,t1,0x2
    92d0:	00000593          	li	a1,0
    92d4:	00c70633          	add	a2,a4,a2
    92d8:	0180006f          	j	92f0 <matrix_test+0x474>
    92dc:	01051513          	slli	a0,a0,0x10
    92e0:	00158593          	addi	a1,a1,1
    92e4:	41055513          	srai	a0,a0,0x10
    92e8:	00460613          	addi	a2,a2,4
    92ec:	0485f063          	bgeu	a1,s0,932c <matrix_test+0x4b0>
    92f0:	00078713          	mv	a4,a5
    92f4:	00062783          	lw	a5,0(a2)
    92f8:	01051513          	slli	a0,a0,0x10
    92fc:	01055513          	srli	a0,a0,0x10
    9300:	00f72733          	slt	a4,a4,a5
    9304:	00f686b3          	add	a3,a3,a5
    9308:	00a50813          	addi	a6,a0,10
    930c:	00e50533          	add	a0,a0,a4
    9310:	fcd956e3          	bge	s2,a3,92dc <matrix_test+0x460>
    9314:	01081513          	slli	a0,a6,0x10
    9318:	00158593          	addi	a1,a1,1
    931c:	41055513          	srai	a0,a0,0x10
    9320:	00000693          	li	a3,0
    9324:	00460613          	addi	a2,a2,4
    9328:	fc85e4e3          	bltu	a1,s0,92f0 <matrix_test+0x474>
    932c:	00188893          	addi	a7,a7,1
    9330:	00830333          	add	t1,t1,s0
    9334:	f888eae3          	bltu	a7,s0,92c8 <matrix_test+0x44c>
    9338:	01c12583          	lw	a1,28(sp)
    933c:	155010ef          	jal	ra,ac90 <crc16>
    9340:	00000593          	li	a1,0
    9344:	00000613          	li	a2,0
    9348:	01012703          	lw	a4,16(sp)
    934c:	00159793          	slli	a5,a1,0x1
    9350:	00000693          	li	a3,0
    9354:	00f707b3          	add	a5,a4,a5
    9358:	0007d703          	lhu	a4,0(a5)
    935c:	00278793          	addi	a5,a5,2
    9360:	00168693          	addi	a3,a3,1
    9364:	41670733          	sub	a4,a4,s6
    9368:	fee79f23          	sh	a4,-2(a5)
    936c:	fe86e6e3          	bltu	a3,s0,9358 <matrix_test+0x4dc>
    9370:	00160613          	addi	a2,a2,1
    9374:	008585b3          	add	a1,a1,s0
    9378:	fc8668e3          	bltu	a2,s0,9348 <matrix_test+0x4cc>
    937c:	05c12083          	lw	ra,92(sp)
    9380:	05812403          	lw	s0,88(sp)
    9384:	01051513          	slli	a0,a0,0x10
    9388:	05412483          	lw	s1,84(sp)
    938c:	05012903          	lw	s2,80(sp)
    9390:	04c12983          	lw	s3,76(sp)
    9394:	04812a03          	lw	s4,72(sp)
    9398:	04412a83          	lw	s5,68(sp)
    939c:	04012b03          	lw	s6,64(sp)
    93a0:	03c12b83          	lw	s7,60(sp)
    93a4:	03812c03          	lw	s8,56(sp)
    93a8:	03412c83          	lw	s9,52(sp)
    93ac:	03012d03          	lw	s10,48(sp)
    93b0:	02c12d83          	lw	s11,44(sp)
    93b4:	41055513          	srai	a0,a0,0x10
    93b8:	06010113          	addi	sp,sp,96
    93bc:	00008067          	ret
    93c0:	00000593          	li	a1,0
    93c4:	0cd010ef          	jal	ra,ac90 <crc16>
    93c8:	00050593          	mv	a1,a0
    93cc:	00000513          	li	a0,0
    93d0:	0c1010ef          	jal	ra,ac90 <crc16>
    93d4:	00050593          	mv	a1,a0
    93d8:	00000513          	li	a0,0
    93dc:	0b5010ef          	jal	ra,ac90 <crc16>
    93e0:	00050593          	mv	a1,a0
    93e4:	00000513          	li	a0,0
    93e8:	0a9010ef          	jal	ra,ac90 <crc16>
    93ec:	f91ff06f          	j	937c <matrix_test+0x500>

000093f0 <core_bench_matrix>:
    93f0:	ff010113          	addi	sp,sp,-16
    93f4:	00812423          	sw	s0,8(sp)
    93f8:	00852683          	lw	a3,8(a0)
    93fc:	00060413          	mv	s0,a2
    9400:	00058713          	mv	a4,a1
    9404:	00452603          	lw	a2,4(a0)
    9408:	00c52583          	lw	a1,12(a0)
    940c:	00052503          	lw	a0,0(a0)
    9410:	00112623          	sw	ra,12(sp)
    9414:	a69ff0ef          	jal	ra,8e7c <matrix_test>
    9418:	00040593          	mv	a1,s0
    941c:	00812403          	lw	s0,8(sp)
    9420:	00c12083          	lw	ra,12(sp)
    9424:	01010113          	addi	sp,sp,16
    9428:	0690106f          	j	ac90 <crc16>

0000942c <core_init_matrix>:
    942c:	fb010113          	addi	sp,sp,-80
    9430:	05212023          	sw	s2,64(sp)
    9434:	01b12e23          	sw	s11,28(sp)
    9438:	04112623          	sw	ra,76(sp)
    943c:	04812423          	sw	s0,72(sp)
    9440:	04912223          	sw	s1,68(sp)
    9444:	03312e23          	sw	s3,60(sp)
    9448:	03412c23          	sw	s4,56(sp)
    944c:	03512a23          	sw	s5,52(sp)
    9450:	03612823          	sw	s6,48(sp)
    9454:	03712623          	sw	s7,44(sp)
    9458:	03812423          	sw	s8,40(sp)
    945c:	03912223          	sw	s9,36(sp)
    9460:	03a12023          	sw	s10,32(sp)
    9464:	00d12623          	sw	a3,12(sp)
    9468:	00050913          	mv	s2,a0
    946c:	00100d93          	li	s11,1
    9470:	00060463          	beqz	a2,9478 <core_init_matrix+0x4c>
    9474:	00060d93          	mv	s11,a2
    9478:	fff58593          	addi	a1,a1,-1
    947c:	ffc5fb13          	andi	s6,a1,-4
    9480:	004b0793          	addi	a5,s6,4
    9484:	00f12023          	sw	a5,0(sp)
    9488:	00000493          	li	s1,0
    948c:	14090e63          	beqz	s2,95e8 <core_init_matrix+0x1bc>
    9490:	00048413          	mv	s0,s1
    9494:	00148493          	addi	s1,s1,1
    9498:	00048593          	mv	a1,s1
    949c:	00048513          	mv	a0,s1
    94a0:	7b0030ef          	jal	ra,cc50 <__mulsi3>
    94a4:	00351513          	slli	a0,a0,0x3
    94a8:	ff2564e3          	bltu	a0,s2,9490 <core_init_matrix+0x64>
    94ac:	00040593          	mv	a1,s0
    94b0:	00040513          	mv	a0,s0
    94b4:	79c030ef          	jal	ra,cc50 <__mulsi3>
    94b8:	00012703          	lw	a4,0(sp)
    94bc:	00151793          	slli	a5,a0,0x1
    94c0:	00f12223          	sw	a5,4(sp)
    94c4:	00812423          	sw	s0,8(sp)
    94c8:	00f70b33          	add	s6,a4,a5
    94cc:	0a040663          	beqz	s0,9578 <core_init_matrix+0x14c>
    94d0:	00012783          	lw	a5,0(sp)
    94d4:	000104b7          	lui	s1,0x10
    94d8:	00000a93          	li	s5,0
    94dc:	00000a13          	li	s4,0
    94e0:	00100993          	li	s3,1
    94e4:	41678933          	sub	s2,a5,s6
    94e8:	fff48493          	addi	s1,s1,-1 # ffff <main+0x32d7>
    94ec:	fff40c93          	addi	s9,s0,-1
    94f0:	001a9693          	slli	a3,s5,0x1
    94f4:	01668c33          	add	s8,a3,s6
    94f8:	00098d13          	mv	s10,s3
    94fc:	00000b93          	li	s7,0
    9500:	000d0593          	mv	a1,s10
    9504:	000d8513          	mv	a0,s11
    9508:	748030ef          	jal	ra,cc50 <__mulsi3>
    950c:	41f55613          	srai	a2,a0,0x1f
    9510:	01065713          	srli	a4,a2,0x10
    9514:	00e50633          	add	a2,a0,a4
    9518:	010d1793          	slli	a5,s10,0x10
    951c:	00967633          	and	a2,a2,s1
    9520:	0107d793          	srli	a5,a5,0x10
    9524:	40e60db3          	sub	s11,a2,a4
    9528:	01b78733          	add	a4,a5,s11
    952c:	01071713          	slli	a4,a4,0x10
    9530:	01075713          	srli	a4,a4,0x10
    9534:	00f707b3          	add	a5,a4,a5
    9538:	00ec1023          	sh	a4,0(s8)
    953c:	0ff7f793          	andi	a5,a5,255
    9540:	01890733          	add	a4,s2,s8
    9544:	00f71023          	sh	a5,0(a4)
    9548:	001b8b93          	addi	s7,s7,1
    954c:	001d0d13          	addi	s10,s10,1
    9550:	002c0c13          	addi	s8,s8,2
    9554:	fa8be6e3          	bltu	s7,s0,9500 <core_init_matrix+0xd4>
    9558:	00198993          	addi	s3,s3,1
    955c:	00000793          	li	a5,0
    9560:	00040463          	beqz	s0,9568 <core_init_matrix+0x13c>
    9564:	000c8793          	mv	a5,s9
    9568:	001a0a13          	addi	s4,s4,1
    956c:	013789b3          	add	s3,a5,s3
    9570:	008a8ab3          	add	s5,s5,s0
    9574:	f68a6ee3          	bltu	s4,s0,94f0 <core_init_matrix+0xc4>
    9578:	00412783          	lw	a5,4(sp)
    957c:	00c12703          	lw	a4,12(sp)
    9580:	00012683          	lw	a3,0(sp)
    9584:	00fb07b3          	add	a5,s6,a5
    9588:	fff78793          	addi	a5,a5,-1
    958c:	ffc7f793          	andi	a5,a5,-4
    9590:	00478793          	addi	a5,a5,4
    9594:	00f72623          	sw	a5,12(a4)
    9598:	00812783          	lw	a5,8(sp)
    959c:	04c12083          	lw	ra,76(sp)
    95a0:	00040513          	mv	a0,s0
    95a4:	04812403          	lw	s0,72(sp)
    95a8:	01672423          	sw	s6,8(a4)
    95ac:	00d72223          	sw	a3,4(a4)
    95b0:	00f72023          	sw	a5,0(a4)
    95b4:	04412483          	lw	s1,68(sp)
    95b8:	04012903          	lw	s2,64(sp)
    95bc:	03c12983          	lw	s3,60(sp)
    95c0:	03812a03          	lw	s4,56(sp)
    95c4:	03412a83          	lw	s5,52(sp)
    95c8:	03012b03          	lw	s6,48(sp)
    95cc:	02c12b83          	lw	s7,44(sp)
    95d0:	02812c03          	lw	s8,40(sp)
    95d4:	02412c83          	lw	s9,36(sp)
    95d8:	02012d03          	lw	s10,32(sp)
    95dc:	01c12d83          	lw	s11,28(sp)
    95e0:	05010113          	addi	sp,sp,80
    95e4:	00008067          	ret
    95e8:	fff00793          	li	a5,-1
    95ec:	00f12423          	sw	a5,8(sp)
    95f0:	00200793          	li	a5,2
    95f4:	006b0b13          	addi	s6,s6,6
    95f8:	fff00413          	li	s0,-1
    95fc:	00f12223          	sw	a5,4(sp)
    9600:	ed1ff06f          	j	94d0 <core_init_matrix+0xa4>

00009604 <matrix_sum>:
    9604:	00050e93          	mv	t4,a0
    9608:	08050663          	beqz	a0,9694 <matrix_sum+0x90>
    960c:	40a00f33          	neg	t5,a0
    9610:	00251893          	slli	a7,a0,0x2
    9614:	011588b3          	add	a7,a1,a7
    9618:	002f1f93          	slli	t6,t5,0x2
    961c:	00000313          	li	t1,0
    9620:	00000513          	li	a0,0
    9624:	00000713          	li	a4,0
    9628:	00000593          	li	a1,0
    962c:	003f1f13          	slli	t5,t5,0x3
    9630:	011f8e33          	add	t3,t6,a7
    9634:	000e0793          	mv	a5,t3
    9638:	0140006f          	j	964c <matrix_sum+0x48>
    963c:	01051513          	slli	a0,a0,0x10
    9640:	00478793          	addi	a5,a5,4
    9644:	41055513          	srai	a0,a0,0x10
    9648:	02f88e63          	beq	a7,a5,9684 <matrix_sum+0x80>
    964c:	00070693          	mv	a3,a4
    9650:	0007a703          	lw	a4,0(a5)
    9654:	01051513          	slli	a0,a0,0x10
    9658:	01055513          	srli	a0,a0,0x10
    965c:	00e6a6b3          	slt	a3,a3,a4
    9660:	00e585b3          	add	a1,a1,a4
    9664:	00a50813          	addi	a6,a0,10
    9668:	00d50533          	add	a0,a0,a3
    966c:	fcb658e3          	bge	a2,a1,963c <matrix_sum+0x38>
    9670:	01081513          	slli	a0,a6,0x10
    9674:	00478793          	addi	a5,a5,4
    9678:	41055513          	srai	a0,a0,0x10
    967c:	00000593          	li	a1,0
    9680:	fcf896e3          	bne	a7,a5,964c <matrix_sum+0x48>
    9684:	00130313          	addi	t1,t1,1
    9688:	41ee08b3          	sub	a7,t3,t5
    968c:	fa6e92e3          	bne	t4,t1,9630 <matrix_sum+0x2c>
    9690:	00008067          	ret
    9694:	00000513          	li	a0,0
    9698:	00008067          	ret

0000969c <matrix_mul_const>:
    969c:	0c050a63          	beqz	a0,9770 <matrix_mul_const+0xd4>
    96a0:	fd010113          	addi	sp,sp,-48
    96a4:	03212023          	sw	s2,32(sp)
    96a8:	01712623          	sw	s7,12(sp)
    96ac:	00151913          	slli	s2,a0,0x1
    96b0:	40a00bb3          	neg	s7,a0
    96b4:	01312e23          	sw	s3,28(sp)
    96b8:	01412c23          	sw	s4,24(sp)
    96bc:	01612823          	sw	s6,16(sp)
    96c0:	01812423          	sw	s8,8(sp)
    96c4:	01912223          	sw	s9,4(sp)
    96c8:	01a12023          	sw	s10,0(sp)
    96cc:	001b9c93          	slli	s9,s7,0x1
    96d0:	02112623          	sw	ra,44(sp)
    96d4:	02812423          	sw	s0,40(sp)
    96d8:	02912223          	sw	s1,36(sp)
    96dc:	01512a23          	sw	s5,20(sp)
    96e0:	00050b13          	mv	s6,a0
    96e4:	00058c13          	mv	s8,a1
    96e8:	00068d13          	mv	s10,a3
    96ec:	01260933          	add	s2,a2,s2
    96f0:	00000a13          	li	s4,0
    96f4:	00000993          	li	s3,0
    96f8:	002b9b93          	slli	s7,s7,0x2
    96fc:	012c8ab3          	add	s5,s9,s2
    9700:	002a1493          	slli	s1,s4,0x2
    9704:	009c04b3          	add	s1,s8,s1
    9708:	000a8413          	mv	s0,s5
    970c:	00041503          	lh	a0,0(s0)
    9710:	000d0593          	mv	a1,s10
    9714:	00240413          	addi	s0,s0,2
    9718:	538030ef          	jal	ra,cc50 <__mulsi3>
    971c:	00a4a023          	sw	a0,0(s1)
    9720:	00448493          	addi	s1,s1,4
    9724:	fe8914e3          	bne	s2,s0,970c <matrix_mul_const+0x70>
    9728:	00198993          	addi	s3,s3,1
    972c:	016a0a33          	add	s4,s4,s6
    9730:	417a8933          	sub	s2,s5,s7
    9734:	fd3b14e3          	bne	s6,s3,96fc <matrix_mul_const+0x60>
    9738:	02c12083          	lw	ra,44(sp)
    973c:	02812403          	lw	s0,40(sp)
    9740:	02412483          	lw	s1,36(sp)
    9744:	02012903          	lw	s2,32(sp)
    9748:	01c12983          	lw	s3,28(sp)
    974c:	01812a03          	lw	s4,24(sp)
    9750:	01412a83          	lw	s5,20(sp)
    9754:	01012b03          	lw	s6,16(sp)
    9758:	00c12b83          	lw	s7,12(sp)
    975c:	00812c03          	lw	s8,8(sp)
    9760:	00412c83          	lw	s9,4(sp)
    9764:	00012d03          	lw	s10,0(sp)
    9768:	03010113          	addi	sp,sp,48
    976c:	00008067          	ret
    9770:	00008067          	ret

00009774 <matrix_add_const>:
    9774:	04050663          	beqz	a0,97c0 <matrix_add_const+0x4c>
    9778:	40a008b3          	neg	a7,a0
    977c:	00151693          	slli	a3,a0,0x1
    9780:	01061613          	slli	a2,a2,0x10
    9784:	00d586b3          	add	a3,a1,a3
    9788:	00189313          	slli	t1,a7,0x1
    978c:	01065613          	srli	a2,a2,0x10
    9790:	00000593          	li	a1,0
    9794:	00289893          	slli	a7,a7,0x2
    9798:	00d30833          	add	a6,t1,a3
    979c:	00080793          	mv	a5,a6
    97a0:	0007d703          	lhu	a4,0(a5)
    97a4:	00278793          	addi	a5,a5,2
    97a8:	00e60733          	add	a4,a2,a4
    97ac:	fee79f23          	sh	a4,-2(a5)
    97b0:	fed798e3          	bne	a5,a3,97a0 <matrix_add_const+0x2c>
    97b4:	00158593          	addi	a1,a1,1
    97b8:	411806b3          	sub	a3,a6,a7
    97bc:	fcb51ee3          	bne	a0,a1,9798 <matrix_add_const+0x24>
    97c0:	00008067          	ret

000097c4 <matrix_mul_vect>:
    97c4:	0c050463          	beqz	a0,988c <matrix_mul_vect+0xc8>
    97c8:	fd010113          	addi	sp,sp,-48
    97cc:	01312e23          	sw	s3,28(sp)
    97d0:	01612823          	sw	s6,16(sp)
    97d4:	00151993          	slli	s3,a0,0x1
    97d8:	00251b13          	slli	s6,a0,0x2
    97dc:	01412c23          	sw	s4,24(sp)
    97e0:	01512a23          	sw	s5,20(sp)
    97e4:	01712623          	sw	s7,12(sp)
    97e8:	01812423          	sw	s8,8(sp)
    97ec:	01912223          	sw	s9,4(sp)
    97f0:	02112623          	sw	ra,44(sp)
    97f4:	02812423          	sw	s0,40(sp)
    97f8:	02912223          	sw	s1,36(sp)
    97fc:	03212023          	sw	s2,32(sp)
    9800:	00050a93          	mv	s5,a0
    9804:	00060c13          	mv	s8,a2
    9808:	00068b93          	mv	s7,a3
    980c:	00058a13          	mv	s4,a1
    9810:	01658b33          	add	s6,a1,s6
    9814:	013689b3          	add	s3,a3,s3
    9818:	00000c93          	li	s9,0
    981c:	001c9493          	slli	s1,s9,0x1
    9820:	009c04b3          	add	s1,s8,s1
    9824:	000b8413          	mv	s0,s7
    9828:	00000913          	li	s2,0
    982c:	00041583          	lh	a1,0(s0)
    9830:	00049503          	lh	a0,0(s1)
    9834:	00240413          	addi	s0,s0,2
    9838:	00248493          	addi	s1,s1,2
    983c:	414030ef          	jal	ra,cc50 <__mulsi3>
    9840:	00a90933          	add	s2,s2,a0
    9844:	fe8994e3          	bne	s3,s0,982c <matrix_mul_vect+0x68>
    9848:	012a2023          	sw	s2,0(s4)
    984c:	004a0a13          	addi	s4,s4,4
    9850:	015c8cb3          	add	s9,s9,s5
    9854:	fd4b14e3          	bne	s6,s4,981c <matrix_mul_vect+0x58>
    9858:	02c12083          	lw	ra,44(sp)
    985c:	02812403          	lw	s0,40(sp)
    9860:	02412483          	lw	s1,36(sp)
    9864:	02012903          	lw	s2,32(sp)
    9868:	01c12983          	lw	s3,28(sp)
    986c:	01812a03          	lw	s4,24(sp)
    9870:	01412a83          	lw	s5,20(sp)
    9874:	01012b03          	lw	s6,16(sp)
    9878:	00c12b83          	lw	s7,12(sp)
    987c:	00812c03          	lw	s8,8(sp)
    9880:	00412c83          	lw	s9,4(sp)
    9884:	03010113          	addi	sp,sp,48
    9888:	00008067          	ret
    988c:	00008067          	ret

00009890 <matrix_mul_matrix>:
    9890:	fb010113          	addi	sp,sp,-80
    9894:	04112623          	sw	ra,76(sp)
    9898:	04812423          	sw	s0,72(sp)
    989c:	04912223          	sw	s1,68(sp)
    98a0:	05212023          	sw	s2,64(sp)
    98a4:	03312e23          	sw	s3,60(sp)
    98a8:	03412c23          	sw	s4,56(sp)
    98ac:	03512a23          	sw	s5,52(sp)
    98b0:	03612823          	sw	s6,48(sp)
    98b4:	03712623          	sw	s7,44(sp)
    98b8:	03812423          	sw	s8,40(sp)
    98bc:	03912223          	sw	s9,36(sp)
    98c0:	03a12023          	sw	s10,32(sp)
    98c4:	01b12e23          	sw	s11,28(sp)
    98c8:	00b12423          	sw	a1,8(sp)
    98cc:	00d12623          	sw	a3,12(sp)
    98d0:	08050863          	beqz	a0,9960 <matrix_mul_matrix+0xd0>
    98d4:	00151493          	slli	s1,a0,0x1
    98d8:	00050b93          	mv	s7,a0
    98dc:	00060b13          	mv	s6,a2
    98e0:	00960933          	add	s2,a2,s1
    98e4:	00000c13          	li	s8,0
    98e8:	00000c93          	li	s9,0
    98ec:	00812783          	lw	a5,8(sp)
    98f0:	00c12a03          	lw	s4,12(sp)
    98f4:	002c1993          	slli	s3,s8,0x2
    98f8:	013789b3          	add	s3,a5,s3
    98fc:	00000a93          	li	s5,0
    9900:	000a0d93          	mv	s11,s4
    9904:	000b0413          	mv	s0,s6
    9908:	00000d13          	li	s10,0
    990c:	000d9583          	lh	a1,0(s11)
    9910:	00041503          	lh	a0,0(s0)
    9914:	00240413          	addi	s0,s0,2
    9918:	009d8db3          	add	s11,s11,s1
    991c:	334030ef          	jal	ra,cc50 <__mulsi3>
    9920:	00ad0d33          	add	s10,s10,a0
    9924:	fe8914e3          	bne	s2,s0,990c <matrix_mul_matrix+0x7c>
    9928:	01a9a023          	sw	s10,0(s3)
    992c:	001a8793          	addi	a5,s5,1
    9930:	00498993          	addi	s3,s3,4
    9934:	002a0a13          	addi	s4,s4,2
    9938:	00fb8663          	beq	s7,a5,9944 <matrix_mul_matrix+0xb4>
    993c:	00078a93          	mv	s5,a5
    9940:	fc1ff06f          	j	9900 <matrix_mul_matrix+0x70>
    9944:	001c8793          	addi	a5,s9,1
    9948:	009b0b33          	add	s6,s6,s1
    994c:	017c0c33          	add	s8,s8,s7
    9950:	00990933          	add	s2,s2,s1
    9954:	015c8663          	beq	s9,s5,9960 <matrix_mul_matrix+0xd0>
    9958:	00078c93          	mv	s9,a5
    995c:	f91ff06f          	j	98ec <matrix_mul_matrix+0x5c>
    9960:	04c12083          	lw	ra,76(sp)
    9964:	04812403          	lw	s0,72(sp)
    9968:	04412483          	lw	s1,68(sp)
    996c:	04012903          	lw	s2,64(sp)
    9970:	03c12983          	lw	s3,60(sp)
    9974:	03812a03          	lw	s4,56(sp)
    9978:	03412a83          	lw	s5,52(sp)
    997c:	03012b03          	lw	s6,48(sp)
    9980:	02c12b83          	lw	s7,44(sp)
    9984:	02812c03          	lw	s8,40(sp)
    9988:	02412c83          	lw	s9,36(sp)
    998c:	02012d03          	lw	s10,32(sp)
    9990:	01c12d83          	lw	s11,28(sp)
    9994:	05010113          	addi	sp,sp,80
    9998:	00008067          	ret

0000999c <matrix_mul_matrix_bitextract>:
    999c:	fb010113          	addi	sp,sp,-80
    99a0:	04112623          	sw	ra,76(sp)
    99a4:	04812423          	sw	s0,72(sp)
    99a8:	04912223          	sw	s1,68(sp)
    99ac:	05212023          	sw	s2,64(sp)
    99b0:	03312e23          	sw	s3,60(sp)
    99b4:	03412c23          	sw	s4,56(sp)
    99b8:	03512a23          	sw	s5,52(sp)
    99bc:	03612823          	sw	s6,48(sp)
    99c0:	03712623          	sw	s7,44(sp)
    99c4:	03812423          	sw	s8,40(sp)
    99c8:	03912223          	sw	s9,36(sp)
    99cc:	03a12023          	sw	s10,32(sp)
    99d0:	01b12e23          	sw	s11,28(sp)
    99d4:	00b12423          	sw	a1,8(sp)
    99d8:	00d12623          	sw	a3,12(sp)
    99dc:	0a050263          	beqz	a0,9a80 <matrix_mul_matrix_bitextract+0xe4>
    99e0:	00151413          	slli	s0,a0,0x1
    99e4:	00050b13          	mv	s6,a0
    99e8:	00060a93          	mv	s5,a2
    99ec:	008604b3          	add	s1,a2,s0
    99f0:	00000b93          	li	s7,0
    99f4:	00000c13          	li	s8,0
    99f8:	00812783          	lw	a5,8(sp)
    99fc:	00c12983          	lw	s3,12(sp)
    9a00:	002b9913          	slli	s2,s7,0x2
    9a04:	01278933          	add	s2,a5,s2
    9a08:	00000a13          	li	s4,0
    9a0c:	00098d13          	mv	s10,s3
    9a10:	000a8d93          	mv	s11,s5
    9a14:	00000c93          	li	s9,0
    9a18:	000d1583          	lh	a1,0(s10)
    9a1c:	000d9503          	lh	a0,0(s11)
    9a20:	002d8d93          	addi	s11,s11,2
    9a24:	008d0d33          	add	s10,s10,s0
    9a28:	228030ef          	jal	ra,cc50 <__mulsi3>
    9a2c:	40255693          	srai	a3,a0,0x2
    9a30:	40555593          	srai	a1,a0,0x5
    9a34:	07f5f593          	andi	a1,a1,127
    9a38:	00f6f513          	andi	a0,a3,15
    9a3c:	214030ef          	jal	ra,cc50 <__mulsi3>
    9a40:	00ac8cb3          	add	s9,s9,a0
    9a44:	fdb49ae3          	bne	s1,s11,9a18 <matrix_mul_matrix_bitextract+0x7c>
    9a48:	01992023          	sw	s9,0(s2) # fffff000 <stack_top+0xfffdf000>
    9a4c:	001a0793          	addi	a5,s4,1
    9a50:	00490913          	addi	s2,s2,4
    9a54:	00298993          	addi	s3,s3,2
    9a58:	00fb0663          	beq	s6,a5,9a64 <matrix_mul_matrix_bitextract+0xc8>
    9a5c:	00078a13          	mv	s4,a5
    9a60:	fadff06f          	j	9a0c <matrix_mul_matrix_bitextract+0x70>
    9a64:	001c0793          	addi	a5,s8,1
    9a68:	008a8ab3          	add	s5,s5,s0
    9a6c:	016b8bb3          	add	s7,s7,s6
    9a70:	008484b3          	add	s1,s1,s0
    9a74:	014c0663          	beq	s8,s4,9a80 <matrix_mul_matrix_bitextract+0xe4>
    9a78:	00078c13          	mv	s8,a5
    9a7c:	f7dff06f          	j	99f8 <matrix_mul_matrix_bitextract+0x5c>
    9a80:	04c12083          	lw	ra,76(sp)
    9a84:	04812403          	lw	s0,72(sp)
    9a88:	04412483          	lw	s1,68(sp)
    9a8c:	04012903          	lw	s2,64(sp)
    9a90:	03c12983          	lw	s3,60(sp)
    9a94:	03812a03          	lw	s4,56(sp)
    9a98:	03412a83          	lw	s5,52(sp)
    9a9c:	03012b03          	lw	s6,48(sp)
    9aa0:	02c12b83          	lw	s7,44(sp)
    9aa4:	02812c03          	lw	s8,40(sp)
    9aa8:	02412c83          	lw	s9,36(sp)
    9aac:	02012d03          	lw	s10,32(sp)
    9ab0:	01c12d83          	lw	s11,28(sp)
    9ab4:	05010113          	addi	sp,sp,80
    9ab8:	00008067          	ret

00009abc <core_init_state>:
    9abc:	fff50893          	addi	a7,a0,-1
    9ac0:	00100793          	li	a5,1
    9ac4:	2917f663          	bgeu	a5,a7,9d50 <core_init_state+0x294>
    9ac8:	00158593          	addi	a1,a1,1
    9acc:	01059693          	slli	a3,a1,0x10
    9ad0:	0106d693          	srli	a3,a3,0x10
    9ad4:	00010337          	lui	t1,0x10
    9ad8:	0036d793          	srli	a5,a3,0x3
    9adc:	00700e93          	li	t4,7
    9ae0:	0076f713          	andi	a4,a3,7
    9ae4:	00000593          	li	a1,0
    9ae8:	00030313          	mv	t1,t1
    9aec:	00800f93          	li	t6,8
    9af0:	00400813          	li	a6,4
    9af4:	00100e13          	li	t3,1
    9af8:	02c00f13          	li	t5,44
    9afc:	0037f793          	andi	a5,a5,3
    9b00:	23d70c63          	beq	a4,t4,9d38 <core_init_state+0x27c>
    9b04:	20e86e63          	bltu	a6,a4,9d20 <core_init_state+0x264>
    9b08:	ffd70713          	addi	a4,a4,-3
    9b0c:	01071713          	slli	a4,a4,0x10
    9b10:	00279793          	slli	a5,a5,0x2
    9b14:	01075713          	srli	a4,a4,0x10
    9b18:	00f307b3          	add	a5,t1,a5
    9b1c:	1eee6a63          	bltu	t3,a4,9d10 <core_init_state+0x254>
    9b20:	0107a703          	lw	a4,16(a5)
    9b24:	00900393          	li	t2,9
    9b28:	00800293          	li	t0,8
    9b2c:	007583b3          	add	t2,a1,t2
    9b30:	3113f063          	bgeu	t2,a7,9e30 <core_init_state+0x374>
    9b34:	ff010113          	addi	sp,sp,-16
    9b38:	00812623          	sw	s0,12(sp)
    9b3c:	0340006f          	j	9b70 <core_init_state+0xb4>
    9b40:	1ae86c63          	bltu	a6,a4,9cf8 <core_init_state+0x23c>
    9b44:	ffd70713          	addi	a4,a4,-3
    9b48:	01071713          	slli	a4,a4,0x10
    9b4c:	00279793          	slli	a5,a5,0x2
    9b50:	01075713          	srli	a4,a4,0x10
    9b54:	00f307b3          	add	a5,t1,a5
    9b58:	18ee6863          	bltu	t3,a4,9ce8 <core_init_state+0x22c>
    9b5c:	0107a703          	lw	a4,16(a5)
    9b60:	00900393          	li	t2,9
    9b64:	00800293          	li	t0,8
    9b68:	007583b3          	add	t2,a1,t2
    9b6c:	0913fa63          	bgeu	t2,a7,9c00 <core_init_state+0x144>
    9b70:	00074403          	lbu	s0,0(a4)
    9b74:	00b607b3          	add	a5,a2,a1
    9b78:	00878023          	sb	s0,0(a5)
    9b7c:	00174583          	lbu	a1,1(a4)
    9b80:	00b780a3          	sb	a1,1(a5)
    9b84:	00274583          	lbu	a1,2(a4)
    9b88:	00b78123          	sb	a1,2(a5)
    9b8c:	00374583          	lbu	a1,3(a4)
    9b90:	00b781a3          	sb	a1,3(a5)
    9b94:	03028463          	beq	t0,a6,9bbc <core_init_state+0x100>
    9b98:	00474583          	lbu	a1,4(a4)
    9b9c:	00b78223          	sb	a1,4(a5)
    9ba0:	00574583          	lbu	a1,5(a4)
    9ba4:	00b782a3          	sb	a1,5(a5)
    9ba8:	00674583          	lbu	a1,6(a4)
    9bac:	00b78323          	sb	a1,6(a5)
    9bb0:	01f29663          	bne	t0,t6,9bbc <core_init_state+0x100>
    9bb4:	00774703          	lbu	a4,7(a4)
    9bb8:	00e783a3          	sb	a4,7(a5)
    9bbc:	00168693          	addi	a3,a3,1
    9bc0:	01069693          	slli	a3,a3,0x10
    9bc4:	005787b3          	add	a5,a5,t0
    9bc8:	0106d693          	srli	a3,a3,0x10
    9bcc:	01e78023          	sb	t5,0(a5)
    9bd0:	0076f713          	andi	a4,a3,7
    9bd4:	0036d793          	srli	a5,a3,0x3
    9bd8:	00038593          	mv	a1,t2
    9bdc:	0037f793          	andi	a5,a5,3
    9be0:	f7d710e3          	bne	a4,t4,9b40 <core_init_state+0x84>
    9be4:	00279793          	slli	a5,a5,0x2
    9be8:	00900393          	li	t2,9
    9bec:	00f307b3          	add	a5,t1,a5
    9bf0:	007583b3          	add	t2,a1,t2
    9bf4:	0307a703          	lw	a4,48(a5)
    9bf8:	00800293          	li	t0,8
    9bfc:	f713eae3          	bltu	t2,a7,9b70 <core_init_state+0xb4>
    9c00:	0ca5fe63          	bgeu	a1,a0,9cdc <core_init_state+0x220>
    9c04:	00b607b3          	add	a5,a2,a1
    9c08:	40f00733          	neg	a4,a5
    9c0c:	40b888b3          	sub	a7,a7,a1
    9c10:	00500813          	li	a6,5
    9c14:	40b506b3          	sub	a3,a0,a1
    9c18:	00377713          	andi	a4,a4,3
    9c1c:	07187663          	bgeu	a6,a7,9c88 <core_init_state+0x1cc>
    9c20:	00058813          	mv	a6,a1
    9c24:	02070a63          	beqz	a4,9c58 <core_init_state+0x19c>
    9c28:	00078023          	sb	zero,0(a5)
    9c2c:	00100793          	li	a5,1
    9c30:	00158813          	addi	a6,a1,1
    9c34:	02f70263          	beq	a4,a5,9c58 <core_init_state+0x19c>
    9c38:	01060833          	add	a6,a2,a6
    9c3c:	00080023          	sb	zero,0(a6)
    9c40:	00300793          	li	a5,3
    9c44:	00258813          	addi	a6,a1,2
    9c48:	00f71863          	bne	a4,a5,9c58 <core_init_state+0x19c>
    9c4c:	01060833          	add	a6,a2,a6
    9c50:	00080023          	sb	zero,0(a6)
    9c54:	00358813          	addi	a6,a1,3
    9c58:	40e686b3          	sub	a3,a3,a4
    9c5c:	00b705b3          	add	a1,a4,a1
    9c60:	00b605b3          	add	a1,a2,a1
    9c64:	ffc6f793          	andi	a5,a3,-4
    9c68:	00b787b3          	add	a5,a5,a1
    9c6c:	0005a023          	sw	zero,0(a1)
    9c70:	00458593          	addi	a1,a1,4
    9c74:	fef59ce3          	bne	a1,a5,9c6c <core_init_state+0x1b0>
    9c78:	ffc6f793          	andi	a5,a3,-4
    9c7c:	010785b3          	add	a1,a5,a6
    9c80:	04d78e63          	beq	a5,a3,9cdc <core_init_state+0x220>
    9c84:	00b607b3          	add	a5,a2,a1
    9c88:	00078023          	sb	zero,0(a5)
    9c8c:	00158793          	addi	a5,a1,1
    9c90:	04a7f663          	bgeu	a5,a0,9cdc <core_init_state+0x220>
    9c94:	00f607b3          	add	a5,a2,a5
    9c98:	00078023          	sb	zero,0(a5)
    9c9c:	00258793          	addi	a5,a1,2
    9ca0:	02a7fe63          	bgeu	a5,a0,9cdc <core_init_state+0x220>
    9ca4:	00f607b3          	add	a5,a2,a5
    9ca8:	00078023          	sb	zero,0(a5)
    9cac:	00358793          	addi	a5,a1,3
    9cb0:	02a7f663          	bgeu	a5,a0,9cdc <core_init_state+0x220>
    9cb4:	00f607b3          	add	a5,a2,a5
    9cb8:	00078023          	sb	zero,0(a5)
    9cbc:	00458793          	addi	a5,a1,4
    9cc0:	00a7fe63          	bgeu	a5,a0,9cdc <core_init_state+0x220>
    9cc4:	00f607b3          	add	a5,a2,a5
    9cc8:	00078023          	sb	zero,0(a5)
    9ccc:	00558593          	addi	a1,a1,5
    9cd0:	00a5f663          	bgeu	a1,a0,9cdc <core_init_state+0x220>
    9cd4:	00b605b3          	add	a1,a2,a1
    9cd8:	00058023          	sb	zero,0(a1)
    9cdc:	00c12403          	lw	s0,12(sp)
    9ce0:	01010113          	addi	sp,sp,16
    9ce4:	00008067          	ret
    9ce8:	0007a703          	lw	a4,0(a5)
    9cec:	00500393          	li	t2,5
    9cf0:	00400293          	li	t0,4
    9cf4:	e75ff06f          	j	9b68 <core_init_state+0xac>
    9cf8:	00279793          	slli	a5,a5,0x2
    9cfc:	00f307b3          	add	a5,t1,a5
    9d00:	0207a703          	lw	a4,32(a5)
    9d04:	00900393          	li	t2,9
    9d08:	00800293          	li	t0,8
    9d0c:	e5dff06f          	j	9b68 <core_init_state+0xac>
    9d10:	0007a703          	lw	a4,0(a5)
    9d14:	00500393          	li	t2,5
    9d18:	00400293          	li	t0,4
    9d1c:	e11ff06f          	j	9b2c <core_init_state+0x70>
    9d20:	00279793          	slli	a5,a5,0x2
    9d24:	00f307b3          	add	a5,t1,a5
    9d28:	0207a703          	lw	a4,32(a5)
    9d2c:	00900393          	li	t2,9
    9d30:	00800293          	li	t0,8
    9d34:	df9ff06f          	j	9b2c <core_init_state+0x70>
    9d38:	00279793          	slli	a5,a5,0x2
    9d3c:	00f307b3          	add	a5,t1,a5
    9d40:	0307a703          	lw	a4,48(a5)
    9d44:	00900393          	li	t2,9
    9d48:	00800293          	li	t0,8
    9d4c:	de1ff06f          	j	9b2c <core_init_state+0x70>
    9d50:	00000593          	li	a1,0
    9d54:	00b607b3          	add	a5,a2,a1
    9d58:	40f00733          	neg	a4,a5
    9d5c:	40b888b3          	sub	a7,a7,a1
    9d60:	00500813          	li	a6,5
    9d64:	40b506b3          	sub	a3,a0,a1
    9d68:	00377713          	andi	a4,a4,3
    9d6c:	07187663          	bgeu	a6,a7,9dd8 <core_init_state+0x31c>
    9d70:	00058813          	mv	a6,a1
    9d74:	02070a63          	beqz	a4,9da8 <core_init_state+0x2ec>
    9d78:	00078023          	sb	zero,0(a5)
    9d7c:	00100793          	li	a5,1
    9d80:	00158813          	addi	a6,a1,1
    9d84:	02f70263          	beq	a4,a5,9da8 <core_init_state+0x2ec>
    9d88:	01060833          	add	a6,a2,a6
    9d8c:	00080023          	sb	zero,0(a6)
    9d90:	00300793          	li	a5,3
    9d94:	00258813          	addi	a6,a1,2
    9d98:	00f71863          	bne	a4,a5,9da8 <core_init_state+0x2ec>
    9d9c:	01060833          	add	a6,a2,a6
    9da0:	00080023          	sb	zero,0(a6)
    9da4:	00358813          	addi	a6,a1,3
    9da8:	40e686b3          	sub	a3,a3,a4
    9dac:	00b705b3          	add	a1,a4,a1
    9db0:	00b605b3          	add	a1,a2,a1
    9db4:	ffc6f793          	andi	a5,a3,-4
    9db8:	00b787b3          	add	a5,a5,a1
    9dbc:	0005a023          	sw	zero,0(a1)
    9dc0:	00458593          	addi	a1,a1,4
    9dc4:	fef59ce3          	bne	a1,a5,9dbc <core_init_state+0x300>
    9dc8:	ffc6f793          	andi	a5,a3,-4
    9dcc:	010785b3          	add	a1,a5,a6
    9dd0:	06d78263          	beq	a5,a3,9e34 <core_init_state+0x378>
    9dd4:	00b607b3          	add	a5,a2,a1
    9dd8:	00078023          	sb	zero,0(a5)
    9ddc:	00158793          	addi	a5,a1,1
    9de0:	04a7fa63          	bgeu	a5,a0,9e34 <core_init_state+0x378>
    9de4:	00f607b3          	add	a5,a2,a5
    9de8:	00078023          	sb	zero,0(a5)
    9dec:	00258793          	addi	a5,a1,2
    9df0:	04a7f263          	bgeu	a5,a0,9e34 <core_init_state+0x378>
    9df4:	00f607b3          	add	a5,a2,a5
    9df8:	00078023          	sb	zero,0(a5)
    9dfc:	00358793          	addi	a5,a1,3
    9e00:	02a7fa63          	bgeu	a5,a0,9e34 <core_init_state+0x378>
    9e04:	00f607b3          	add	a5,a2,a5
    9e08:	00078023          	sb	zero,0(a5)
    9e0c:	00458793          	addi	a5,a1,4
    9e10:	02a7f263          	bgeu	a5,a0,9e34 <core_init_state+0x378>
    9e14:	00f607b3          	add	a5,a2,a5
    9e18:	00078023          	sb	zero,0(a5)
    9e1c:	00558593          	addi	a1,a1,5
    9e20:	00a5fa63          	bgeu	a1,a0,9e34 <core_init_state+0x378>
    9e24:	00b605b3          	add	a1,a2,a1
    9e28:	00058023          	sb	zero,0(a1)
    9e2c:	00008067          	ret
    9e30:	f2a5e2e3          	bltu	a1,a0,9d54 <core_init_state+0x298>
    9e34:	00008067          	ret

00009e38 <core_state_transition>:
    9e38:	00052783          	lw	a5,0(a0)
    9e3c:	00050813          	mv	a6,a0
    9e40:	00000513          	li	a0,0
    9e44:	0007c683          	lbu	a3,0(a5)
    9e48:	00078713          	mv	a4,a5
    9e4c:	0c068c63          	beqz	a3,9f24 <core_state_transition+0xec>
    9e50:	02c00513          	li	a0,44
    9e54:	00178713          	addi	a4,a5,1
    9e58:	2aa68863          	beq	a3,a0,a108 <core_state_transition+0x2d0>
    9e5c:	0005a883          	lw	a7,0(a1)
    9e60:	fd068613          	addi	a2,a3,-48
    9e64:	0ff67613          	andi	a2,a2,255
    9e68:	00900313          	li	t1,9
    9e6c:	00188893          	addi	a7,a7,1
    9e70:	0ac36e63          	bltu	t1,a2,9f2c <core_state_transition+0xf4>
    9e74:	0115a023          	sw	a7,0(a1)
    9e78:	0017c683          	lbu	a3,1(a5)
    9e7c:	16068063          	beqz	a3,9fdc <core_state_transition+0x1a4>
    9e80:	00278793          	addi	a5,a5,2
    9e84:	14a68a63          	beq	a3,a0,9fd8 <core_state_transition+0x1a0>
    9e88:	fd068613          	addi	a2,a3,-48
    9e8c:	02e00513          	li	a0,46
    9e90:	00900893          	li	a7,9
    9e94:	02c00313          	li	t1,44
    9e98:	0ff67613          	andi	a2,a2,255
    9e9c:	02a68663          	beq	a3,a0,9ec8 <core_state_transition+0x90>
    9ea0:	0cc8e063          	bltu	a7,a2,9f60 <core_state_transition+0x128>
    9ea4:	00174683          	lbu	a3,1(a4)
    9ea8:	00178613          	addi	a2,a5,1
    9eac:	00078713          	mv	a4,a5
    9eb0:	12068463          	beqz	a3,9fd8 <core_state_transition+0x1a0>
    9eb4:	28668863          	beq	a3,t1,a144 <core_state_transition+0x30c>
    9eb8:	00060793          	mv	a5,a2
    9ebc:	fd068613          	addi	a2,a3,-48
    9ec0:	0ff67613          	andi	a2,a2,255
    9ec4:	fca69ee3          	bne	a3,a0,9ea0 <core_state_transition+0x68>
    9ec8:	0105a683          	lw	a3,16(a1)
    9ecc:	00500513          	li	a0,5
    9ed0:	00168693          	addi	a3,a3,1
    9ed4:	00d5a823          	sw	a3,16(a1)
    9ed8:	00174683          	lbu	a3,1(a4)
    9edc:	00078713          	mv	a4,a5
    9ee0:	04068263          	beqz	a3,9f24 <core_state_transition+0xec>
    9ee4:	02c00713          	li	a4,44
    9ee8:	00178613          	addi	a2,a5,1
    9eec:	20e68863          	beq	a3,a4,a0fc <core_state_transition+0x2c4>
    9ef0:	04500513          	li	a0,69
    9ef4:	00900893          	li	a7,9
    9ef8:	02c00313          	li	t1,44
    9efc:	fd068713          	addi	a4,a3,-48
    9f00:	0df6f693          	andi	a3,a3,223
    9f04:	0ff77713          	andi	a4,a4,255
    9f08:	0ca68e63          	beq	a3,a0,9fe4 <core_state_transition+0x1ac>
    9f0c:	1ae8f063          	bgeu	a7,a4,a0ac <core_state_transition+0x274>
    9f10:	0145a783          	lw	a5,20(a1)
    9f14:	00060713          	mv	a4,a2
    9f18:	00100513          	li	a0,1
    9f1c:	00178793          	addi	a5,a5,1
    9f20:	00f5aa23          	sw	a5,20(a1)
    9f24:	00e82023          	sw	a4,0(a6)
    9f28:	00008067          	ret
    9f2c:	02b00613          	li	a2,43
    9f30:	04c68663          	beq	a3,a2,9f7c <core_state_transition+0x144>
    9f34:	02d00613          	li	a2,45
    9f38:	04c68263          	beq	a3,a2,9f7c <core_state_transition+0x144>
    9f3c:	02e00613          	li	a2,46
    9f40:	18c68463          	beq	a3,a2,a0c8 <core_state_transition+0x290>
    9f44:	0045a783          	lw	a5,4(a1)
    9f48:	0115a023          	sw	a7,0(a1)
    9f4c:	00100513          	li	a0,1
    9f50:	00178793          	addi	a5,a5,1
    9f54:	00f5a223          	sw	a5,4(a1)
    9f58:	00e82023          	sw	a4,0(a6)
    9f5c:	00008067          	ret
    9f60:	0105a683          	lw	a3,16(a1)
    9f64:	00078713          	mv	a4,a5
    9f68:	00100513          	li	a0,1
    9f6c:	00168793          	addi	a5,a3,1
    9f70:	00f5a823          	sw	a5,16(a1)
    9f74:	00e82023          	sw	a4,0(a6)
    9f78:	00008067          	ret
    9f7c:	0115a023          	sw	a7,0(a1)
    9f80:	0017c883          	lbu	a7,1(a5)
    9f84:	1a088663          	beqz	a7,a130 <core_state_transition+0x2f8>
    9f88:	00278713          	addi	a4,a5,2
    9f8c:	1aa88263          	beq	a7,a0,a130 <core_state_transition+0x2f8>
    9f90:	0085a603          	lw	a2,8(a1)
    9f94:	fd088693          	addi	a3,a7,-48
    9f98:	0ff6f693          	andi	a3,a3,255
    9f9c:	00900513          	li	a0,9
    9fa0:	00160613          	addi	a2,a2,1
    9fa4:	00d57e63          	bgeu	a0,a3,9fc0 <core_state_transition+0x188>
    9fa8:	02e00693          	li	a3,46
    9fac:	12d88c63          	beq	a7,a3,a0e4 <core_state_transition+0x2ac>
    9fb0:	00c5a423          	sw	a2,8(a1)
    9fb4:	00100513          	li	a0,1
    9fb8:	00e82023          	sw	a4,0(a6)
    9fbc:	00008067          	ret
    9fc0:	00c5a423          	sw	a2,8(a1)
    9fc4:	0027c683          	lbu	a3,2(a5)
    9fc8:	00068a63          	beqz	a3,9fdc <core_state_transition+0x1a4>
    9fcc:	02c00613          	li	a2,44
    9fd0:	00170793          	addi	a5,a4,1
    9fd4:	eac69ae3          	bne	a3,a2,9e88 <core_state_transition+0x50>
    9fd8:	00078713          	mv	a4,a5
    9fdc:	00400513          	li	a0,4
    9fe0:	f45ff06f          	j	9f24 <core_state_transition+0xec>
    9fe4:	0145a703          	lw	a4,20(a1)
    9fe8:	00170713          	addi	a4,a4,1
    9fec:	00e5aa23          	sw	a4,20(a1)
    9ff0:	0017c783          	lbu	a5,1(a5)
    9ff4:	12078463          	beqz	a5,a11c <core_state_transition+0x2e4>
    9ff8:	02c00513          	li	a0,44
    9ffc:	00160713          	addi	a4,a2,1
    a000:	12a78063          	beq	a5,a0,a120 <core_state_transition+0x2e8>
    a004:	00c5a683          	lw	a3,12(a1)
    a008:	fd578793          	addi	a5,a5,-43
    a00c:	0fd7f793          	andi	a5,a5,253
    a010:	00168693          	addi	a3,a3,1
    a014:	00d5a623          	sw	a3,12(a1)
    a018:	00078863          	beqz	a5,a028 <core_state_transition+0x1f0>
    a01c:	00100513          	li	a0,1
    a020:	00e82023          	sw	a4,0(a6)
    a024:	00008067          	ret
    a028:	00164783          	lbu	a5,1(a2)
    a02c:	0e078e63          	beqz	a5,a128 <core_state_transition+0x2f0>
    a030:	00260713          	addi	a4,a2,2
    a034:	0ea78a63          	beq	a5,a0,a128 <core_state_transition+0x2f0>
    a038:	0185a683          	lw	a3,24(a1)
    a03c:	fd078793          	addi	a5,a5,-48
    a040:	0ff7f793          	andi	a5,a5,255
    a044:	00168693          	addi	a3,a3,1
    a048:	00900893          	li	a7,9
    a04c:	00d5ac23          	sw	a3,24(a1)
    a050:	fcf8e6e3          	bltu	a7,a5,a01c <core_state_transition+0x1e4>
    a054:	00264683          	lbu	a3,2(a2)
    a058:	0a068e63          	beqz	a3,a114 <core_state_transition+0x2dc>
    a05c:	00360793          	addi	a5,a2,3
    a060:	0aa68863          	beq	a3,a0,a110 <core_state_transition+0x2d8>
    a064:	00900613          	li	a2,9
    a068:	02c00893          	li	a7,44
    a06c:	fd068693          	addi	a3,a3,-48
    a070:	0ff6f693          	andi	a3,a3,255
    a074:	00d67e63          	bgeu	a2,a3,a090 <core_state_transition+0x258>
    a078:	0045a683          	lw	a3,4(a1)
    a07c:	00078713          	mv	a4,a5
    a080:	00100513          	li	a0,1
    a084:	00168793          	addi	a5,a3,1
    a088:	00f5a223          	sw	a5,4(a1)
    a08c:	e99ff06f          	j	9f24 <core_state_transition+0xec>
    a090:	00174683          	lbu	a3,1(a4)
    a094:	00178513          	addi	a0,a5,1
    a098:	00078713          	mv	a4,a5
    a09c:	06068a63          	beqz	a3,a110 <core_state_transition+0x2d8>
    a0a0:	09168c63          	beq	a3,a7,a138 <core_state_transition+0x300>
    a0a4:	00050793          	mv	a5,a0
    a0a8:	fc5ff06f          	j	a06c <core_state_transition+0x234>
    a0ac:	0017c683          	lbu	a3,1(a5)
    a0b0:	00160713          	addi	a4,a2,1
    a0b4:	00060793          	mv	a5,a2
    a0b8:	04068263          	beqz	a3,a0fc <core_state_transition+0x2c4>
    a0bc:	04668263          	beq	a3,t1,a100 <core_state_transition+0x2c8>
    a0c0:	00070613          	mv	a2,a4
    a0c4:	e39ff06f          	j	9efc <core_state_transition+0xc4>
    a0c8:	0115a023          	sw	a7,0(a1)
    a0cc:	0017c683          	lbu	a3,1(a5)
    a0d0:	02068863          	beqz	a3,a100 <core_state_transition+0x2c8>
    a0d4:	00278613          	addi	a2,a5,2
    a0d8:	02a68263          	beq	a3,a0,a0fc <core_state_transition+0x2c4>
    a0dc:	00070793          	mv	a5,a4
    a0e0:	e11ff06f          	j	9ef0 <core_state_transition+0xb8>
    a0e4:	00c5a423          	sw	a2,8(a1)
    a0e8:	0027c683          	lbu	a3,2(a5)
    a0ec:	00068a63          	beqz	a3,a100 <core_state_transition+0x2c8>
    a0f0:	02c00793          	li	a5,44
    a0f4:	00170613          	addi	a2,a4,1
    a0f8:	fef692e3          	bne	a3,a5,a0dc <core_state_transition+0x2a4>
    a0fc:	00060713          	mv	a4,a2
    a100:	00500513          	li	a0,5
    a104:	e21ff06f          	j	9f24 <core_state_transition+0xec>
    a108:	00000513          	li	a0,0
    a10c:	e19ff06f          	j	9f24 <core_state_transition+0xec>
    a110:	00078713          	mv	a4,a5
    a114:	00700513          	li	a0,7
    a118:	e0dff06f          	j	9f24 <core_state_transition+0xec>
    a11c:	00060713          	mv	a4,a2
    a120:	00300513          	li	a0,3
    a124:	e01ff06f          	j	9f24 <core_state_transition+0xec>
    a128:	00600513          	li	a0,6
    a12c:	df9ff06f          	j	9f24 <core_state_transition+0xec>
    a130:	00200513          	li	a0,2
    a134:	df1ff06f          	j	9f24 <core_state_transition+0xec>
    a138:	00050713          	mv	a4,a0
    a13c:	00700513          	li	a0,7
    a140:	de5ff06f          	j	9f24 <core_state_transition+0xec>
    a144:	00060713          	mv	a4,a2
    a148:	00400513          	li	a0,4
    a14c:	dd9ff06f          	j	9f24 <core_state_transition+0xec>

0000a150 <core_bench_state>:
    a150:	f8010113          	addi	sp,sp,-128
    a154:	06812c23          	sw	s0,120(sp)
    a158:	06912a23          	sw	s1,116(sp)
    a15c:	07312623          	sw	s3,108(sp)
    a160:	07412423          	sw	s4,104(sp)
    a164:	07512223          	sw	s5,100(sp)
    a168:	07612023          	sw	s6,96(sp)
    a16c:	06112e23          	sw	ra,124(sp)
    a170:	07212823          	sw	s2,112(sp)
    a174:	05712e23          	sw	s7,92(sp)
    a178:	00058413          	mv	s0,a1
    a17c:	0005c583          	lbu	a1,0(a1)
    a180:	00812623          	sw	s0,12(sp)
    a184:	02012823          	sw	zero,48(sp)
    a188:	00012823          	sw	zero,16(sp)
    a18c:	02012a23          	sw	zero,52(sp)
    a190:	00012a23          	sw	zero,20(sp)
    a194:	02012c23          	sw	zero,56(sp)
    a198:	00012c23          	sw	zero,24(sp)
    a19c:	02012e23          	sw	zero,60(sp)
    a1a0:	00012e23          	sw	zero,28(sp)
    a1a4:	04012023          	sw	zero,64(sp)
    a1a8:	02012023          	sw	zero,32(sp)
    a1ac:	04012223          	sw	zero,68(sp)
    a1b0:	02012223          	sw	zero,36(sp)
    a1b4:	04012423          	sw	zero,72(sp)
    a1b8:	02012423          	sw	zero,40(sp)
    a1bc:	04012623          	sw	zero,76(sp)
    a1c0:	02012623          	sw	zero,44(sp)
    a1c4:	00050b13          	mv	s6,a0
    a1c8:	00060a93          	mv	s5,a2
    a1cc:	00068a13          	mv	s4,a3
    a1d0:	00070993          	mv	s3,a4
    a1d4:	00078493          	mv	s1,a5
    a1d8:	16058063          	beqz	a1,a338 <core_bench_state+0x1e8>
    a1dc:	03010913          	addi	s2,sp,48
    a1e0:	00c10b93          	addi	s7,sp,12
    a1e4:	00090593          	mv	a1,s2
    a1e8:	000b8513          	mv	a0,s7
    a1ec:	c4dff0ef          	jal	ra,9e38 <core_state_transition>
    a1f0:	05010793          	addi	a5,sp,80
    a1f4:	00251813          	slli	a6,a0,0x2
    a1f8:	01078833          	add	a6,a5,a6
    a1fc:	00c12703          	lw	a4,12(sp)
    a200:	fc082783          	lw	a5,-64(a6)
    a204:	00074703          	lbu	a4,0(a4)
    a208:	00178793          	addi	a5,a5,1
    a20c:	fcf82023          	sw	a5,-64(a6)
    a210:	fc071ae3          	bnez	a4,a1e4 <core_bench_state+0x94>
    a214:	00812623          	sw	s0,12(sp)
    a218:	01640b33          	add	s6,s0,s6
    a21c:	00044583          	lbu	a1,0(s0)
    a220:	13647463          	bgeu	s0,s6,a348 <core_bench_state+0x1f8>
    a224:	02c00713          	li	a4,44
    a228:	00040813          	mv	a6,s0
    a22c:	0155c7b3          	xor	a5,a1,s5
    a230:	02e58263          	beq	a1,a4,a254 <core_bench_state+0x104>
    a234:	00f80023          	sb	a5,0(a6)
    a238:	00c12803          	lw	a6,12(sp)
    a23c:	01380833          	add	a6,a6,s3
    a240:	01012623          	sw	a6,12(sp)
    a244:	01687e63          	bgeu	a6,s6,a260 <core_bench_state+0x110>
    a248:	00084583          	lbu	a1,0(a6)
    a24c:	0155c7b3          	xor	a5,a1,s5
    a250:	fee592e3          	bne	a1,a4,a234 <core_bench_state+0xe4>
    a254:	01380833          	add	a6,a6,s3
    a258:	01012623          	sw	a6,12(sp)
    a25c:	ff6866e3          	bltu	a6,s6,a248 <core_bench_state+0xf8>
    a260:	00044783          	lbu	a5,0(s0)
    a264:	00812623          	sw	s0,12(sp)
    a268:	00c10b93          	addi	s7,sp,12
    a26c:	02078e63          	beqz	a5,a2a8 <core_bench_state+0x158>
    a270:	00090593          	mv	a1,s2
    a274:	000b8513          	mv	a0,s7
    a278:	bc1ff0ef          	jal	ra,9e38 <core_state_transition>
    a27c:	05010793          	addi	a5,sp,80
    a280:	00251613          	slli	a2,a0,0x2
    a284:	00c78633          	add	a2,a5,a2
    a288:	00c12703          	lw	a4,12(sp)
    a28c:	fc062783          	lw	a5,-64(a2)
    a290:	00074703          	lbu	a4,0(a4)
    a294:	00178793          	addi	a5,a5,1
    a298:	fcf62023          	sw	a5,-64(a2)
    a29c:	fc071ae3          	bnez	a4,a270 <core_bench_state+0x120>
    a2a0:	00812623          	sw	s0,12(sp)
    a2a4:	03647463          	bgeu	s0,s6,a2cc <core_bench_state+0x17c>
    a2a8:	02c00693          	li	a3,44
    a2ac:	00044783          	lbu	a5,0(s0)
    a2b0:	0147c733          	xor	a4,a5,s4
    a2b4:	06d78a63          	beq	a5,a3,a328 <core_bench_state+0x1d8>
    a2b8:	00e40023          	sb	a4,0(s0)
    a2bc:	00c12403          	lw	s0,12(sp)
    a2c0:	01340433          	add	s0,s0,s3
    a2c4:	00812623          	sw	s0,12(sp)
    a2c8:	ff6462e3          	bltu	s0,s6,a2ac <core_bench_state+0x15c>
    a2cc:	01010413          	addi	s0,sp,16
    a2d0:	00090993          	mv	s3,s2
    a2d4:	00042503          	lw	a0,0(s0)
    a2d8:	00048593          	mv	a1,s1
    a2dc:	00440413          	addi	s0,s0,4
    a2e0:	494000ef          	jal	ra,a774 <crcu32>
    a2e4:	00050593          	mv	a1,a0
    a2e8:	0009a503          	lw	a0,0(s3)
    a2ec:	00498993          	addi	s3,s3,4
    a2f0:	484000ef          	jal	ra,a774 <crcu32>
    a2f4:	00050493          	mv	s1,a0
    a2f8:	fd241ee3          	bne	s0,s2,a2d4 <core_bench_state+0x184>
    a2fc:	07c12083          	lw	ra,124(sp)
    a300:	07812403          	lw	s0,120(sp)
    a304:	07412483          	lw	s1,116(sp)
    a308:	07012903          	lw	s2,112(sp)
    a30c:	06c12983          	lw	s3,108(sp)
    a310:	06812a03          	lw	s4,104(sp)
    a314:	06412a83          	lw	s5,100(sp)
    a318:	06012b03          	lw	s6,96(sp)
    a31c:	05c12b83          	lw	s7,92(sp)
    a320:	08010113          	addi	sp,sp,128
    a324:	00008067          	ret
    a328:	01340433          	add	s0,s0,s3
    a32c:	00812623          	sw	s0,12(sp)
    a330:	f7646ee3          	bltu	s0,s6,a2ac <core_bench_state+0x15c>
    a334:	f99ff06f          	j	a2cc <core_bench_state+0x17c>
    a338:	00a40b33          	add	s6,s0,a0
    a33c:	03010913          	addi	s2,sp,48
    a340:	ef6462e3          	bltu	s0,s6,a224 <core_bench_state+0xd4>
    a344:	f89ff06f          	j	a2cc <core_bench_state+0x17c>
    a348:	f20594e3          	bnez	a1,a270 <core_bench_state+0x120>
    a34c:	f81ff06f          	j	a2cc <core_bench_state+0x17c>

0000a350 <get_seed_32>:
    a350:	00500793          	li	a5,5
    a354:	04a7ec63          	bltu	a5,a0,a3ac <get_seed_32+0x5c>
    a358:	000107b7          	lui	a5,0x10
    a35c:	04078793          	addi	a5,a5,64 # 10040 <errpat+0x10>
    a360:	00251513          	slli	a0,a0,0x2
    a364:	00f50533          	add	a0,a0,a5
    a368:	00052783          	lw	a5,0(a0)
    a36c:	00078067          	jr	a5
    a370:	000107b7          	lui	a5,0x10
    a374:	7707a503          	lw	a0,1904(a5) # 10770 <seed5_volatile>
    a378:	00008067          	ret
    a37c:	000107b7          	lui	a5,0x10
    a380:	7807a503          	lw	a0,1920(a5) # 10780 <seed1_volatile>
    a384:	00008067          	ret
    a388:	000107b7          	lui	a5,0x10
    a38c:	77c7a503          	lw	a0,1916(a5) # 1077c <seed2_volatile>
    a390:	00008067          	ret
    a394:	000107b7          	lui	a5,0x10
    a398:	7787a503          	lw	a0,1912(a5) # 10778 <seed3_volatile>
    a39c:	00008067          	ret
    a3a0:	000107b7          	lui	a5,0x10
    a3a4:	7747a503          	lw	a0,1908(a5) # 10774 <seed4_volatile>
    a3a8:	00008067          	ret
    a3ac:	00000513          	li	a0,0
    a3b0:	00008067          	ret

0000a3b4 <crcu8>:
    a3b4:	00b546b3          	xor	a3,a0,a1
    a3b8:	0016f693          	andi	a3,a3,1
    a3bc:	00155713          	srli	a4,a0,0x1
    a3c0:	0015d793          	srli	a5,a1,0x1
    a3c4:	00068c63          	beqz	a3,a3dc <crcu8+0x28>
    a3c8:	ffffa6b7          	lui	a3,0xffffa
    a3cc:	00168693          	addi	a3,a3,1 # ffffa001 <stack_top+0xfffda001>
    a3d0:	00d7c7b3          	xor	a5,a5,a3
    a3d4:	01079793          	slli	a5,a5,0x10
    a3d8:	0107d793          	srli	a5,a5,0x10
    a3dc:	00e7c733          	xor	a4,a5,a4
    a3e0:	00177713          	andi	a4,a4,1
    a3e4:	00255693          	srli	a3,a0,0x2
    a3e8:	0017d793          	srli	a5,a5,0x1
    a3ec:	00070c63          	beqz	a4,a404 <crcu8+0x50>
    a3f0:	ffffa737          	lui	a4,0xffffa
    a3f4:	00170713          	addi	a4,a4,1 # ffffa001 <stack_top+0xfffda001>
    a3f8:	00e7c7b3          	xor	a5,a5,a4
    a3fc:	01079793          	slli	a5,a5,0x10
    a400:	0107d793          	srli	a5,a5,0x10
    a404:	00d7c6b3          	xor	a3,a5,a3
    a408:	0016f693          	andi	a3,a3,1
    a40c:	00355713          	srli	a4,a0,0x3
    a410:	0017d793          	srli	a5,a5,0x1
    a414:	00068c63          	beqz	a3,a42c <crcu8+0x78>
    a418:	ffffa6b7          	lui	a3,0xffffa
    a41c:	00168693          	addi	a3,a3,1 # ffffa001 <stack_top+0xfffda001>
    a420:	00d7c7b3          	xor	a5,a5,a3
    a424:	01079793          	slli	a5,a5,0x10
    a428:	0107d793          	srli	a5,a5,0x10
    a42c:	00e7c733          	xor	a4,a5,a4
    a430:	00177713          	andi	a4,a4,1
    a434:	00455693          	srli	a3,a0,0x4
    a438:	0017d793          	srli	a5,a5,0x1
    a43c:	00070c63          	beqz	a4,a454 <crcu8+0xa0>
    a440:	ffffa737          	lui	a4,0xffffa
    a444:	00170713          	addi	a4,a4,1 # ffffa001 <stack_top+0xfffda001>
    a448:	00e7c7b3          	xor	a5,a5,a4
    a44c:	01079793          	slli	a5,a5,0x10
    a450:	0107d793          	srli	a5,a5,0x10
    a454:	00d7c6b3          	xor	a3,a5,a3
    a458:	0016f693          	andi	a3,a3,1
    a45c:	00555713          	srli	a4,a0,0x5
    a460:	0017d793          	srli	a5,a5,0x1
    a464:	00068c63          	beqz	a3,a47c <crcu8+0xc8>
    a468:	ffffa6b7          	lui	a3,0xffffa
    a46c:	00168693          	addi	a3,a3,1 # ffffa001 <stack_top+0xfffda001>
    a470:	00d7c7b3          	xor	a5,a5,a3
    a474:	01079793          	slli	a5,a5,0x10
    a478:	0107d793          	srli	a5,a5,0x10
    a47c:	00e7c733          	xor	a4,a5,a4
    a480:	00177713          	andi	a4,a4,1
    a484:	00655693          	srli	a3,a0,0x6
    a488:	0017d793          	srli	a5,a5,0x1
    a48c:	00070c63          	beqz	a4,a4a4 <crcu8+0xf0>
    a490:	ffffa737          	lui	a4,0xffffa
    a494:	00170713          	addi	a4,a4,1 # ffffa001 <stack_top+0xfffda001>
    a498:	00e7c7b3          	xor	a5,a5,a4
    a49c:	01079793          	slli	a5,a5,0x10
    a4a0:	0107d793          	srli	a5,a5,0x10
    a4a4:	00d7c6b3          	xor	a3,a5,a3
    a4a8:	0016f693          	andi	a3,a3,1
    a4ac:	00755713          	srli	a4,a0,0x7
    a4b0:	0017d513          	srli	a0,a5,0x1
    a4b4:	00068c63          	beqz	a3,a4cc <crcu8+0x118>
    a4b8:	ffffa7b7          	lui	a5,0xffffa
    a4bc:	00178793          	addi	a5,a5,1 # ffffa001 <stack_top+0xfffda001>
    a4c0:	00f54533          	xor	a0,a0,a5
    a4c4:	01051513          	slli	a0,a0,0x10
    a4c8:	01055513          	srli	a0,a0,0x10
    a4cc:	00157793          	andi	a5,a0,1
    a4d0:	00155513          	srli	a0,a0,0x1
    a4d4:	00e78c63          	beq	a5,a4,a4ec <crcu8+0x138>
    a4d8:	ffffa7b7          	lui	a5,0xffffa
    a4dc:	00178793          	addi	a5,a5,1 # ffffa001 <stack_top+0xfffda001>
    a4e0:	00f54533          	xor	a0,a0,a5
    a4e4:	01051513          	slli	a0,a0,0x10
    a4e8:	01055513          	srli	a0,a0,0x10
    a4ec:	00008067          	ret

0000a4f0 <crcu16>:
    a4f0:	00a5c6b3          	xor	a3,a1,a0
    a4f4:	0ff57713          	andi	a4,a0,255
    a4f8:	0016f693          	andi	a3,a3,1
    a4fc:	00050793          	mv	a5,a0
    a500:	00175613          	srli	a2,a4,0x1
    a504:	0015d513          	srli	a0,a1,0x1
    a508:	00068c63          	beqz	a3,a520 <crcu16+0x30>
    a50c:	ffffa6b7          	lui	a3,0xffffa
    a510:	00168693          	addi	a3,a3,1 # ffffa001 <stack_top+0xfffda001>
    a514:	00d54533          	xor	a0,a0,a3
    a518:	01051513          	slli	a0,a0,0x10
    a51c:	01055513          	srli	a0,a0,0x10
    a520:	00c54633          	xor	a2,a0,a2
    a524:	00167613          	andi	a2,a2,1
    a528:	00275693          	srli	a3,a4,0x2
    a52c:	00155513          	srli	a0,a0,0x1
    a530:	00060c63          	beqz	a2,a548 <crcu16+0x58>
    a534:	ffffa637          	lui	a2,0xffffa
    a538:	00160613          	addi	a2,a2,1 # ffffa001 <stack_top+0xfffda001>
    a53c:	00c54533          	xor	a0,a0,a2
    a540:	01051513          	slli	a0,a0,0x10
    a544:	01055513          	srli	a0,a0,0x10
    a548:	00d546b3          	xor	a3,a0,a3
    a54c:	0016f693          	andi	a3,a3,1
    a550:	00375613          	srli	a2,a4,0x3
    a554:	00155513          	srli	a0,a0,0x1
    a558:	00068c63          	beqz	a3,a570 <crcu16+0x80>
    a55c:	ffffa6b7          	lui	a3,0xffffa
    a560:	00168693          	addi	a3,a3,1 # ffffa001 <stack_top+0xfffda001>
    a564:	00d54533          	xor	a0,a0,a3
    a568:	01051513          	slli	a0,a0,0x10
    a56c:	01055513          	srli	a0,a0,0x10
    a570:	00c54633          	xor	a2,a0,a2
    a574:	00167613          	andi	a2,a2,1
    a578:	00475693          	srli	a3,a4,0x4
    a57c:	00155513          	srli	a0,a0,0x1
    a580:	00060c63          	beqz	a2,a598 <crcu16+0xa8>
    a584:	ffffa637          	lui	a2,0xffffa
    a588:	00160613          	addi	a2,a2,1 # ffffa001 <stack_top+0xfffda001>
    a58c:	00c54533          	xor	a0,a0,a2
    a590:	01051513          	slli	a0,a0,0x10
    a594:	01055513          	srli	a0,a0,0x10
    a598:	00d546b3          	xor	a3,a0,a3
    a59c:	0016f693          	andi	a3,a3,1
    a5a0:	00575613          	srli	a2,a4,0x5
    a5a4:	00155513          	srli	a0,a0,0x1
    a5a8:	00068c63          	beqz	a3,a5c0 <crcu16+0xd0>
    a5ac:	ffffa6b7          	lui	a3,0xffffa
    a5b0:	00168693          	addi	a3,a3,1 # ffffa001 <stack_top+0xfffda001>
    a5b4:	00d54533          	xor	a0,a0,a3
    a5b8:	01051513          	slli	a0,a0,0x10
    a5bc:	01055513          	srli	a0,a0,0x10
    a5c0:	00c54633          	xor	a2,a0,a2
    a5c4:	00167613          	andi	a2,a2,1
    a5c8:	00675693          	srli	a3,a4,0x6
    a5cc:	00155513          	srli	a0,a0,0x1
    a5d0:	00060c63          	beqz	a2,a5e8 <crcu16+0xf8>
    a5d4:	ffffa637          	lui	a2,0xffffa
    a5d8:	00160613          	addi	a2,a2,1 # ffffa001 <stack_top+0xfffda001>
    a5dc:	00c54533          	xor	a0,a0,a2
    a5e0:	01051513          	slli	a0,a0,0x10
    a5e4:	01055513          	srli	a0,a0,0x10
    a5e8:	00d546b3          	xor	a3,a0,a3
    a5ec:	0016f693          	andi	a3,a3,1
    a5f0:	00775713          	srli	a4,a4,0x7
    a5f4:	00155513          	srli	a0,a0,0x1
    a5f8:	00068c63          	beqz	a3,a610 <crcu16+0x120>
    a5fc:	ffffa6b7          	lui	a3,0xffffa
    a600:	00168693          	addi	a3,a3,1 # ffffa001 <stack_top+0xfffda001>
    a604:	00d54533          	xor	a0,a0,a3
    a608:	01051513          	slli	a0,a0,0x10
    a60c:	01055513          	srli	a0,a0,0x10
    a610:	00157693          	andi	a3,a0,1
    a614:	00155513          	srli	a0,a0,0x1
    a618:	00e68c63          	beq	a3,a4,a630 <crcu16+0x140>
    a61c:	ffffa737          	lui	a4,0xffffa
    a620:	00170713          	addi	a4,a4,1 # ffffa001 <stack_top+0xfffda001>
    a624:	00e54533          	xor	a0,a0,a4
    a628:	01051513          	slli	a0,a0,0x10
    a62c:	01055513          	srli	a0,a0,0x10
    a630:	0087d693          	srli	a3,a5,0x8
    a634:	00a6c6b3          	xor	a3,a3,a0
    a638:	0016f693          	andi	a3,a3,1
    a63c:	0087d713          	srli	a4,a5,0x8
    a640:	00155513          	srli	a0,a0,0x1
    a644:	0097d793          	srli	a5,a5,0x9
    a648:	00068c63          	beqz	a3,a660 <crcu16+0x170>
    a64c:	ffffa6b7          	lui	a3,0xffffa
    a650:	00168693          	addi	a3,a3,1 # ffffa001 <stack_top+0xfffda001>
    a654:	00d54533          	xor	a0,a0,a3
    a658:	01051513          	slli	a0,a0,0x10
    a65c:	01055513          	srli	a0,a0,0x10
    a660:	00a7c7b3          	xor	a5,a5,a0
    a664:	0017f793          	andi	a5,a5,1
    a668:	00275693          	srli	a3,a4,0x2
    a66c:	00155513          	srli	a0,a0,0x1
    a670:	00078c63          	beqz	a5,a688 <crcu16+0x198>
    a674:	ffffa7b7          	lui	a5,0xffffa
    a678:	00178793          	addi	a5,a5,1 # ffffa001 <stack_top+0xfffda001>
    a67c:	00f54533          	xor	a0,a0,a5
    a680:	01051513          	slli	a0,a0,0x10
    a684:	01055513          	srli	a0,a0,0x10
    a688:	00d547b3          	xor	a5,a0,a3
    a68c:	0017f793          	andi	a5,a5,1
    a690:	00375693          	srli	a3,a4,0x3
    a694:	00155513          	srli	a0,a0,0x1
    a698:	00078c63          	beqz	a5,a6b0 <crcu16+0x1c0>
    a69c:	ffffa7b7          	lui	a5,0xffffa
    a6a0:	00178793          	addi	a5,a5,1 # ffffa001 <stack_top+0xfffda001>
    a6a4:	00f54533          	xor	a0,a0,a5
    a6a8:	01051513          	slli	a0,a0,0x10
    a6ac:	01055513          	srli	a0,a0,0x10
    a6b0:	00d546b3          	xor	a3,a0,a3
    a6b4:	0016f693          	andi	a3,a3,1
    a6b8:	00475793          	srli	a5,a4,0x4
    a6bc:	00155513          	srli	a0,a0,0x1
    a6c0:	00068c63          	beqz	a3,a6d8 <crcu16+0x1e8>
    a6c4:	ffffa6b7          	lui	a3,0xffffa
    a6c8:	00168693          	addi	a3,a3,1 # ffffa001 <stack_top+0xfffda001>
    a6cc:	00d54533          	xor	a0,a0,a3
    a6d0:	01051513          	slli	a0,a0,0x10
    a6d4:	01055513          	srli	a0,a0,0x10
    a6d8:	00f547b3          	xor	a5,a0,a5
    a6dc:	0017f793          	andi	a5,a5,1
    a6e0:	00575693          	srli	a3,a4,0x5
    a6e4:	00155513          	srli	a0,a0,0x1
    a6e8:	00078c63          	beqz	a5,a700 <crcu16+0x210>
    a6ec:	ffffa7b7          	lui	a5,0xffffa
    a6f0:	00178793          	addi	a5,a5,1 # ffffa001 <stack_top+0xfffda001>
    a6f4:	00f54533          	xor	a0,a0,a5
    a6f8:	01051513          	slli	a0,a0,0x10
    a6fc:	01055513          	srli	a0,a0,0x10
    a700:	00d546b3          	xor	a3,a0,a3
    a704:	0016f693          	andi	a3,a3,1
    a708:	00675793          	srli	a5,a4,0x6
    a70c:	00155513          	srli	a0,a0,0x1
    a710:	00068c63          	beqz	a3,a728 <crcu16+0x238>
    a714:	ffffa6b7          	lui	a3,0xffffa
    a718:	00168693          	addi	a3,a3,1 # ffffa001 <stack_top+0xfffda001>
    a71c:	00d54533          	xor	a0,a0,a3
    a720:	01051513          	slli	a0,a0,0x10
    a724:	01055513          	srli	a0,a0,0x10
    a728:	00f547b3          	xor	a5,a0,a5
    a72c:	0017f793          	andi	a5,a5,1
    a730:	00775713          	srli	a4,a4,0x7
    a734:	00155513          	srli	a0,a0,0x1
    a738:	00078c63          	beqz	a5,a750 <crcu16+0x260>
    a73c:	ffffa7b7          	lui	a5,0xffffa
    a740:	00178793          	addi	a5,a5,1 # ffffa001 <stack_top+0xfffda001>
    a744:	00f54533          	xor	a0,a0,a5
    a748:	01051513          	slli	a0,a0,0x10
    a74c:	01055513          	srli	a0,a0,0x10
    a750:	00157793          	andi	a5,a0,1
    a754:	00155513          	srli	a0,a0,0x1
    a758:	00e78c63          	beq	a5,a4,a770 <crcu16+0x280>
    a75c:	ffffa7b7          	lui	a5,0xffffa
    a760:	00178793          	addi	a5,a5,1 # ffffa001 <stack_top+0xfffda001>
    a764:	00f54533          	xor	a0,a0,a5
    a768:	01051513          	slli	a0,a0,0x10
    a76c:	01055513          	srli	a0,a0,0x10
    a770:	00008067          	ret

0000a774 <crcu32>:
    a774:	00a5c833          	xor	a6,a1,a0
    a778:	0ff57693          	andi	a3,a0,255
    a77c:	01051713          	slli	a4,a0,0x10
    a780:	00187813          	andi	a6,a6,1
    a784:	00050793          	mv	a5,a0
    a788:	01075713          	srli	a4,a4,0x10
    a78c:	0016d613          	srli	a2,a3,0x1
    a790:	0015d513          	srli	a0,a1,0x1
    a794:	00080c63          	beqz	a6,a7ac <crcu32+0x38>
    a798:	ffffa5b7          	lui	a1,0xffffa
    a79c:	00158593          	addi	a1,a1,1 # ffffa001 <stack_top+0xfffda001>
    a7a0:	00b54533          	xor	a0,a0,a1
    a7a4:	01051513          	slli	a0,a0,0x10
    a7a8:	01055513          	srli	a0,a0,0x10
    a7ac:	00c545b3          	xor	a1,a0,a2
    a7b0:	0015f593          	andi	a1,a1,1
    a7b4:	0026d613          	srli	a2,a3,0x2
    a7b8:	00155513          	srli	a0,a0,0x1
    a7bc:	00058c63          	beqz	a1,a7d4 <crcu32+0x60>
    a7c0:	ffffa5b7          	lui	a1,0xffffa
    a7c4:	00158593          	addi	a1,a1,1 # ffffa001 <stack_top+0xfffda001>
    a7c8:	00b54533          	xor	a0,a0,a1
    a7cc:	01051513          	slli	a0,a0,0x10
    a7d0:	01055513          	srli	a0,a0,0x10
    a7d4:	00c54633          	xor	a2,a0,a2
    a7d8:	00167613          	andi	a2,a2,1
    a7dc:	0036d593          	srli	a1,a3,0x3
    a7e0:	00155513          	srli	a0,a0,0x1
    a7e4:	00060c63          	beqz	a2,a7fc <crcu32+0x88>
    a7e8:	ffffa637          	lui	a2,0xffffa
    a7ec:	00160613          	addi	a2,a2,1 # ffffa001 <stack_top+0xfffda001>
    a7f0:	00c54533          	xor	a0,a0,a2
    a7f4:	01051513          	slli	a0,a0,0x10
    a7f8:	01055513          	srli	a0,a0,0x10
    a7fc:	00b545b3          	xor	a1,a0,a1
    a800:	0015f593          	andi	a1,a1,1
    a804:	0046d613          	srli	a2,a3,0x4
    a808:	00155513          	srli	a0,a0,0x1
    a80c:	00058c63          	beqz	a1,a824 <crcu32+0xb0>
    a810:	ffffa5b7          	lui	a1,0xffffa
    a814:	00158593          	addi	a1,a1,1 # ffffa001 <stack_top+0xfffda001>
    a818:	00b54533          	xor	a0,a0,a1
    a81c:	01051513          	slli	a0,a0,0x10
    a820:	01055513          	srli	a0,a0,0x10
    a824:	00c54633          	xor	a2,a0,a2
    a828:	00167613          	andi	a2,a2,1
    a82c:	0056d593          	srli	a1,a3,0x5
    a830:	00155513          	srli	a0,a0,0x1
    a834:	00060c63          	beqz	a2,a84c <crcu32+0xd8>
    a838:	ffffa637          	lui	a2,0xffffa
    a83c:	00160613          	addi	a2,a2,1 # ffffa001 <stack_top+0xfffda001>
    a840:	00c54533          	xor	a0,a0,a2
    a844:	01051513          	slli	a0,a0,0x10
    a848:	01055513          	srli	a0,a0,0x10
    a84c:	00b545b3          	xor	a1,a0,a1
    a850:	0015f593          	andi	a1,a1,1
    a854:	0066d613          	srli	a2,a3,0x6
    a858:	00155513          	srli	a0,a0,0x1
    a85c:	00058c63          	beqz	a1,a874 <crcu32+0x100>
    a860:	ffffa5b7          	lui	a1,0xffffa
    a864:	00158593          	addi	a1,a1,1 # ffffa001 <stack_top+0xfffda001>
    a868:	00b54533          	xor	a0,a0,a1
    a86c:	01051513          	slli	a0,a0,0x10
    a870:	01055513          	srli	a0,a0,0x10
    a874:	00c54633          	xor	a2,a0,a2
    a878:	00167613          	andi	a2,a2,1
    a87c:	0076d693          	srli	a3,a3,0x7
    a880:	00155513          	srli	a0,a0,0x1
    a884:	00060c63          	beqz	a2,a89c <crcu32+0x128>
    a888:	ffffa637          	lui	a2,0xffffa
    a88c:	00160613          	addi	a2,a2,1 # ffffa001 <stack_top+0xfffda001>
    a890:	00c54533          	xor	a0,a0,a2
    a894:	01051513          	slli	a0,a0,0x10
    a898:	01055513          	srli	a0,a0,0x10
    a89c:	00157613          	andi	a2,a0,1
    a8a0:	00155513          	srli	a0,a0,0x1
    a8a4:	3cd61a63          	bne	a2,a3,ac78 <crcu32+0x504>
    a8a8:	00875613          	srli	a2,a4,0x8
    a8ac:	00c54633          	xor	a2,a0,a2
    a8b0:	00167613          	andi	a2,a2,1
    a8b4:	00875693          	srli	a3,a4,0x8
    a8b8:	00155513          	srli	a0,a0,0x1
    a8bc:	00975713          	srli	a4,a4,0x9
    a8c0:	00060c63          	beqz	a2,a8d8 <crcu32+0x164>
    a8c4:	ffffa637          	lui	a2,0xffffa
    a8c8:	00160613          	addi	a2,a2,1 # ffffa001 <stack_top+0xfffda001>
    a8cc:	00c54533          	xor	a0,a0,a2
    a8d0:	01051513          	slli	a0,a0,0x10
    a8d4:	01055513          	srli	a0,a0,0x10
    a8d8:	00e54733          	xor	a4,a0,a4
    a8dc:	00177713          	andi	a4,a4,1
    a8e0:	0026d613          	srli	a2,a3,0x2
    a8e4:	00155513          	srli	a0,a0,0x1
    a8e8:	00070c63          	beqz	a4,a900 <crcu32+0x18c>
    a8ec:	ffffa737          	lui	a4,0xffffa
    a8f0:	00170713          	addi	a4,a4,1 # ffffa001 <stack_top+0xfffda001>
    a8f4:	00e54533          	xor	a0,a0,a4
    a8f8:	01051513          	slli	a0,a0,0x10
    a8fc:	01055513          	srli	a0,a0,0x10
    a900:	00c54733          	xor	a4,a0,a2
    a904:	00177713          	andi	a4,a4,1
    a908:	0036d613          	srli	a2,a3,0x3
    a90c:	00155513          	srli	a0,a0,0x1
    a910:	00070c63          	beqz	a4,a928 <crcu32+0x1b4>
    a914:	ffffa737          	lui	a4,0xffffa
    a918:	00170713          	addi	a4,a4,1 # ffffa001 <stack_top+0xfffda001>
    a91c:	00e54533          	xor	a0,a0,a4
    a920:	01051513          	slli	a0,a0,0x10
    a924:	01055513          	srli	a0,a0,0x10
    a928:	00c54633          	xor	a2,a0,a2
    a92c:	00167613          	andi	a2,a2,1
    a930:	0046d713          	srli	a4,a3,0x4
    a934:	00155513          	srli	a0,a0,0x1
    a938:	00060c63          	beqz	a2,a950 <crcu32+0x1dc>
    a93c:	ffffa637          	lui	a2,0xffffa
    a940:	00160613          	addi	a2,a2,1 # ffffa001 <stack_top+0xfffda001>
    a944:	00c54533          	xor	a0,a0,a2
    a948:	01051513          	slli	a0,a0,0x10
    a94c:	01055513          	srli	a0,a0,0x10
    a950:	00e54733          	xor	a4,a0,a4
    a954:	00177713          	andi	a4,a4,1
    a958:	0056d613          	srli	a2,a3,0x5
    a95c:	00155513          	srli	a0,a0,0x1
    a960:	00070c63          	beqz	a4,a978 <crcu32+0x204>
    a964:	ffffa737          	lui	a4,0xffffa
    a968:	00170713          	addi	a4,a4,1 # ffffa001 <stack_top+0xfffda001>
    a96c:	00e54533          	xor	a0,a0,a4
    a970:	01051513          	slli	a0,a0,0x10
    a974:	01055513          	srli	a0,a0,0x10
    a978:	00c54633          	xor	a2,a0,a2
    a97c:	00167613          	andi	a2,a2,1
    a980:	0066d713          	srli	a4,a3,0x6
    a984:	00155513          	srli	a0,a0,0x1
    a988:	00060c63          	beqz	a2,a9a0 <crcu32+0x22c>
    a98c:	ffffa637          	lui	a2,0xffffa
    a990:	00160613          	addi	a2,a2,1 # ffffa001 <stack_top+0xfffda001>
    a994:	00c54533          	xor	a0,a0,a2
    a998:	01051513          	slli	a0,a0,0x10
    a99c:	01055513          	srli	a0,a0,0x10
    a9a0:	00e54733          	xor	a4,a0,a4
    a9a4:	00177713          	andi	a4,a4,1
    a9a8:	0076d693          	srli	a3,a3,0x7
    a9ac:	00155513          	srli	a0,a0,0x1
    a9b0:	00070c63          	beqz	a4,a9c8 <crcu32+0x254>
    a9b4:	ffffa737          	lui	a4,0xffffa
    a9b8:	00170713          	addi	a4,a4,1 # ffffa001 <stack_top+0xfffda001>
    a9bc:	00e54533          	xor	a0,a0,a4
    a9c0:	01051513          	slli	a0,a0,0x10
    a9c4:	01055513          	srli	a0,a0,0x10
    a9c8:	00157713          	andi	a4,a0,1
    a9cc:	00155513          	srli	a0,a0,0x1
    a9d0:	28d71863          	bne	a4,a3,ac60 <crcu32+0x4ec>
    a9d4:	0107d713          	srli	a4,a5,0x10
    a9d8:	00e546b3          	xor	a3,a0,a4
    a9dc:	0016f693          	andi	a3,a3,1
    a9e0:	0ff77713          	andi	a4,a4,255
    a9e4:	0107d793          	srli	a5,a5,0x10
    a9e8:	00175613          	srli	a2,a4,0x1
    a9ec:	00155513          	srli	a0,a0,0x1
    a9f0:	00068c63          	beqz	a3,aa08 <crcu32+0x294>
    a9f4:	ffffa6b7          	lui	a3,0xffffa
    a9f8:	00168693          	addi	a3,a3,1 # ffffa001 <stack_top+0xfffda001>
    a9fc:	00d54533          	xor	a0,a0,a3
    aa00:	01051513          	slli	a0,a0,0x10
    aa04:	01055513          	srli	a0,a0,0x10
    aa08:	00c54633          	xor	a2,a0,a2
    aa0c:	00167613          	andi	a2,a2,1
    aa10:	00275693          	srli	a3,a4,0x2
    aa14:	00155513          	srli	a0,a0,0x1
    aa18:	00060c63          	beqz	a2,aa30 <crcu32+0x2bc>
    aa1c:	ffffa637          	lui	a2,0xffffa
    aa20:	00160613          	addi	a2,a2,1 # ffffa001 <stack_top+0xfffda001>
    aa24:	00c54533          	xor	a0,a0,a2
    aa28:	01051513          	slli	a0,a0,0x10
    aa2c:	01055513          	srli	a0,a0,0x10
    aa30:	00d546b3          	xor	a3,a0,a3
    aa34:	0016f693          	andi	a3,a3,1
    aa38:	00375613          	srli	a2,a4,0x3
    aa3c:	00155513          	srli	a0,a0,0x1
    aa40:	00068c63          	beqz	a3,aa58 <crcu32+0x2e4>
    aa44:	ffffa6b7          	lui	a3,0xffffa
    aa48:	00168693          	addi	a3,a3,1 # ffffa001 <stack_top+0xfffda001>
    aa4c:	00d54533          	xor	a0,a0,a3
    aa50:	01051513          	slli	a0,a0,0x10
    aa54:	01055513          	srli	a0,a0,0x10
    aa58:	00c54633          	xor	a2,a0,a2
    aa5c:	00167613          	andi	a2,a2,1
    aa60:	00475693          	srli	a3,a4,0x4
    aa64:	00155513          	srli	a0,a0,0x1
    aa68:	00060c63          	beqz	a2,aa80 <crcu32+0x30c>
    aa6c:	ffffa637          	lui	a2,0xffffa
    aa70:	00160613          	addi	a2,a2,1 # ffffa001 <stack_top+0xfffda001>
    aa74:	00c54533          	xor	a0,a0,a2
    aa78:	01051513          	slli	a0,a0,0x10
    aa7c:	01055513          	srli	a0,a0,0x10
    aa80:	00d546b3          	xor	a3,a0,a3
    aa84:	0016f693          	andi	a3,a3,1
    aa88:	00575613          	srli	a2,a4,0x5
    aa8c:	00155513          	srli	a0,a0,0x1
    aa90:	00068c63          	beqz	a3,aaa8 <crcu32+0x334>
    aa94:	ffffa6b7          	lui	a3,0xffffa
    aa98:	00168693          	addi	a3,a3,1 # ffffa001 <stack_top+0xfffda001>
    aa9c:	00d54533          	xor	a0,a0,a3
    aaa0:	01051513          	slli	a0,a0,0x10
    aaa4:	01055513          	srli	a0,a0,0x10
    aaa8:	00c54633          	xor	a2,a0,a2
    aaac:	00167613          	andi	a2,a2,1
    aab0:	00675693          	srli	a3,a4,0x6
    aab4:	00155513          	srli	a0,a0,0x1
    aab8:	00060c63          	beqz	a2,aad0 <crcu32+0x35c>
    aabc:	ffffa637          	lui	a2,0xffffa
    aac0:	00160613          	addi	a2,a2,1 # ffffa001 <stack_top+0xfffda001>
    aac4:	00c54533          	xor	a0,a0,a2
    aac8:	01051513          	slli	a0,a0,0x10
    aacc:	01055513          	srli	a0,a0,0x10
    aad0:	00d546b3          	xor	a3,a0,a3
    aad4:	0016f693          	andi	a3,a3,1
    aad8:	00775713          	srli	a4,a4,0x7
    aadc:	00155513          	srli	a0,a0,0x1
    aae0:	00068c63          	beqz	a3,aaf8 <crcu32+0x384>
    aae4:	ffffa6b7          	lui	a3,0xffffa
    aae8:	00168693          	addi	a3,a3,1 # ffffa001 <stack_top+0xfffda001>
    aaec:	00d54533          	xor	a0,a0,a3
    aaf0:	01051513          	slli	a0,a0,0x10
    aaf4:	01055513          	srli	a0,a0,0x10
    aaf8:	00157693          	andi	a3,a0,1
    aafc:	00155513          	srli	a0,a0,0x1
    ab00:	14e69463          	bne	a3,a4,ac48 <crcu32+0x4d4>
    ab04:	0087d693          	srli	a3,a5,0x8
    ab08:	00a6c6b3          	xor	a3,a3,a0
    ab0c:	0016f693          	andi	a3,a3,1
    ab10:	0087d713          	srli	a4,a5,0x8
    ab14:	00155513          	srli	a0,a0,0x1
    ab18:	0097d793          	srli	a5,a5,0x9
    ab1c:	00068c63          	beqz	a3,ab34 <crcu32+0x3c0>
    ab20:	ffffa6b7          	lui	a3,0xffffa
    ab24:	00168693          	addi	a3,a3,1 # ffffa001 <stack_top+0xfffda001>
    ab28:	00d54533          	xor	a0,a0,a3
    ab2c:	01051513          	slli	a0,a0,0x10
    ab30:	01055513          	srli	a0,a0,0x10
    ab34:	00f547b3          	xor	a5,a0,a5
    ab38:	0017f793          	andi	a5,a5,1
    ab3c:	00275693          	srli	a3,a4,0x2
    ab40:	00155513          	srli	a0,a0,0x1
    ab44:	00078c63          	beqz	a5,ab5c <crcu32+0x3e8>
    ab48:	ffffa7b7          	lui	a5,0xffffa
    ab4c:	00178793          	addi	a5,a5,1 # ffffa001 <stack_top+0xfffda001>
    ab50:	00f54533          	xor	a0,a0,a5
    ab54:	01051513          	slli	a0,a0,0x10
    ab58:	01055513          	srli	a0,a0,0x10
    ab5c:	00a6c7b3          	xor	a5,a3,a0
    ab60:	0017f793          	andi	a5,a5,1
    ab64:	00375693          	srli	a3,a4,0x3
    ab68:	00155513          	srli	a0,a0,0x1
    ab6c:	00078c63          	beqz	a5,ab84 <crcu32+0x410>
    ab70:	ffffa7b7          	lui	a5,0xffffa
    ab74:	00178793          	addi	a5,a5,1 # ffffa001 <stack_top+0xfffda001>
    ab78:	00f54533          	xor	a0,a0,a5
    ab7c:	01051513          	slli	a0,a0,0x10
    ab80:	01055513          	srli	a0,a0,0x10
    ab84:	00a6c6b3          	xor	a3,a3,a0
    ab88:	0016f693          	andi	a3,a3,1
    ab8c:	00475793          	srli	a5,a4,0x4
    ab90:	00155513          	srli	a0,a0,0x1
    ab94:	00068c63          	beqz	a3,abac <crcu32+0x438>
    ab98:	ffffa6b7          	lui	a3,0xffffa
    ab9c:	00168693          	addi	a3,a3,1 # ffffa001 <stack_top+0xfffda001>
    aba0:	00d54533          	xor	a0,a0,a3
    aba4:	01051513          	slli	a0,a0,0x10
    aba8:	01055513          	srli	a0,a0,0x10
    abac:	00f547b3          	xor	a5,a0,a5
    abb0:	0017f793          	andi	a5,a5,1
    abb4:	00575693          	srli	a3,a4,0x5
    abb8:	00155513          	srli	a0,a0,0x1
    abbc:	00078c63          	beqz	a5,abd4 <crcu32+0x460>
    abc0:	ffffa7b7          	lui	a5,0xffffa
    abc4:	00178793          	addi	a5,a5,1 # ffffa001 <stack_top+0xfffda001>
    abc8:	00f54533          	xor	a0,a0,a5
    abcc:	01051513          	slli	a0,a0,0x10
    abd0:	01055513          	srli	a0,a0,0x10
    abd4:	00d546b3          	xor	a3,a0,a3
    abd8:	0016f693          	andi	a3,a3,1
    abdc:	00675793          	srli	a5,a4,0x6
    abe0:	00155513          	srli	a0,a0,0x1
    abe4:	00068c63          	beqz	a3,abfc <crcu32+0x488>
    abe8:	ffffa6b7          	lui	a3,0xffffa
    abec:	00168693          	addi	a3,a3,1 # ffffa001 <stack_top+0xfffda001>
    abf0:	00d54533          	xor	a0,a0,a3
    abf4:	01051513          	slli	a0,a0,0x10
    abf8:	01055513          	srli	a0,a0,0x10
    abfc:	00f547b3          	xor	a5,a0,a5
    ac00:	0017f793          	andi	a5,a5,1
    ac04:	00775713          	srli	a4,a4,0x7
    ac08:	00155513          	srli	a0,a0,0x1
    ac0c:	00078c63          	beqz	a5,ac24 <crcu32+0x4b0>
    ac10:	ffffa7b7          	lui	a5,0xffffa
    ac14:	00178793          	addi	a5,a5,1 # ffffa001 <stack_top+0xfffda001>
    ac18:	00f54533          	xor	a0,a0,a5
    ac1c:	01051513          	slli	a0,a0,0x10
    ac20:	01055513          	srli	a0,a0,0x10
    ac24:	00157793          	andi	a5,a0,1
    ac28:	00155513          	srli	a0,a0,0x1
    ac2c:	00e78c63          	beq	a5,a4,ac44 <crcu32+0x4d0>
    ac30:	ffffa7b7          	lui	a5,0xffffa
    ac34:	00178793          	addi	a5,a5,1 # ffffa001 <stack_top+0xfffda001>
    ac38:	00f54533          	xor	a0,a0,a5
    ac3c:	01051513          	slli	a0,a0,0x10
    ac40:	01055513          	srli	a0,a0,0x10
    ac44:	00008067          	ret
    ac48:	ffffa737          	lui	a4,0xffffa
    ac4c:	00170713          	addi	a4,a4,1 # ffffa001 <stack_top+0xfffda001>
    ac50:	00e54533          	xor	a0,a0,a4
    ac54:	01051513          	slli	a0,a0,0x10
    ac58:	01055513          	srli	a0,a0,0x10
    ac5c:	ea9ff06f          	j	ab04 <crcu32+0x390>
    ac60:	ffffa737          	lui	a4,0xffffa
    ac64:	00170713          	addi	a4,a4,1 # ffffa001 <stack_top+0xfffda001>
    ac68:	00e54533          	xor	a0,a0,a4
    ac6c:	01051513          	slli	a0,a0,0x10
    ac70:	01055513          	srli	a0,a0,0x10
    ac74:	d61ff06f          	j	a9d4 <crcu32+0x260>
    ac78:	ffffa6b7          	lui	a3,0xffffa
    ac7c:	00168693          	addi	a3,a3,1 # ffffa001 <stack_top+0xfffda001>
    ac80:	00d54533          	xor	a0,a0,a3
    ac84:	01051513          	slli	a0,a0,0x10
    ac88:	01055513          	srli	a0,a0,0x10
    ac8c:	c1dff06f          	j	a8a8 <crcu32+0x134>

0000ac90 <crc16>:
    ac90:	00a5c6b3          	xor	a3,a1,a0
    ac94:	0ff57713          	andi	a4,a0,255
    ac98:	01051793          	slli	a5,a0,0x10
    ac9c:	0016f693          	andi	a3,a3,1
    aca0:	0107d793          	srli	a5,a5,0x10
    aca4:	00175613          	srli	a2,a4,0x1
    aca8:	0015d513          	srli	a0,a1,0x1
    acac:	00068c63          	beqz	a3,acc4 <crc16+0x34>
    acb0:	ffffa6b7          	lui	a3,0xffffa
    acb4:	00168693          	addi	a3,a3,1 # ffffa001 <stack_top+0xfffda001>
    acb8:	00d54533          	xor	a0,a0,a3
    acbc:	01051513          	slli	a0,a0,0x10
    acc0:	01055513          	srli	a0,a0,0x10
    acc4:	00c54633          	xor	a2,a0,a2
    acc8:	00167613          	andi	a2,a2,1
    accc:	00275693          	srli	a3,a4,0x2
    acd0:	00155513          	srli	a0,a0,0x1
    acd4:	00060c63          	beqz	a2,acec <crc16+0x5c>
    acd8:	ffffa637          	lui	a2,0xffffa
    acdc:	00160613          	addi	a2,a2,1 # ffffa001 <stack_top+0xfffda001>
    ace0:	00c54533          	xor	a0,a0,a2
    ace4:	01051513          	slli	a0,a0,0x10
    ace8:	01055513          	srli	a0,a0,0x10
    acec:	00d546b3          	xor	a3,a0,a3
    acf0:	0016f693          	andi	a3,a3,1
    acf4:	00375613          	srli	a2,a4,0x3
    acf8:	00155513          	srli	a0,a0,0x1
    acfc:	00068c63          	beqz	a3,ad14 <crc16+0x84>
    ad00:	ffffa6b7          	lui	a3,0xffffa
    ad04:	00168693          	addi	a3,a3,1 # ffffa001 <stack_top+0xfffda001>
    ad08:	00d54533          	xor	a0,a0,a3
    ad0c:	01051513          	slli	a0,a0,0x10
    ad10:	01055513          	srli	a0,a0,0x10
    ad14:	00c54633          	xor	a2,a0,a2
    ad18:	00167613          	andi	a2,a2,1
    ad1c:	00475693          	srli	a3,a4,0x4
    ad20:	00155513          	srli	a0,a0,0x1
    ad24:	00060c63          	beqz	a2,ad3c <crc16+0xac>
    ad28:	ffffa637          	lui	a2,0xffffa
    ad2c:	00160613          	addi	a2,a2,1 # ffffa001 <stack_top+0xfffda001>
    ad30:	00c54533          	xor	a0,a0,a2
    ad34:	01051513          	slli	a0,a0,0x10
    ad38:	01055513          	srli	a0,a0,0x10
    ad3c:	00d546b3          	xor	a3,a0,a3
    ad40:	0016f693          	andi	a3,a3,1
    ad44:	00575613          	srli	a2,a4,0x5
    ad48:	00155513          	srli	a0,a0,0x1
    ad4c:	00068c63          	beqz	a3,ad64 <crc16+0xd4>
    ad50:	ffffa6b7          	lui	a3,0xffffa
    ad54:	00168693          	addi	a3,a3,1 # ffffa001 <stack_top+0xfffda001>
    ad58:	00d54533          	xor	a0,a0,a3
    ad5c:	01051513          	slli	a0,a0,0x10
    ad60:	01055513          	srli	a0,a0,0x10
    ad64:	00c54633          	xor	a2,a0,a2
    ad68:	00167613          	andi	a2,a2,1
    ad6c:	00675693          	srli	a3,a4,0x6
    ad70:	00155513          	srli	a0,a0,0x1
    ad74:	00060c63          	beqz	a2,ad8c <crc16+0xfc>
    ad78:	ffffa637          	lui	a2,0xffffa
    ad7c:	00160613          	addi	a2,a2,1 # ffffa001 <stack_top+0xfffda001>
    ad80:	00c54533          	xor	a0,a0,a2
    ad84:	01051513          	slli	a0,a0,0x10
    ad88:	01055513          	srli	a0,a0,0x10
    ad8c:	00d546b3          	xor	a3,a0,a3
    ad90:	0016f693          	andi	a3,a3,1
    ad94:	00775713          	srli	a4,a4,0x7
    ad98:	00155513          	srli	a0,a0,0x1
    ad9c:	00068c63          	beqz	a3,adb4 <crc16+0x124>
    ada0:	ffffa6b7          	lui	a3,0xffffa
    ada4:	00168693          	addi	a3,a3,1 # ffffa001 <stack_top+0xfffda001>
    ada8:	00d54533          	xor	a0,a0,a3
    adac:	01051513          	slli	a0,a0,0x10
    adb0:	01055513          	srli	a0,a0,0x10
    adb4:	00157693          	andi	a3,a0,1
    adb8:	00155513          	srli	a0,a0,0x1
    adbc:	14e69463          	bne	a3,a4,af04 <crc16+0x274>
    adc0:	0087d693          	srli	a3,a5,0x8
    adc4:	00a6c6b3          	xor	a3,a3,a0
    adc8:	0016f693          	andi	a3,a3,1
    adcc:	0087d713          	srli	a4,a5,0x8
    add0:	00155513          	srli	a0,a0,0x1
    add4:	0097d793          	srli	a5,a5,0x9
    add8:	00068c63          	beqz	a3,adf0 <crc16+0x160>
    addc:	ffffa6b7          	lui	a3,0xffffa
    ade0:	00168693          	addi	a3,a3,1 # ffffa001 <stack_top+0xfffda001>
    ade4:	00d54533          	xor	a0,a0,a3
    ade8:	01051513          	slli	a0,a0,0x10
    adec:	01055513          	srli	a0,a0,0x10
    adf0:	00a7c7b3          	xor	a5,a5,a0
    adf4:	0017f793          	andi	a5,a5,1
    adf8:	00275693          	srli	a3,a4,0x2
    adfc:	00155513          	srli	a0,a0,0x1
    ae00:	00078c63          	beqz	a5,ae18 <crc16+0x188>
    ae04:	ffffa7b7          	lui	a5,0xffffa
    ae08:	00178793          	addi	a5,a5,1 # ffffa001 <stack_top+0xfffda001>
    ae0c:	00f54533          	xor	a0,a0,a5
    ae10:	01051513          	slli	a0,a0,0x10
    ae14:	01055513          	srli	a0,a0,0x10
    ae18:	00d547b3          	xor	a5,a0,a3
    ae1c:	0017f793          	andi	a5,a5,1
    ae20:	00375693          	srli	a3,a4,0x3
    ae24:	00155513          	srli	a0,a0,0x1
    ae28:	00078c63          	beqz	a5,ae40 <crc16+0x1b0>
    ae2c:	ffffa7b7          	lui	a5,0xffffa
    ae30:	00178793          	addi	a5,a5,1 # ffffa001 <stack_top+0xfffda001>
    ae34:	00f54533          	xor	a0,a0,a5
    ae38:	01051513          	slli	a0,a0,0x10
    ae3c:	01055513          	srli	a0,a0,0x10
    ae40:	00d546b3          	xor	a3,a0,a3
    ae44:	0016f693          	andi	a3,a3,1
    ae48:	00475793          	srli	a5,a4,0x4
    ae4c:	00155513          	srli	a0,a0,0x1
    ae50:	00068c63          	beqz	a3,ae68 <crc16+0x1d8>
    ae54:	ffffa6b7          	lui	a3,0xffffa
    ae58:	00168693          	addi	a3,a3,1 # ffffa001 <stack_top+0xfffda001>
    ae5c:	00d54533          	xor	a0,a0,a3
    ae60:	01051513          	slli	a0,a0,0x10
    ae64:	01055513          	srli	a0,a0,0x10
    ae68:	00f547b3          	xor	a5,a0,a5
    ae6c:	0017f793          	andi	a5,a5,1
    ae70:	00575693          	srli	a3,a4,0x5
    ae74:	00155513          	srli	a0,a0,0x1
    ae78:	00078c63          	beqz	a5,ae90 <crc16+0x200>
    ae7c:	ffffa7b7          	lui	a5,0xffffa
    ae80:	00178793          	addi	a5,a5,1 # ffffa001 <stack_top+0xfffda001>
    ae84:	00f54533          	xor	a0,a0,a5
    ae88:	01051513          	slli	a0,a0,0x10
    ae8c:	01055513          	srli	a0,a0,0x10
    ae90:	00d546b3          	xor	a3,a0,a3
    ae94:	0016f693          	andi	a3,a3,1
    ae98:	00675793          	srli	a5,a4,0x6
    ae9c:	00155513          	srli	a0,a0,0x1
    aea0:	00068c63          	beqz	a3,aeb8 <crc16+0x228>
    aea4:	ffffa6b7          	lui	a3,0xffffa
    aea8:	00168693          	addi	a3,a3,1 # ffffa001 <stack_top+0xfffda001>
    aeac:	00d54533          	xor	a0,a0,a3
    aeb0:	01051513          	slli	a0,a0,0x10
    aeb4:	01055513          	srli	a0,a0,0x10
    aeb8:	00f547b3          	xor	a5,a0,a5
    aebc:	0017f793          	andi	a5,a5,1
    aec0:	00775713          	srli	a4,a4,0x7
    aec4:	00155513          	srli	a0,a0,0x1
    aec8:	00078c63          	beqz	a5,aee0 <crc16+0x250>
    aecc:	ffffa7b7          	lui	a5,0xffffa
    aed0:	00178793          	addi	a5,a5,1 # ffffa001 <stack_top+0xfffda001>
    aed4:	00f54533          	xor	a0,a0,a5
    aed8:	01051513          	slli	a0,a0,0x10
    aedc:	01055513          	srli	a0,a0,0x10
    aee0:	00157793          	andi	a5,a0,1
    aee4:	00155513          	srli	a0,a0,0x1
    aee8:	00e78c63          	beq	a5,a4,af00 <crc16+0x270>
    aeec:	ffffa7b7          	lui	a5,0xffffa
    aef0:	00178793          	addi	a5,a5,1 # ffffa001 <stack_top+0xfffda001>
    aef4:	00f54533          	xor	a0,a0,a5
    aef8:	01051513          	slli	a0,a0,0x10
    aefc:	01055513          	srli	a0,a0,0x10
    af00:	00008067          	ret
    af04:	ffffa737          	lui	a4,0xffffa
    af08:	00170713          	addi	a4,a4,1 # ffffa001 <stack_top+0xfffda001>
    af0c:	00e54533          	xor	a0,a0,a4
    af10:	01051513          	slli	a0,a0,0x10
    af14:	01055513          	srli	a0,a0,0x10
    af18:	ea9ff06f          	j	adc0 <crc16+0x130>

0000af1c <check_data_types>:
    af1c:	00000513          	li	a0,0
    af20:	00008067          	ret

0000af24 <barebones_clock>:
    af24:	ff010113          	addi	sp,sp,-16
    af28:	00012623          	sw	zero,12(sp)
    af2c:	00c12783          	lw	a5,12(sp)
    af30:	00f12623          	sw	a5,12(sp)
    af34:	00c12783          	lw	a5,12(sp)
    af38:	00178793          	addi	a5,a5,1
    af3c:	00f12623          	sw	a5,12(sp)
    af40:	00c12783          	lw	a5,12(sp)
    af44:	00278793          	addi	a5,a5,2
    af48:	00f12623          	sw	a5,12(sp)
    af4c:	00c12783          	lw	a5,12(sp)
    af50:	00378793          	addi	a5,a5,3
    af54:	00f12623          	sw	a5,12(sp)
    af58:	00c12783          	lw	a5,12(sp)
    af5c:	00478793          	addi	a5,a5,4
    af60:	00f12623          	sw	a5,12(sp)
    af64:	00c12783          	lw	a5,12(sp)
    af68:	00578793          	addi	a5,a5,5
    af6c:	00f12623          	sw	a5,12(sp)
    af70:	00c12783          	lw	a5,12(sp)
    af74:	00678793          	addi	a5,a5,6
    af78:	00f12623          	sw	a5,12(sp)
    af7c:	00c12783          	lw	a5,12(sp)
    af80:	00778793          	addi	a5,a5,7
    af84:	00f12623          	sw	a5,12(sp)
    af88:	00c12783          	lw	a5,12(sp)
    af8c:	00878793          	addi	a5,a5,8
    af90:	00f12623          	sw	a5,12(sp)
    af94:	00c12783          	lw	a5,12(sp)
    af98:	00978793          	addi	a5,a5,9
    af9c:	00f12623          	sw	a5,12(sp)
    afa0:	f0002503          	lw	a0,-256(zero) # ffffff00 <stack_top+0xfffdff00>
    afa4:	01010113          	addi	sp,sp,16
    afa8:	00008067          	ret

0000afac <start_time>:
    afac:	ff010113          	addi	sp,sp,-16
    afb0:	00012623          	sw	zero,12(sp)
    afb4:	00c12783          	lw	a5,12(sp)
    afb8:	00f12623          	sw	a5,12(sp)
    afbc:	00c12783          	lw	a5,12(sp)
    afc0:	00178793          	addi	a5,a5,1
    afc4:	00f12623          	sw	a5,12(sp)
    afc8:	00c12783          	lw	a5,12(sp)
    afcc:	00278793          	addi	a5,a5,2
    afd0:	00f12623          	sw	a5,12(sp)
    afd4:	00c12783          	lw	a5,12(sp)
    afd8:	00378793          	addi	a5,a5,3
    afdc:	00f12623          	sw	a5,12(sp)
    afe0:	00c12783          	lw	a5,12(sp)
    afe4:	00478793          	addi	a5,a5,4
    afe8:	00f12623          	sw	a5,12(sp)
    afec:	00c12783          	lw	a5,12(sp)
    aff0:	00578793          	addi	a5,a5,5
    aff4:	00f12623          	sw	a5,12(sp)
    aff8:	00c12783          	lw	a5,12(sp)
    affc:	00678793          	addi	a5,a5,6
    b000:	00f12623          	sw	a5,12(sp)
    b004:	00c12783          	lw	a5,12(sp)
    b008:	00778793          	addi	a5,a5,7
    b00c:	00f12623          	sw	a5,12(sp)
    b010:	00c12783          	lw	a5,12(sp)
    b014:	00878793          	addi	a5,a5,8
    b018:	00f12623          	sw	a5,12(sp)
    b01c:	00c12783          	lw	a5,12(sp)
    b020:	00978793          	addi	a5,a5,9
    b024:	00f12623          	sw	a5,12(sp)
    b028:	f0002703          	lw	a4,-256(zero) # ffffff00 <stack_top+0xfffdff00>
    b02c:	000107b7          	lui	a5,0x10
    b030:	78e7a423          	sw	a4,1928(a5) # 10788 <start_time_val>
    b034:	01010113          	addi	sp,sp,16
    b038:	00008067          	ret

0000b03c <stop_time>:
    b03c:	ff010113          	addi	sp,sp,-16
    b040:	00012623          	sw	zero,12(sp)
    b044:	00c12783          	lw	a5,12(sp)
    b048:	00f12623          	sw	a5,12(sp)
    b04c:	00c12783          	lw	a5,12(sp)
    b050:	00178793          	addi	a5,a5,1
    b054:	00f12623          	sw	a5,12(sp)
    b058:	00c12783          	lw	a5,12(sp)
    b05c:	00278793          	addi	a5,a5,2
    b060:	00f12623          	sw	a5,12(sp)
    b064:	00c12783          	lw	a5,12(sp)
    b068:	00378793          	addi	a5,a5,3
    b06c:	00f12623          	sw	a5,12(sp)
    b070:	00c12783          	lw	a5,12(sp)
    b074:	00478793          	addi	a5,a5,4
    b078:	00f12623          	sw	a5,12(sp)
    b07c:	00c12783          	lw	a5,12(sp)
    b080:	00578793          	addi	a5,a5,5
    b084:	00f12623          	sw	a5,12(sp)
    b088:	00c12783          	lw	a5,12(sp)
    b08c:	00678793          	addi	a5,a5,6
    b090:	00f12623          	sw	a5,12(sp)
    b094:	00c12783          	lw	a5,12(sp)
    b098:	00778793          	addi	a5,a5,7
    b09c:	00f12623          	sw	a5,12(sp)
    b0a0:	00c12783          	lw	a5,12(sp)
    b0a4:	00878793          	addi	a5,a5,8
    b0a8:	00f12623          	sw	a5,12(sp)
    b0ac:	00c12783          	lw	a5,12(sp)
    b0b0:	00978793          	addi	a5,a5,9
    b0b4:	00f12623          	sw	a5,12(sp)
    b0b8:	f0002703          	lw	a4,-256(zero) # ffffff00 <stack_top+0xfffdff00>
    b0bc:	000107b7          	lui	a5,0x10
    b0c0:	78e7a223          	sw	a4,1924(a5) # 10784 <stop_time_val>
    b0c4:	01010113          	addi	sp,sp,16
    b0c8:	00008067          	ret

0000b0cc <get_time>:
    b0cc:	000107b7          	lui	a5,0x10
    b0d0:	7847a503          	lw	a0,1924(a5) # 10784 <stop_time_val>
    b0d4:	000107b7          	lui	a5,0x10
    b0d8:	7887a783          	lw	a5,1928(a5) # 10788 <start_time_val>
    b0dc:	40f50533          	sub	a0,a0,a5
    b0e0:	00008067          	ret

0000b0e4 <time_in_secs>:
    b0e4:	05f5e5b7          	lui	a1,0x5f5e
    b0e8:	ff010113          	addi	sp,sp,-16
    b0ec:	10058593          	addi	a1,a1,256 # 5f5e100 <stack_top+0x5f3e100>
    b0f0:	00112623          	sw	ra,12(sp)
    b0f4:	389010ef          	jal	ra,cc7c <__udivsi3>
    b0f8:	00c12083          	lw	ra,12(sp)
    b0fc:	01010113          	addi	sp,sp,16
    b100:	00008067          	ret

0000b104 <portable_init>:
    b104:	00100793          	li	a5,1
    b108:	00f50023          	sb	a5,0(a0)
    b10c:	00008067          	ret

0000b110 <portable_fini>:
    b110:	00050023          	sb	zero,0(a0)
    b114:	00008067          	ret

0000b118 <number>:
    b118:	f6010113          	addi	sp,sp,-160
    b11c:	08912a23          	sw	s1,148(sp)
    b120:	09212823          	sw	s2,144(sp)
    b124:	09412423          	sw	s4,136(sp)
    b128:	07b12623          	sw	s11,108(sp)
    b12c:	08112e23          	sw	ra,156(sp)
    b130:	08812c23          	sw	s0,152(sp)
    b134:	09312623          	sw	s3,140(sp)
    b138:	09512223          	sw	s5,132(sp)
    b13c:	09612023          	sw	s6,128(sp)
    b140:	07712e23          	sw	s7,124(sp)
    b144:	07812c23          	sw	s8,120(sp)
    b148:	07912a23          	sw	s9,116(sp)
    b14c:	07a12823          	sw	s10,112(sp)
    b150:	0407f813          	andi	a6,a5,64
    b154:	00e12223          	sw	a4,4(sp)
    b158:	00050493          	mv	s1,a0
    b15c:	00058913          	mv	s2,a1
    b160:	00060d93          	mv	s11,a2
    b164:	00068a13          	mv	s4,a3
    b168:	4c080863          	beqz	a6,b638 <number+0x520>
    b16c:	00010ab7          	lui	s5,0x10
    b170:	730a8a93          	addi	s5,s5,1840 # 10730 <errpat+0x700>
    b174:	0107fc13          	andi	s8,a5,16
    b178:	480c0e63          	beqz	s8,b614 <number+0x4fc>
    b17c:	ffe7f793          	andi	a5,a5,-2
    b180:	01812423          	sw	s8,8(sp)
    b184:	0027f713          	andi	a4,a5,2
    b188:	02000b93          	li	s7,32
    b18c:	0207fc93          	andi	s9,a5,32
    b190:	4a070a63          	beqz	a4,b644 <number+0x52c>
    b194:	4a094c63          	bltz	s2,b64c <number+0x534>
    b198:	0047f713          	andi	a4,a5,4
    b19c:	50071663          	bnez	a4,b6a8 <number+0x590>
    b1a0:	0087f793          	andi	a5,a5,8
    b1a4:	00012623          	sw	zero,12(sp)
    b1a8:	00078863          	beqz	a5,b1b8 <number+0xa0>
    b1ac:	02000793          	li	a5,32
    b1b0:	fffa0a13          	addi	s4,s4,-1
    b1b4:	00f12623          	sw	a5,12(sp)
    b1b8:	000c8c63          	beqz	s9,b1d0 <number+0xb8>
    b1bc:	01000793          	li	a5,16
    b1c0:	50fd8e63          	beq	s11,a5,b6dc <number+0x5c4>
    b1c4:	ff8d8793          	addi	a5,s11,-8
    b1c8:	0017b793          	seqz	a5,a5
    b1cc:	40fa0a33          	sub	s4,s4,a5
    b1d0:	48091863          	bnez	s2,b660 <number+0x548>
    b1d4:	03000793          	li	a5,48
    b1d8:	00f10e23          	sb	a5,28(sp)
    b1dc:	00000d13          	li	s10,0
    b1e0:	00100993          	li	s3,1
    b1e4:	01c10413          	addi	s0,sp,28
    b1e8:	00412783          	lw	a5,4(sp)
    b1ec:	00098693          	mv	a3,s3
    b1f0:	00f9d463          	bge	s3,a5,b1f8 <number+0xe0>
    b1f4:	00078693          	mv	a3,a5
    b1f8:	00812783          	lw	a5,8(sp)
    b1fc:	40da0a33          	sub	s4,s4,a3
    b200:	fffa0893          	addi	a7,s4,-1
    b204:	0c079c63          	bnez	a5,b2dc <number+0x1c4>
    b208:	51405c63          	blez	s4,b720 <number+0x608>
    b20c:	409007b3          	neg	a5,s1
    b210:	00500713          	li	a4,5
    b214:	0037f793          	andi	a5,a5,3
    b218:	53177263          	bgeu	a4,a7,b73c <number+0x624>
    b21c:	00048513          	mv	a0,s1
    b220:	02078e63          	beqz	a5,b25c <number+0x144>
    b224:	02000713          	li	a4,32
    b228:	00e48023          	sb	a4,0(s1)
    b22c:	00100613          	li	a2,1
    b230:	00148513          	addi	a0,s1,1
    b234:	ffea0893          	addi	a7,s4,-2
    b238:	02c78263          	beq	a5,a2,b25c <number+0x144>
    b23c:	00e480a3          	sb	a4,1(s1)
    b240:	00300613          	li	a2,3
    b244:	00248513          	addi	a0,s1,2
    b248:	ffda0893          	addi	a7,s4,-3
    b24c:	00c79863          	bne	a5,a2,b25c <number+0x144>
    b250:	00348513          	addi	a0,s1,3
    b254:	00e48123          	sb	a4,2(s1)
    b258:	ffca0893          	addi	a7,s4,-4
    b25c:	40fa0333          	sub	t1,s4,a5
    b260:	ffc37613          	andi	a2,t1,-4
    b264:	00f487b3          	add	a5,s1,a5
    b268:	20202737          	lui	a4,0x20202
    b26c:	00f60633          	add	a2,a2,a5
    b270:	02070713          	addi	a4,a4,32 # 20202020 <stack_top+0x201e2020>
    b274:	00e7a023          	sw	a4,0(a5)
    b278:	00478793          	addi	a5,a5,4
    b27c:	fec79ce3          	bne	a5,a2,b274 <number+0x15c>
    b280:	ffc37713          	andi	a4,t1,-4
    b284:	00e507b3          	add	a5,a0,a4
    b288:	40e888b3          	sub	a7,a7,a4
    b28c:	04e30263          	beq	t1,a4,b2d0 <number+0x1b8>
    b290:	02000713          	li	a4,32
    b294:	00e78023          	sb	a4,0(a5)
    b298:	03105c63          	blez	a7,b2d0 <number+0x1b8>
    b29c:	00e780a3          	sb	a4,1(a5)
    b2a0:	00100613          	li	a2,1
    b2a4:	03165663          	bge	a2,a7,b2d0 <number+0x1b8>
    b2a8:	00e78123          	sb	a4,2(a5)
    b2ac:	00200613          	li	a2,2
    b2b0:	03165063          	bge	a2,a7,b2d0 <number+0x1b8>
    b2b4:	00e781a3          	sb	a4,3(a5)
    b2b8:	00300613          	li	a2,3
    b2bc:	01165a63          	bge	a2,a7,b2d0 <number+0x1b8>
    b2c0:	00e78223          	sb	a4,4(a5)
    b2c4:	00400613          	li	a2,4
    b2c8:	01165463          	bge	a2,a7,b2d0 <number+0x1b8>
    b2cc:	00e782a3          	sb	a4,5(a5)
    b2d0:	014484b3          	add	s1,s1,s4
    b2d4:	ffe00893          	li	a7,-2
    b2d8:	fff00a13          	li	s4,-1
    b2dc:	00c12783          	lw	a5,12(sp)
    b2e0:	00078663          	beqz	a5,b2ec <number+0x1d4>
    b2e4:	00f48023          	sb	a5,0(s1)
    b2e8:	00148493          	addi	s1,s1,1
    b2ec:	000c8a63          	beqz	s9,b300 <number+0x1e8>
    b2f0:	00800793          	li	a5,8
    b2f4:	3efd8863          	beq	s11,a5,b6e4 <number+0x5cc>
    b2f8:	01000793          	li	a5,16
    b2fc:	3afd8e63          	beq	s11,a5,b6b8 <number+0x5a0>
    b300:	0e0c1863          	bnez	s8,b3f0 <number+0x2d8>
    b304:	41405863          	blez	s4,b714 <number+0x5fc>
    b308:	fff8ca13          	not	s4,a7
    b30c:	41fa5a13          	srai	s4,s4,0x1f
    b310:	0148f333          	and	t1,a7,s4
    b314:	409007b3          	neg	a5,s1
    b318:	00500713          	li	a4,5
    b31c:	00130f13          	addi	t5,t1,1 # 10001 <intpat+0x1>
    b320:	0037f793          	andi	a5,a5,3
    b324:	41175663          	bge	a4,a7,b730 <number+0x618>
    b328:	3c078663          	beqz	a5,b6f4 <number+0x5dc>
    b32c:	fff88a13          	addi	s4,a7,-1
    b330:	01748023          	sb	s7,0(s1)
    b334:	00100713          	li	a4,1
    b338:	00148513          	addi	a0,s1,1
    b33c:	000a0e13          	mv	t3,s4
    b340:	02e78263          	beq	a5,a4,b364 <number+0x24c>
    b344:	017480a3          	sb	s7,1(s1)
    b348:	00300713          	li	a4,3
    b34c:	00248513          	addi	a0,s1,2
    b350:	ffe88e13          	addi	t3,a7,-2
    b354:	00e79863          	bne	a5,a4,b364 <number+0x24c>
    b358:	00348513          	addi	a0,s1,3
    b35c:	01748123          	sb	s7,2(s1)
    b360:	ffd88e13          	addi	t3,a7,-3
    b364:	008b9593          	slli	a1,s7,0x8
    b368:	40ff0eb3          	sub	t4,t5,a5
    b36c:	00bbe5b3          	or	a1,s7,a1
    b370:	010b9613          	slli	a2,s7,0x10
    b374:	00c5e633          	or	a2,a1,a2
    b378:	018b9713          	slli	a4,s7,0x18
    b37c:	00f487b3          	add	a5,s1,a5
    b380:	ffcef593          	andi	a1,t4,-4
    b384:	00e66733          	or	a4,a2,a4
    b388:	00f58633          	add	a2,a1,a5
    b38c:	00e7a023          	sw	a4,0(a5)
    b390:	00478793          	addi	a5,a5,4
    b394:	fec79ce3          	bne	a5,a2,b38c <number+0x274>
    b398:	ffcef713          	andi	a4,t4,-4
    b39c:	00e507b3          	add	a5,a0,a4
    b3a0:	40ee08b3          	sub	a7,t3,a4
    b3a4:	04ee8063          	beq	t4,a4,b3e4 <number+0x2cc>
    b3a8:	01778023          	sb	s7,0(a5)
    b3ac:	03105c63          	blez	a7,b3e4 <number+0x2cc>
    b3b0:	017780a3          	sb	s7,1(a5)
    b3b4:	00100713          	li	a4,1
    b3b8:	03175663          	bge	a4,a7,b3e4 <number+0x2cc>
    b3bc:	01778123          	sb	s7,2(a5)
    b3c0:	00200713          	li	a4,2
    b3c4:	03175063          	bge	a4,a7,b3e4 <number+0x2cc>
    b3c8:	017781a3          	sb	s7,3(a5)
    b3cc:	00300713          	li	a4,3
    b3d0:	01175a63          	bge	a4,a7,b3e4 <number+0x2cc>
    b3d4:	01778223          	sb	s7,4(a5)
    b3d8:	00400713          	li	a4,4
    b3dc:	01175463          	bge	a4,a7,b3e4 <number+0x2cc>
    b3e0:	017782a3          	sb	s7,5(a5)
    b3e4:	406a0a33          	sub	s4,s4,t1
    b3e8:	01e484b3          	add	s1,s1,t5
    b3ec:	fffa0893          	addi	a7,s4,-1
    b3f0:	fff68593          	addi	a1,a3,-1
    b3f4:	0cd9da63          	bge	s3,a3,b4c8 <number+0x3b0>
    b3f8:	41368533          	sub	a0,a3,s3
    b3fc:	40900733          	neg	a4,s1
    b400:	fff50613          	addi	a2,a0,-1
    b404:	00500793          	li	a5,5
    b408:	00377713          	andi	a4,a4,3
    b40c:	30c7f063          	bgeu	a5,a2,b70c <number+0x5f4>
    b410:	00048613          	mv	a2,s1
    b414:	02070e63          	beqz	a4,b450 <number+0x338>
    b418:	03000793          	li	a5,48
    b41c:	00f48023          	sb	a5,0(s1)
    b420:	00100313          	li	t1,1
    b424:	00148613          	addi	a2,s1,1
    b428:	ffe68593          	addi	a1,a3,-2
    b42c:	02670263          	beq	a4,t1,b450 <number+0x338>
    b430:	00f480a3          	sb	a5,1(s1)
    b434:	00300313          	li	t1,3
    b438:	00248613          	addi	a2,s1,2
    b43c:	ffd68593          	addi	a1,a3,-3
    b440:	00671863          	bne	a4,t1,b450 <number+0x338>
    b444:	00348613          	addi	a2,s1,3
    b448:	00f48123          	sb	a5,2(s1)
    b44c:	ffc68593          	addi	a1,a3,-4
    b450:	40e50333          	sub	t1,a0,a4
    b454:	ffc37693          	andi	a3,t1,-4
    b458:	00e48733          	add	a4,s1,a4
    b45c:	303037b7          	lui	a5,0x30303
    b460:	00e686b3          	add	a3,a3,a4
    b464:	03078793          	addi	a5,a5,48 # 30303030 <stack_top+0x302e3030>
    b468:	00f72023          	sw	a5,0(a4)
    b46c:	00470713          	addi	a4,a4,4
    b470:	fed71ce3          	bne	a4,a3,b468 <number+0x350>
    b474:	ffc37713          	andi	a4,t1,-4
    b478:	00e607b3          	add	a5,a2,a4
    b47c:	40e585b3          	sub	a1,a1,a4
    b480:	04e30263          	beq	t1,a4,b4c4 <number+0x3ac>
    b484:	03000713          	li	a4,48
    b488:	00e78023          	sb	a4,0(a5)
    b48c:	fff58693          	addi	a3,a1,-1
    b490:	02b9da63          	bge	s3,a1,b4c4 <number+0x3ac>
    b494:	00e780a3          	sb	a4,1(a5)
    b498:	ffe58613          	addi	a2,a1,-2
    b49c:	02d9d463          	bge	s3,a3,b4c4 <number+0x3ac>
    b4a0:	00e78123          	sb	a4,2(a5)
    b4a4:	ffd58693          	addi	a3,a1,-3
    b4a8:	00c9de63          	bge	s3,a2,b4c4 <number+0x3ac>
    b4ac:	00e781a3          	sb	a4,3(a5)
    b4b0:	ffc58593          	addi	a1,a1,-4
    b4b4:	00d9d863          	bge	s3,a3,b4c4 <number+0x3ac>
    b4b8:	00e78223          	sb	a4,4(a5)
    b4bc:	00b9d463          	bge	s3,a1,b4c4 <number+0x3ac>
    b4c0:	00e782a3          	sb	a4,5(a5)
    b4c4:	00a484b3          	add	s1,s1,a0
    b4c8:	01a406b3          	add	a3,s0,s10
    b4cc:	00048713          	mv	a4,s1
    b4d0:	00100593          	li	a1,1
    b4d4:	0006c603          	lbu	a2,0(a3)
    b4d8:	00170713          	addi	a4,a4,1
    b4dc:	40e587b3          	sub	a5,a1,a4
    b4e0:	01a787b3          	add	a5,a5,s10
    b4e4:	00f487b3          	add	a5,s1,a5
    b4e8:	fec70fa3          	sb	a2,-1(a4)
    b4ec:	fff68693          	addi	a3,a3,-1
    b4f0:	fef042e3          	bgtz	a5,b4d4 <number+0x3bc>
    b4f4:	001d0813          	addi	a6,s10,1
    b4f8:	01048533          	add	a0,s1,a6
    b4fc:	0d405e63          	blez	s4,b5d8 <number+0x4c0>
    b500:	fff8c713          	not	a4,a7
    b504:	41f75713          	srai	a4,a4,0x1f
    b508:	00e8f733          	and	a4,a7,a4
    b50c:	40a007b3          	neg	a5,a0
    b510:	00500693          	li	a3,5
    b514:	00170713          	addi	a4,a4,1
    b518:	0037f793          	andi	a5,a5,3
    b51c:	1f16d463          	bge	a3,a7,b704 <number+0x5ec>
    b520:	1a078863          	beqz	a5,b6d0 <number+0x5b8>
    b524:	02000693          	li	a3,32
    b528:	00d50023          	sb	a3,0(a0)
    b52c:	00100593          	li	a1,1
    b530:	00150613          	addi	a2,a0,1
    b534:	fff88313          	addi	t1,a7,-1
    b538:	02b78263          	beq	a5,a1,b55c <number+0x444>
    b53c:	00d500a3          	sb	a3,1(a0)
    b540:	00300593          	li	a1,3
    b544:	00250613          	addi	a2,a0,2
    b548:	ffe88313          	addi	t1,a7,-2
    b54c:	00b79863          	bne	a5,a1,b55c <number+0x444>
    b550:	00350613          	addi	a2,a0,3
    b554:	00d50123          	sb	a3,2(a0)
    b558:	ffd88313          	addi	t1,a7,-3
    b55c:	40f705b3          	sub	a1,a4,a5
    b560:	010787b3          	add	a5,a5,a6
    b564:	00f484b3          	add	s1,s1,a5
    b568:	ffc5f693          	andi	a3,a1,-4
    b56c:	202027b7          	lui	a5,0x20202
    b570:	009686b3          	add	a3,a3,s1
    b574:	02078793          	addi	a5,a5,32 # 20202020 <stack_top+0x201e2020>
    b578:	00f4a023          	sw	a5,0(s1)
    b57c:	00448493          	addi	s1,s1,4
    b580:	fe969ce3          	bne	a3,s1,b578 <number+0x460>
    b584:	ffc5f693          	andi	a3,a1,-4
    b588:	00d607b3          	add	a5,a2,a3
    b58c:	40d308b3          	sub	a7,t1,a3
    b590:	04b68263          	beq	a3,a1,b5d4 <number+0x4bc>
    b594:	02000693          	li	a3,32
    b598:	00d78023          	sb	a3,0(a5)
    b59c:	03105c63          	blez	a7,b5d4 <number+0x4bc>
    b5a0:	00d780a3          	sb	a3,1(a5)
    b5a4:	00100613          	li	a2,1
    b5a8:	03165663          	bge	a2,a7,b5d4 <number+0x4bc>
    b5ac:	00d78123          	sb	a3,2(a5)
    b5b0:	00200613          	li	a2,2
    b5b4:	03165063          	bge	a2,a7,b5d4 <number+0x4bc>
    b5b8:	00d781a3          	sb	a3,3(a5)
    b5bc:	00300613          	li	a2,3
    b5c0:	01165a63          	bge	a2,a7,b5d4 <number+0x4bc>
    b5c4:	00d78223          	sb	a3,4(a5)
    b5c8:	00400613          	li	a2,4
    b5cc:	01165463          	bge	a2,a7,b5d4 <number+0x4bc>
    b5d0:	00d782a3          	sb	a3,5(a5)
    b5d4:	00e50533          	add	a0,a0,a4
    b5d8:	09c12083          	lw	ra,156(sp)
    b5dc:	09812403          	lw	s0,152(sp)
    b5e0:	09412483          	lw	s1,148(sp)
    b5e4:	09012903          	lw	s2,144(sp)
    b5e8:	08c12983          	lw	s3,140(sp)
    b5ec:	08812a03          	lw	s4,136(sp)
    b5f0:	08412a83          	lw	s5,132(sp)
    b5f4:	08012b03          	lw	s6,128(sp)
    b5f8:	07c12b83          	lw	s7,124(sp)
    b5fc:	07812c03          	lw	s8,120(sp)
    b600:	07412c83          	lw	s9,116(sp)
    b604:	07012d03          	lw	s10,112(sp)
    b608:	06c12d83          	lw	s11,108(sp)
    b60c:	0a010113          	addi	sp,sp,160
    b610:	00008067          	ret
    b614:	0117f693          	andi	a3,a5,17
    b618:	0017f713          	andi	a4,a5,1
    b61c:	00d12423          	sw	a3,8(sp)
    b620:	03000b93          	li	s7,48
    b624:	b60700e3          	beqz	a4,b184 <number+0x6c>
    b628:	0027f713          	andi	a4,a5,2
    b62c:	0207fc93          	andi	s9,a5,32
    b630:	00070a63          	beqz	a4,b644 <number+0x52c>
    b634:	b61ff06f          	j	b194 <number+0x7c>
    b638:	00010ab7          	lui	s5,0x10
    b63c:	708a8a93          	addi	s5,s5,1800 # 10708 <errpat+0x6d8>
    b640:	b35ff06f          	j	b174 <number+0x5c>
    b644:	00012623          	sw	zero,12(sp)
    b648:	b71ff06f          	j	b1b8 <number+0xa0>
    b64c:	02d00793          	li	a5,45
    b650:	00f12623          	sw	a5,12(sp)
    b654:	41200933          	neg	s2,s2
    b658:	fffa0a13          	addi	s4,s4,-1
    b65c:	b60c90e3          	bnez	s9,b1bc <number+0xa4>
    b660:	00000993          	li	s3,0
    b664:	01c10413          	addi	s0,sp,28
    b668:	000d8593          	mv	a1,s11
    b66c:	00090513          	mv	a0,s2
    b670:	654010ef          	jal	ra,ccc4 <__umodsi3>
    b674:	00aa8533          	add	a0,s5,a0
    b678:	00054683          	lbu	a3,0(a0)
    b67c:	00098d13          	mv	s10,s3
    b680:	00198993          	addi	s3,s3,1
    b684:	01340733          	add	a4,s0,s3
    b688:	00090513          	mv	a0,s2
    b68c:	000d8593          	mv	a1,s11
    b690:	fed70fa3          	sb	a3,-1(a4)
    b694:	00090b13          	mv	s6,s2
    b698:	5e4010ef          	jal	ra,cc7c <__udivsi3>
    b69c:	00050913          	mv	s2,a0
    b6a0:	fdbb74e3          	bgeu	s6,s11,b668 <number+0x550>
    b6a4:	b45ff06f          	j	b1e8 <number+0xd0>
    b6a8:	02b00793          	li	a5,43
    b6ac:	fffa0a13          	addi	s4,s4,-1
    b6b0:	00f12623          	sw	a5,12(sp)
    b6b4:	b05ff06f          	j	b1b8 <number+0xa0>
    b6b8:	03000793          	li	a5,48
    b6bc:	00f48023          	sb	a5,0(s1)
    b6c0:	07800793          	li	a5,120
    b6c4:	00f480a3          	sb	a5,1(s1)
    b6c8:	00248493          	addi	s1,s1,2
    b6cc:	c35ff06f          	j	b300 <number+0x1e8>
    b6d0:	00088313          	mv	t1,a7
    b6d4:	00050613          	mv	a2,a0
    b6d8:	e85ff06f          	j	b55c <number+0x444>
    b6dc:	ffea0a13          	addi	s4,s4,-2
    b6e0:	af1ff06f          	j	b1d0 <number+0xb8>
    b6e4:	03000793          	li	a5,48
    b6e8:	00f48023          	sb	a5,0(s1)
    b6ec:	00148493          	addi	s1,s1,1
    b6f0:	c11ff06f          	j	b300 <number+0x1e8>
    b6f4:	00088e13          	mv	t3,a7
    b6f8:	00048513          	mv	a0,s1
    b6fc:	fff88a13          	addi	s4,a7,-1
    b700:	c65ff06f          	j	b364 <number+0x24c>
    b704:	00050793          	mv	a5,a0
    b708:	e8dff06f          	j	b594 <number+0x47c>
    b70c:	00048793          	mv	a5,s1
    b710:	d75ff06f          	j	b484 <number+0x36c>
    b714:	00088a13          	mv	s4,a7
    b718:	fff88893          	addi	a7,a7,-1
    b71c:	cd5ff06f          	j	b3f0 <number+0x2d8>
    b720:	ffea0793          	addi	a5,s4,-2
    b724:	00088a13          	mv	s4,a7
    b728:	00078893          	mv	a7,a5
    b72c:	bb1ff06f          	j	b2dc <number+0x1c4>
    b730:	00048793          	mv	a5,s1
    b734:	fff88a13          	addi	s4,a7,-1
    b738:	c71ff06f          	j	b3a8 <number+0x290>
    b73c:	00048793          	mv	a5,s1
    b740:	b51ff06f          	j	b290 <number+0x178>

0000b744 <uart_send_char>:
    b744:	ff010113          	addi	sp,sp,-16
    b748:	000026b7          	lui	a3,0x2
    b74c:	00012623          	sw	zero,12(sp)
    b750:	00000793          	li	a5,0
    b754:	71068693          	addi	a3,a3,1808 # 2710 <_start-0x58f0>
    b758:	00c12703          	lw	a4,12(sp)
    b75c:	00f70733          	add	a4,a4,a5
    b760:	00e12623          	sw	a4,12(sp)
    b764:	00178793          	addi	a5,a5,1
    b768:	fed798e3          	bne	a5,a3,b758 <uart_send_char+0x14>
    b76c:	f6fff7b7          	lui	a5,0xf6fff
    b770:	06a78823          	sb	a0,112(a5) # f6fff070 <stack_top+0xf6fdf070>
    b774:	01010113          	addi	sp,sp,16
    b778:	00008067          	ret

0000b77c <ee_printf>:
    b77c:	e7010113          	addi	sp,sp,-400
    b780:	16812423          	sw	s0,360(sp)
    b784:	17212023          	sw	s2,352(sp)
    b788:	15712623          	sw	s7,332(sp)
    b78c:	16112623          	sw	ra,364(sp)
    b790:	16912223          	sw	s1,356(sp)
    b794:	15312e23          	sw	s3,348(sp)
    b798:	15412c23          	sw	s4,344(sp)
    b79c:	15512a23          	sw	s5,340(sp)
    b7a0:	15612823          	sw	s6,336(sp)
    b7a4:	15812423          	sw	s8,328(sp)
    b7a8:	15912223          	sw	s9,324(sp)
    b7ac:	15a12023          	sw	s10,320(sp)
    b7b0:	13b12e23          	sw	s11,316(sp)
    b7b4:	16b12a23          	sw	a1,372(sp)
    b7b8:	16c12c23          	sw	a2,376(sp)
    b7bc:	16d12e23          	sw	a3,380(sp)
    b7c0:	18e12023          	sw	a4,384(sp)
    b7c4:	18f12223          	sw	a5,388(sp)
    b7c8:	19012423          	sw	a6,392(sp)
    b7cc:	19112623          	sw	a7,396(sp)
    b7d0:	00054783          	lbu	a5,0(a0)
    b7d4:	17410b93          	addi	s7,sp,372
    b7d8:	03010913          	addi	s2,sp,48
    b7dc:	01712a23          	sw	s7,20(sp)
    b7e0:	00090413          	mv	s0,s2
    b7e4:	02078e63          	beqz	a5,b820 <ee_printf+0xa4>
    b7e8:	00010ab7          	lui	s5,0x10
    b7ec:	00010a37          	lui	s4,0x10
    b7f0:	09ca8713          	addi	a4,s5,156 # 1009c <errpat+0x6c>
    b7f4:	000109b7          	lui	s3,0x10
    b7f8:	058a0a13          	addi	s4,s4,88 # 10058 <errpat+0x28>
    b7fc:	00e12423          	sw	a4,8(sp)
    b800:	70898993          	addi	s3,s3,1800 # 10708 <errpat+0x6d8>
    b804:	02500713          	li	a4,37
    b808:	0ae78263          	beq	a5,a4,b8ac <ee_printf+0x130>
    b80c:	00f40023          	sb	a5,0(s0)
    b810:	00154783          	lbu	a5,1(a0)
    b814:	00140413          	addi	s0,s0,1
    b818:	00150513          	addi	a0,a0,1
    b81c:	fe0794e3          	bnez	a5,b804 <ee_printf+0x88>
    b820:	00040023          	sb	zero,0(s0)
    b824:	03014603          	lbu	a2,48(sp)
    b828:	16060a63          	beqz	a2,b99c <ee_printf+0x220>
    b82c:	000026b7          	lui	a3,0x2
    b830:	00100593          	li	a1,1
    b834:	71068693          	addi	a3,a3,1808 # 2710 <_start-0x58f0>
    b838:	f6fff837          	lui	a6,0xf6fff
    b83c:	412585b3          	sub	a1,a1,s2
    b840:	00012c23          	sw	zero,24(sp)
    b844:	00000793          	li	a5,0
    b848:	01812703          	lw	a4,24(sp)
    b84c:	00f70733          	add	a4,a4,a5
    b850:	00e12c23          	sw	a4,24(sp)
    b854:	00178793          	addi	a5,a5,1
    b858:	fed798e3          	bne	a5,a3,b848 <ee_printf+0xcc>
    b85c:	06c80823          	sb	a2,112(a6) # f6fff070 <stack_top+0xf6fdf070>
    b860:	00194603          	lbu	a2,1(s2)
    b864:	00b90533          	add	a0,s2,a1
    b868:	00190913          	addi	s2,s2,1
    b86c:	fc061ae3          	bnez	a2,b840 <ee_printf+0xc4>
    b870:	16c12083          	lw	ra,364(sp)
    b874:	16812403          	lw	s0,360(sp)
    b878:	16412483          	lw	s1,356(sp)
    b87c:	16012903          	lw	s2,352(sp)
    b880:	15c12983          	lw	s3,348(sp)
    b884:	15812a03          	lw	s4,344(sp)
    b888:	15412a83          	lw	s5,340(sp)
    b88c:	15012b03          	lw	s6,336(sp)
    b890:	14c12b83          	lw	s7,332(sp)
    b894:	14812c03          	lw	s8,328(sp)
    b898:	14412c83          	lw	s9,324(sp)
    b89c:	14012d03          	lw	s10,320(sp)
    b8a0:	13c12d83          	lw	s11,316(sp)
    b8a4:	19010113          	addi	sp,sp,400
    b8a8:	00008067          	ret
    b8ac:	00000c93          	li	s9,0
    b8b0:	01000593          	li	a1,16
    b8b4:	00154683          	lbu	a3,1(a0)
    b8b8:	00150613          	addi	a2,a0,1
    b8bc:	fe068713          	addi	a4,a3,-32
    b8c0:	0ff77713          	andi	a4,a4,255
    b8c4:	00e5ea63          	bltu	a1,a4,b8d8 <ee_printf+0x15c>
    b8c8:	00271713          	slli	a4,a4,0x2
    b8cc:	01470733          	add	a4,a4,s4
    b8d0:	00072783          	lw	a5,0(a4)
    b8d4:	00078067          	jr	a5
    b8d8:	fd068793          	addi	a5,a3,-48
    b8dc:	0ff7f793          	andi	a5,a5,255
    b8e0:	00900713          	li	a4,9
    b8e4:	10f77e63          	bgeu	a4,a5,ba00 <ee_printf+0x284>
    b8e8:	02a00793          	li	a5,42
    b8ec:	fff00493          	li	s1,-1
    b8f0:	14f68263          	beq	a3,a5,ba34 <ee_printf+0x2b8>
    b8f4:	02e00793          	li	a5,46
    b8f8:	fff00713          	li	a4,-1
    b8fc:	0cf68c63          	beq	a3,a5,b9d4 <ee_printf+0x258>
    b900:	0df6f793          	andi	a5,a3,223
    b904:	04c00593          	li	a1,76
    b908:	08b78e63          	beq	a5,a1,b9a4 <ee_printf+0x228>
    b90c:	fbf68793          	addi	a5,a3,-65
    b910:	0ff7f793          	andi	a5,a5,255
    b914:	03700593          	li	a1,55
    b918:	04f5ea63          	bltu	a1,a5,b96c <ee_printf+0x1f0>
    b91c:	00812583          	lw	a1,8(sp)
    b920:	00279793          	slli	a5,a5,0x2
    b924:	00b787b3          	add	a5,a5,a1
    b928:	0007a783          	lw	a5,0(a5)
    b92c:	00078067          	jr	a5
    b930:	001cec93          	ori	s9,s9,1
    b934:	00060513          	mv	a0,a2
    b938:	f7dff06f          	j	b8b4 <ee_printf+0x138>
    b93c:	010cec93          	ori	s9,s9,16
    b940:	00060513          	mv	a0,a2
    b944:	f71ff06f          	j	b8b4 <ee_printf+0x138>
    b948:	004cec93          	ori	s9,s9,4
    b94c:	00060513          	mv	a0,a2
    b950:	f65ff06f          	j	b8b4 <ee_printf+0x138>
    b954:	020cec93          	ori	s9,s9,32
    b958:	00060513          	mv	a0,a2
    b95c:	f59ff06f          	j	b8b4 <ee_printf+0x138>
    b960:	008cec93          	ori	s9,s9,8
    b964:	00060513          	mv	a0,a2
    b968:	f4dff06f          	j	b8b4 <ee_printf+0x138>
    b96c:	00068593          	mv	a1,a3
    b970:	00060d13          	mv	s10,a2
    b974:	02500793          	li	a5,37
    b978:	00140713          	addi	a4,s0,1
    b97c:	5cf58ae3          	beq	a1,a5,c750 <ee_printf+0xfd4>
    b980:	00f40023          	sb	a5,0(s0)
    b984:	000d4583          	lbu	a1,0(s10)
    b988:	5a059ee3          	bnez	a1,c744 <ee_printf+0xfc8>
    b98c:	00070413          	mv	s0,a4
    b990:	00040023          	sb	zero,0(s0)
    b994:	03014603          	lbu	a2,48(sp)
    b998:	e8061ae3          	bnez	a2,b82c <ee_printf+0xb0>
    b99c:	00000513          	li	a0,0
    b9a0:	ed1ff06f          	j	b870 <ee_printf+0xf4>
    b9a4:	00164583          	lbu	a1,1(a2)
    b9a8:	03700513          	li	a0,55
    b9ac:	00160d13          	addi	s10,a2,1
    b9b0:	fbf58793          	addi	a5,a1,-65
    b9b4:	0ff7f793          	andi	a5,a5,255
    b9b8:	faf56ee3          	bltu	a0,a5,b974 <ee_printf+0x1f8>
    b9bc:	00010537          	lui	a0,0x10
    b9c0:	00279793          	slli	a5,a5,0x2
    b9c4:	17c50513          	addi	a0,a0,380 # 1017c <errpat+0x14c>
    b9c8:	00a787b3          	add	a5,a5,a0
    b9cc:	0007a783          	lw	a5,0(a5)
    b9d0:	00078067          	jr	a5
    b9d4:	00164683          	lbu	a3,1(a2)
    b9d8:	00900713          	li	a4,9
    b9dc:	00160593          	addi	a1,a2,1
    b9e0:	fd068793          	addi	a5,a3,-48
    b9e4:	0ff7f793          	andi	a5,a5,255
    b9e8:	02f778e3          	bgeu	a4,a5,c218 <ee_printf+0xa9c>
    b9ec:	02a00793          	li	a5,42
    b9f0:	10f680e3          	beq	a3,a5,c2f0 <ee_printf+0xb74>
    b9f4:	00058613          	mv	a2,a1
    b9f8:	00000713          	li	a4,0
    b9fc:	f05ff06f          	j	b900 <ee_printf+0x184>
    ba00:	00000493          	li	s1,0
    ba04:	00900593          	li	a1,9
    ba08:	00249713          	slli	a4,s1,0x2
    ba0c:	009704b3          	add	s1,a4,s1
    ba10:	00160613          	addi	a2,a2,1
    ba14:	00149493          	slli	s1,s1,0x1
    ba18:	00d484b3          	add	s1,s1,a3
    ba1c:	00064683          	lbu	a3,0(a2)
    ba20:	fd048493          	addi	s1,s1,-48
    ba24:	fd068793          	addi	a5,a3,-48
    ba28:	0ff7f793          	andi	a5,a5,255
    ba2c:	fcf5fee3          	bgeu	a1,a5,ba08 <ee_printf+0x28c>
    ba30:	ec5ff06f          	j	b8f4 <ee_printf+0x178>
    ba34:	000ba483          	lw	s1,0(s7)
    ba38:	00254683          	lbu	a3,2(a0)
    ba3c:	00250613          	addi	a2,a0,2
    ba40:	004b8b93          	addi	s7,s7,4
    ba44:	ea04d8e3          	bgez	s1,b8f4 <ee_printf+0x178>
    ba48:	409004b3          	neg	s1,s1
    ba4c:	010cec93          	ori	s9,s9,16
    ba50:	ea5ff06f          	j	b8f4 <ee_printf+0x178>
    ba54:	040cec93          	ori	s9,s9,64
    ba58:	06c00793          	li	a5,108
    ba5c:	000bab03          	lw	s6,0(s7)
    ba60:	004b8b93          	addi	s7,s7,4
    ba64:	0af686e3          	beq	a3,a5,c310 <ee_printf+0xb94>
    ba68:	000b4a83          	lbu	s5,0(s6)
    ba6c:	7e0a8263          	beqz	s5,c250 <ee_printf+0xad4>
    ba70:	06300713          	li	a4,99
    ba74:	675752e3          	bge	a4,s5,c8d8 <ee_printf+0x115c>
    ba78:	06400593          	li	a1,100
    ba7c:	000a8513          	mv	a0,s5
    ba80:	278010ef          	jal	ra,ccf8 <__modsi3>
    ba84:	00050c13          	mv	s8,a0
    ba88:	06400593          	li	a1,100
    ba8c:	000a8513          	mv	a0,s5
    ba90:	1e4010ef          	jal	ra,cc74 <__divsi3>
    ba94:	00a987b3          	add	a5,s3,a0
    ba98:	00a00593          	li	a1,10
    ba9c:	000c0513          	mv	a0,s8
    baa0:	0007cd83          	lbu	s11,0(a5)
    baa4:	1d0010ef          	jal	ra,cc74 <__divsi3>
    baa8:	00a987b3          	add	a5,s3,a0
    baac:	0007c783          	lbu	a5,0(a5)
    bab0:	000c0513          	mv	a0,s8
    bab4:	00a00593          	li	a1,10
    bab8:	00879793          	slli	a5,a5,0x8
    babc:	00fdedb3          	or	s11,s11,a5
    bac0:	01b11c23          	sh	s11,24(sp)
    bac4:	234010ef          	jal	ra,ccf8 <__modsi3>
    bac8:	00050a93          	mv	s5,a0
    bacc:	00400d93          	li	s11,4
    bad0:	00300c13          	li	s8,3
    bad4:	00200713          	li	a4,2
    bad8:	015987b3          	add	a5,s3,s5
    badc:	0007c783          	lbu	a5,0(a5)
    bae0:	13010693          	addi	a3,sp,304
    bae4:	00e68733          	add	a4,a3,a4
    bae8:	eef70423          	sb	a5,-280(a4)
    baec:	001b4a83          	lbu	s5,1(s6)
    baf0:	13010793          	addi	a5,sp,304
    baf4:	018786b3          	add	a3,a5,s8
    baf8:	02e00713          	li	a4,46
    bafc:	eee68423          	sb	a4,-280(a3)
    bb00:	760a8c63          	beqz	s5,c278 <ee_printf+0xafc>
    bb04:	06300713          	li	a4,99
    bb08:	595756e3          	bge	a4,s5,c894 <ee_printf+0x1118>
    bb0c:	06400593          	li	a1,100
    bb10:	000a8513          	mv	a0,s5
    bb14:	00d12623          	sw	a3,12(sp)
    bb18:	15c010ef          	jal	ra,cc74 <__divsi3>
    bb1c:	00a98733          	add	a4,s3,a0
    bb20:	00074703          	lbu	a4,0(a4)
    bb24:	13010793          	addi	a5,sp,304
    bb28:	01b78db3          	add	s11,a5,s11
    bb2c:	eeed8423          	sb	a4,-280(s11)
    bb30:	06400593          	li	a1,100
    bb34:	000a8513          	mv	a0,s5
    bb38:	1c0010ef          	jal	ra,ccf8 <__modsi3>
    bb3c:	00a00593          	li	a1,10
    bb40:	00050d93          	mv	s11,a0
    bb44:	130010ef          	jal	ra,cc74 <__divsi3>
    bb48:	00a987b3          	add	a5,s3,a0
    bb4c:	0007c783          	lbu	a5,0(a5)
    bb50:	00c12683          	lw	a3,12(sp)
    bb54:	000d8513          	mv	a0,s11
    bb58:	00a00593          	li	a1,10
    bb5c:	eef68523          	sb	a5,-278(a3)
    bb60:	198010ef          	jal	ra,ccf8 <__modsi3>
    bb64:	003c0d93          	addi	s11,s8,3
    bb68:	00050a93          	mv	s5,a0
    bb6c:	015987b3          	add	a5,s3,s5
    bb70:	0007c683          	lbu	a3,0(a5)
    bb74:	13010793          	addi	a5,sp,304
    bb78:	01b787b3          	add	a5,a5,s11
    bb7c:	001d8c13          	addi	s8,s11,1
    bb80:	eed78423          	sb	a3,-280(a5)
    bb84:	002b4d83          	lbu	s11,2(s6)
    bb88:	13010793          	addi	a5,sp,304
    bb8c:	01878733          	add	a4,a5,s8
    bb90:	02e00793          	li	a5,46
    bb94:	eef70423          	sb	a5,-280(a4)
    bb98:	001c0a93          	addi	s5,s8,1
    bb9c:	700d8663          	beqz	s11,c2a8 <ee_printf+0xb2c>
    bba0:	06300693          	li	a3,99
    bba4:	65b6d6e3          	bge	a3,s11,c9f0 <ee_printf+0x1274>
    bba8:	06400593          	li	a1,100
    bbac:	000d8513          	mv	a0,s11
    bbb0:	00e12623          	sw	a4,12(sp)
    bbb4:	0c0010ef          	jal	ra,cc74 <__divsi3>
    bbb8:	00a986b3          	add	a3,s3,a0
    bbbc:	0006c683          	lbu	a3,0(a3)
    bbc0:	13010793          	addi	a5,sp,304
    bbc4:	015787b3          	add	a5,a5,s5
    bbc8:	eed78423          	sb	a3,-280(a5)
    bbcc:	06400593          	li	a1,100
    bbd0:	000d8513          	mv	a0,s11
    bbd4:	124010ef          	jal	ra,ccf8 <__modsi3>
    bbd8:	00a00593          	li	a1,10
    bbdc:	00050d93          	mv	s11,a0
    bbe0:	094010ef          	jal	ra,cc74 <__divsi3>
    bbe4:	00a987b3          	add	a5,s3,a0
    bbe8:	0007c783          	lbu	a5,0(a5)
    bbec:	00c12703          	lw	a4,12(sp)
    bbf0:	000d8513          	mv	a0,s11
    bbf4:	00a00593          	li	a1,10
    bbf8:	eef70523          	sb	a5,-278(a4)
    bbfc:	0fc010ef          	jal	ra,ccf8 <__modsi3>
    bc00:	003c0a93          	addi	s5,s8,3
    bc04:	00050d93          	mv	s11,a0
    bc08:	01b98db3          	add	s11,s3,s11
    bc0c:	000dc683          	lbu	a3,0(s11)
    bc10:	13010793          	addi	a5,sp,304
    bc14:	01578733          	add	a4,a5,s5
    bc18:	001a8c13          	addi	s8,s5,1
    bc1c:	13010793          	addi	a5,sp,304
    bc20:	003b4d83          	lbu	s11,3(s6)
    bc24:	eed70423          	sb	a3,-280(a4)
    bc28:	018786b3          	add	a3,a5,s8
    bc2c:	02e00793          	li	a5,46
    bc30:	eef68423          	sb	a5,-280(a3)
    bc34:	001c0b13          	addi	s6,s8,1
    bc38:	6a0d8063          	beqz	s11,c2d8 <ee_printf+0xb5c>
    bc3c:	06300713          	li	a4,99
    bc40:	5fb75ae3          	bge	a4,s11,ca34 <ee_printf+0x12b8>
    bc44:	06400593          	li	a1,100
    bc48:	000d8513          	mv	a0,s11
    bc4c:	00d12623          	sw	a3,12(sp)
    bc50:	024010ef          	jal	ra,cc74 <__divsi3>
    bc54:	00a98733          	add	a4,s3,a0
    bc58:	00074703          	lbu	a4,0(a4)
    bc5c:	13010793          	addi	a5,sp,304
    bc60:	016787b3          	add	a5,a5,s6
    bc64:	eee78423          	sb	a4,-280(a5)
    bc68:	06400593          	li	a1,100
    bc6c:	000d8513          	mv	a0,s11
    bc70:	088010ef          	jal	ra,ccf8 <__modsi3>
    bc74:	00a00593          	li	a1,10
    bc78:	00050d93          	mv	s11,a0
    bc7c:	7f9000ef          	jal	ra,cc74 <__divsi3>
    bc80:	00a987b3          	add	a5,s3,a0
    bc84:	0007c783          	lbu	a5,0(a5)
    bc88:	00c12683          	lw	a3,12(sp)
    bc8c:	000d8513          	mv	a0,s11
    bc90:	00a00593          	li	a1,10
    bc94:	eef68523          	sb	a5,-278(a3)
    bc98:	060010ef          	jal	ra,ccf8 <__modsi3>
    bc9c:	003c0b13          	addi	s6,s8,3
    bca0:	00050d93          	mv	s11,a0
    bca4:	01b98db3          	add	s11,s3,s11
    bca8:	000dc603          	lbu	a2,0(s11)
    bcac:	13010793          	addi	a5,sp,304
    bcb0:	016786b3          	add	a3,a5,s6
    bcb4:	001b0713          	addi	a4,s6,1
    bcb8:	eec68423          	sb	a2,-280(a3)
    bcbc:	010cfc93          	andi	s9,s9,16
    bcc0:	fff48793          	addi	a5,s1,-1
    bcc4:	0e0c9063          	bnez	s9,bda4 <ee_printf+0x628>
    bcc8:	5a975ee3          	bge	a4,s1,ca84 <ee_printf+0x1308>
    bccc:	40e48533          	sub	a0,s1,a4
    bcd0:	408006b3          	neg	a3,s0
    bcd4:	fff50593          	addi	a1,a0,-1
    bcd8:	00500613          	li	a2,5
    bcdc:	0036f693          	andi	a3,a3,3
    bce0:	64b678e3          	bgeu	a2,a1,cb30 <ee_printf+0x13b4>
    bce4:	640680e3          	beqz	a3,cb24 <ee_printf+0x13a8>
    bce8:	02000813          	li	a6,32
    bcec:	01040023          	sb	a6,0(s0)
    bcf0:	00100893          	li	a7,1
    bcf4:	00140593          	addi	a1,s0,1
    bcf8:	ffe48613          	addi	a2,s1,-2
    bcfc:	03168263          	beq	a3,a7,bd20 <ee_printf+0x5a4>
    bd00:	010400a3          	sb	a6,1(s0)
    bd04:	00300893          	li	a7,3
    bd08:	00240593          	addi	a1,s0,2
    bd0c:	ffd48613          	addi	a2,s1,-3
    bd10:	01169863          	bne	a3,a7,bd20 <ee_printf+0x5a4>
    bd14:	00340593          	addi	a1,s0,3
    bd18:	01040123          	sb	a6,2(s0)
    bd1c:	ffc48613          	addi	a2,s1,-4
    bd20:	40d508b3          	sub	a7,a0,a3
    bd24:	ffc8f313          	andi	t1,a7,-4
    bd28:	00d406b3          	add	a3,s0,a3
    bd2c:	20202837          	lui	a6,0x20202
    bd30:	00d30333          	add	t1,t1,a3
    bd34:	02080813          	addi	a6,a6,32 # 20202020 <stack_top+0x201e2020>
    bd38:	0106a023          	sw	a6,0(a3)
    bd3c:	00468693          	addi	a3,a3,4
    bd40:	fed31ce3          	bne	t1,a3,bd38 <ee_printf+0x5bc>
    bd44:	ffc8f813          	andi	a6,a7,-4
    bd48:	010585b3          	add	a1,a1,a6
    bd4c:	410606b3          	sub	a3,a2,a6
    bd50:	05088263          	beq	a7,a6,bd94 <ee_printf+0x618>
    bd54:	02000613          	li	a2,32
    bd58:	00c58023          	sb	a2,0(a1)
    bd5c:	fff68813          	addi	a6,a3,-1
    bd60:	02d75a63          	bge	a4,a3,bd94 <ee_printf+0x618>
    bd64:	00c580a3          	sb	a2,1(a1)
    bd68:	ffe68893          	addi	a7,a3,-2
    bd6c:	03075463          	bge	a4,a6,bd94 <ee_printf+0x618>
    bd70:	00c58123          	sb	a2,2(a1)
    bd74:	ffd68813          	addi	a6,a3,-3
    bd78:	01175e63          	bge	a4,a7,bd94 <ee_printf+0x618>
    bd7c:	00c581a3          	sb	a2,3(a1)
    bd80:	ffc68693          	addi	a3,a3,-4
    bd84:	01075863          	bge	a4,a6,bd94 <ee_printf+0x618>
    bd88:	00c58223          	sb	a2,4(a1)
    bd8c:	00d75463          	bge	a4,a3,bd94 <ee_printf+0x618>
    bd90:	00c582a3          	sb	a2,5(a1)
    bd94:	409704b3          	sub	s1,a4,s1
    bd98:	00f484b3          	add	s1,s1,a5
    bd9c:	00a40433          	add	s0,s0,a0
    bda0:	fff48793          	addi	a5,s1,-1
    bda4:	fff70693          	addi	a3,a4,-1
    bda8:	0086b693          	sltiu	a3,a3,8
    bdac:	380694e3          	bnez	a3,c934 <ee_printf+0x11b8>
    bdb0:	00347693          	andi	a3,s0,3
    bdb4:	380690e3          	bnez	a3,c934 <ee_printf+0x11b8>
    bdb8:	01812603          	lw	a2,24(sp)
    bdbc:	00275693          	srli	a3,a4,0x2
    bdc0:	00c42023          	sw	a2,0(s0)
    bdc4:	01c12603          	lw	a2,28(sp)
    bdc8:	00c42223          	sw	a2,4(s0)
    bdcc:	00300613          	li	a2,3
    bdd0:	00c69663          	bne	a3,a2,bddc <ee_printf+0x660>
    bdd4:	02012683          	lw	a3,32(sp)
    bdd8:	00d42423          	sw	a3,8(s0)
    bddc:	ffc77693          	andi	a3,a4,-4
    bde0:	00d405b3          	add	a1,s0,a3
    bde4:	04d70063          	beq	a4,a3,be24 <ee_printf+0x6a8>
    bde8:	13010613          	addi	a2,sp,304
    bdec:	00d60633          	add	a2,a2,a3
    bdf0:	ee864503          	lbu	a0,-280(a2)
    bdf4:	00168613          	addi	a2,a3,1
    bdf8:	00a58023          	sb	a0,0(a1)
    bdfc:	02e65463          	bge	a2,a4,be24 <ee_printf+0x6a8>
    be00:	13010513          	addi	a0,sp,304
    be04:	00c50633          	add	a2,a0,a2
    be08:	ee864603          	lbu	a2,-280(a2)
    be0c:	00268693          	addi	a3,a3,2
    be10:	00c580a3          	sb	a2,1(a1)
    be14:	00e6d863          	bge	a3,a4,be24 <ee_printf+0x6a8>
    be18:	00d506b3          	add	a3,a0,a3
    be1c:	ee86c683          	lbu	a3,-280(a3)
    be20:	00d58123          	sb	a3,2(a1)
    be24:	00e405b3          	add	a1,s0,a4
    be28:	4c9758e3          	bge	a4,s1,caf8 <ee_printf+0x137c>
    be2c:	40e78633          	sub	a2,a5,a4
    be30:	00100813          	li	a6,1
    be34:	00e7c463          	blt	a5,a4,be3c <ee_printf+0x6c0>
    be38:	00160813          	addi	a6,a2,1
    be3c:	40b006b3          	neg	a3,a1
    be40:	0036f693          	andi	a3,a3,3
    be44:	4ae7c6e3          	blt	a5,a4,caf0 <ee_printf+0x1374>
    be48:	00663613          	sltiu	a2,a2,6
    be4c:	4a0612e3          	bnez	a2,caf0 <ee_printf+0x1374>
    be50:	2c068ce3          	beqz	a3,c928 <ee_printf+0x11ac>
    be54:	02000893          	li	a7,32
    be58:	01158023          	sb	a7,0(a1)
    be5c:	00100313          	li	t1,1
    be60:	00158613          	addi	a2,a1,1
    be64:	fff78513          	addi	a0,a5,-1
    be68:	02668263          	beq	a3,t1,be8c <ee_printf+0x710>
    be6c:	011580a3          	sb	a7,1(a1)
    be70:	00300313          	li	t1,3
    be74:	00258613          	addi	a2,a1,2
    be78:	ffe78513          	addi	a0,a5,-2
    be7c:	00669863          	bne	a3,t1,be8c <ee_printf+0x710>
    be80:	00358613          	addi	a2,a1,3
    be84:	01158123          	sb	a7,2(a1)
    be88:	ffd78513          	addi	a0,a5,-3
    be8c:	40d80333          	sub	t1,a6,a3
    be90:	00e686b3          	add	a3,a3,a4
    be94:	00d40433          	add	s0,s0,a3
    be98:	202027b7          	lui	a5,0x20202
    be9c:	ffc37693          	andi	a3,t1,-4
    bea0:	008686b3          	add	a3,a3,s0
    bea4:	02078793          	addi	a5,a5,32 # 20202020 <stack_top+0x201e2020>
    bea8:	00f42023          	sw	a5,0(s0)
    beac:	00440413          	addi	s0,s0,4
    beb0:	fed41ce3          	bne	s0,a3,bea8 <ee_printf+0x72c>
    beb4:	ffc37893          	andi	a7,t1,-4
    beb8:	011606b3          	add	a3,a2,a7
    bebc:	411507b3          	sub	a5,a0,a7
    bec0:	05130263          	beq	t1,a7,bf04 <ee_printf+0x788>
    bec4:	02000613          	li	a2,32
    bec8:	00c68023          	sb	a2,0(a3)
    becc:	fff78513          	addi	a0,a5,-1
    bed0:	02f75a63          	bge	a4,a5,bf04 <ee_printf+0x788>
    bed4:	00c680a3          	sb	a2,1(a3)
    bed8:	ffe78893          	addi	a7,a5,-2
    bedc:	02a75463          	bge	a4,a0,bf04 <ee_printf+0x788>
    bee0:	00c68123          	sb	a2,2(a3)
    bee4:	ffd78513          	addi	a0,a5,-3
    bee8:	01175e63          	bge	a4,a7,bf04 <ee_printf+0x788>
    beec:	00c681a3          	sb	a2,3(a3)
    bef0:	ffc78793          	addi	a5,a5,-4
    bef4:	00a75863          	bge	a4,a0,bf04 <ee_printf+0x788>
    bef8:	00c68223          	sb	a2,4(a3)
    befc:	00f75463          	bge	a4,a5,bf04 <ee_printf+0x788>
    bf00:	00c682a3          	sb	a2,5(a3)
    bf04:	01058433          	add	s0,a1,a6
    bf08:	001d4783          	lbu	a5,1(s10)
    bf0c:	001d0513          	addi	a0,s10,1
    bf10:	8e079ae3          	bnez	a5,b804 <ee_printf+0x88>
    bf14:	90dff06f          	j	b820 <ee_printf+0xa4>
    bf18:	00060d13          	mv	s10,a2
    bf1c:	010cf793          	andi	a5,s9,16
    bf20:	fff48713          	addi	a4,s1,-1
    bf24:	040788e3          	beqz	a5,c774 <ee_printf+0xff8>
    bf28:	000ba783          	lw	a5,0(s7)
    bf2c:	00140613          	addi	a2,s0,1
    bf30:	004b8b93          	addi	s7,s7,4
    bf34:	00f40023          	sb	a5,0(s0)
    bf38:	001d0513          	addi	a0,s10,1
    bf3c:	12e052e3          	blez	a4,c860 <ee_printf+0x10e4>
    bf40:	40c007b3          	neg	a5,a2
    bf44:	ffe48593          	addi	a1,s1,-2
    bf48:	00500693          	li	a3,5
    bf4c:	00070313          	mv	t1,a4
    bf50:	0037f793          	andi	a5,a5,3
    bf54:	40b6d0e3          	bge	a3,a1,cb54 <ee_printf+0x13d8>
    bf58:	320780e3          	beqz	a5,ca78 <ee_printf+0x12fc>
    bf5c:	02000813          	li	a6,32
    bf60:	010400a3          	sb	a6,1(s0)
    bf64:	00100893          	li	a7,1
    bf68:	00240693          	addi	a3,s0,2
    bf6c:	03178263          	beq	a5,a7,bf90 <ee_printf+0x814>
    bf70:	01040123          	sb	a6,2(s0)
    bf74:	00300893          	li	a7,3
    bf78:	00340693          	addi	a3,s0,3
    bf7c:	ffd48593          	addi	a1,s1,-3
    bf80:	01179863          	bne	a5,a7,bf90 <ee_printf+0x814>
    bf84:	00440693          	addi	a3,s0,4
    bf88:	010401a3          	sb	a6,3(s0)
    bf8c:	ffc48593          	addi	a1,s1,-4
    bf90:	40f708b3          	sub	a7,a4,a5
    bf94:	00178793          	addi	a5,a5,1
    bf98:	00f40433          	add	s0,s0,a5
    bf9c:	ffc8f713          	andi	a4,a7,-4
    bfa0:	202027b7          	lui	a5,0x20202
    bfa4:	00870733          	add	a4,a4,s0
    bfa8:	02078793          	addi	a5,a5,32 # 20202020 <stack_top+0x201e2020>
    bfac:	00f42023          	sw	a5,0(s0)
    bfb0:	00440413          	addi	s0,s0,4
    bfb4:	fee41ce3          	bne	s0,a4,bfac <ee_printf+0x830>
    bfb8:	ffc8f813          	andi	a6,a7,-4
    bfbc:	010687b3          	add	a5,a3,a6
    bfc0:	41058733          	sub	a4,a1,a6
    bfc4:	05088463          	beq	a7,a6,c00c <ee_printf+0x890>
    bfc8:	02000693          	li	a3,32
    bfcc:	00d78023          	sb	a3,0(a5)
    bfd0:	fff70593          	addi	a1,a4,-1
    bfd4:	02b05c63          	blez	a1,c00c <ee_printf+0x890>
    bfd8:	00d780a3          	sb	a3,1(a5)
    bfdc:	ffe70593          	addi	a1,a4,-2
    bfe0:	02058663          	beqz	a1,c00c <ee_printf+0x890>
    bfe4:	00d78123          	sb	a3,2(a5)
    bfe8:	ffd70593          	addi	a1,a4,-3
    bfec:	02058063          	beqz	a1,c00c <ee_printf+0x890>
    bff0:	00d781a3          	sb	a3,3(a5)
    bff4:	ffc70593          	addi	a1,a4,-4
    bff8:	00058a63          	beqz	a1,c00c <ee_printf+0x890>
    bffc:	00d78223          	sb	a3,4(a5)
    c000:	00500593          	li	a1,5
    c004:	00b70463          	beq	a4,a1,c00c <ee_printf+0x890>
    c008:	00d782a3          	sb	a3,5(a5)
    c00c:	001d4783          	lbu	a5,1(s10)
    c010:	00660433          	add	s0,a2,t1
    c014:	fe079863          	bnez	a5,b804 <ee_printf+0x88>
    c018:	809ff06f          	j	b820 <ee_printf+0xa4>
    c01c:	00060d13          	mv	s10,a2
    c020:	000ba683          	lw	a3,0(s7)
    c024:	004b8b93          	addi	s7,s7,4
    c028:	040686e3          	beqz	a3,c874 <ee_printf+0x10f8>
    c02c:	0006c783          	lbu	a5,0(a3)
    c030:	320786e3          	beqz	a5,cb5c <ee_printf+0x13e0>
    c034:	320704e3          	beqz	a4,cb5c <ee_printf+0x13e0>
    c038:	00068793          	mv	a5,a3
    c03c:	00c0006f          	j	c048 <ee_printf+0x8cc>
    c040:	40e78633          	sub	a2,a5,a4
    c044:	00d60863          	beq	a2,a3,c054 <ee_printf+0x8d8>
    c048:	0017c603          	lbu	a2,1(a5)
    c04c:	00178793          	addi	a5,a5,1
    c050:	fe0618e3          	bnez	a2,c040 <ee_printf+0x8c4>
    c054:	010cfc93          	andi	s9,s9,16
    c058:	40d787b3          	sub	a5,a5,a3
    c05c:	600c8463          	beqz	s9,c664 <ee_printf+0xee8>
    c060:	08f05a63          	blez	a5,c0f4 <ee_printf+0x978>
    c064:	00168613          	addi	a2,a3,1
    c068:	0086e733          	or	a4,a3,s0
    c06c:	40c405b3          	sub	a1,s0,a2
    c070:	00377713          	andi	a4,a4,3
    c074:	0035b593          	sltiu	a1,a1,3
    c078:	00173713          	seqz	a4,a4
    c07c:	0015c593          	xori	a1,a1,1
    c080:	00b77733          	and	a4,a4,a1
    c084:	34070ee3          	beqz	a4,cbe0 <ee_printf+0x1464>
    c088:	fff78713          	addi	a4,a5,-1
    c08c:	00973713          	sltiu	a4,a4,9
    c090:	340718e3          	bnez	a4,cbe0 <ee_printf+0x1464>
    c094:	ffc7f713          	andi	a4,a5,-4
    c098:	00068613          	mv	a2,a3
    c09c:	00040593          	mv	a1,s0
    c0a0:	00d70733          	add	a4,a4,a3
    c0a4:	00062503          	lw	a0,0(a2)
    c0a8:	00460613          	addi	a2,a2,4
    c0ac:	00458593          	addi	a1,a1,4
    c0b0:	fea5ae23          	sw	a0,-4(a1)
    c0b4:	fec718e3          	bne	a4,a2,c0a4 <ee_printf+0x928>
    c0b8:	ffc7f713          	andi	a4,a5,-4
    c0bc:	00e686b3          	add	a3,a3,a4
    c0c0:	00e40633          	add	a2,s0,a4
    c0c4:	02e78663          	beq	a5,a4,c0f0 <ee_printf+0x974>
    c0c8:	0006c503          	lbu	a0,0(a3)
    c0cc:	00170593          	addi	a1,a4,1
    c0d0:	00a60023          	sb	a0,0(a2)
    c0d4:	00f5de63          	bge	a1,a5,c0f0 <ee_printf+0x974>
    c0d8:	0016c583          	lbu	a1,1(a3)
    c0dc:	00270713          	addi	a4,a4,2
    c0e0:	00b600a3          	sb	a1,1(a2)
    c0e4:	00f75663          	bge	a4,a5,c0f0 <ee_printf+0x974>
    c0e8:	0026c703          	lbu	a4,2(a3)
    c0ec:	00e60123          	sb	a4,2(a2)
    c0f0:	00f40433          	add	s0,s0,a5
    c0f4:	fff48613          	addi	a2,s1,-1
    c0f8:	001d0513          	addi	a0,s10,1
    c0fc:	3097d8e3          	bge	a5,s1,cc0c <ee_printf+0x1490>
    c100:	40f485b3          	sub	a1,s1,a5
    c104:	40800733          	neg	a4,s0
    c108:	fff58813          	addi	a6,a1,-1
    c10c:	00500693          	li	a3,5
    c110:	00377713          	andi	a4,a4,3
    c114:	2f06f8e3          	bgeu	a3,a6,cc04 <ee_printf+0x1488>
    c118:	00040693          	mv	a3,s0
    c11c:	02070e63          	beqz	a4,c158 <ee_printf+0x9dc>
    c120:	02000813          	li	a6,32
    c124:	01040023          	sb	a6,0(s0)
    c128:	00100893          	li	a7,1
    c12c:	00140693          	addi	a3,s0,1
    c130:	ffe48613          	addi	a2,s1,-2
    c134:	03170263          	beq	a4,a7,c158 <ee_printf+0x9dc>
    c138:	010400a3          	sb	a6,1(s0)
    c13c:	00300893          	li	a7,3
    c140:	00240693          	addi	a3,s0,2
    c144:	ffd48613          	addi	a2,s1,-3
    c148:	01171863          	bne	a4,a7,c158 <ee_printf+0x9dc>
    c14c:	00340693          	addi	a3,s0,3
    c150:	01040123          	sb	a6,2(s0)
    c154:	ffc48613          	addi	a2,s1,-4
    c158:	40e588b3          	sub	a7,a1,a4
    c15c:	ffc8f313          	andi	t1,a7,-4
    c160:	00e40733          	add	a4,s0,a4
    c164:	20202837          	lui	a6,0x20202
    c168:	00e30333          	add	t1,t1,a4
    c16c:	02080813          	addi	a6,a6,32 # 20202020 <stack_top+0x201e2020>
    c170:	01072023          	sw	a6,0(a4)
    c174:	00470713          	addi	a4,a4,4
    c178:	fe671ce3          	bne	a4,t1,c170 <ee_printf+0x9f4>
    c17c:	ffc8f813          	andi	a6,a7,-4
    c180:	01068733          	add	a4,a3,a6
    c184:	41060633          	sub	a2,a2,a6
    c188:	05088263          	beq	a7,a6,c1cc <ee_printf+0xa50>
    c18c:	02000693          	li	a3,32
    c190:	00d70023          	sb	a3,0(a4)
    c194:	fff60813          	addi	a6,a2,-1
    c198:	02c7da63          	bge	a5,a2,c1cc <ee_printf+0xa50>
    c19c:	00d700a3          	sb	a3,1(a4)
    c1a0:	ffe60893          	addi	a7,a2,-2
    c1a4:	0307d463          	bge	a5,a6,c1cc <ee_printf+0xa50>
    c1a8:	00d70123          	sb	a3,2(a4)
    c1ac:	ffd60813          	addi	a6,a2,-3
    c1b0:	0117de63          	bge	a5,a7,c1cc <ee_printf+0xa50>
    c1b4:	00d701a3          	sb	a3,3(a4)
    c1b8:	ffc60613          	addi	a2,a2,-4
    c1bc:	0107d863          	bge	a5,a6,c1cc <ee_printf+0xa50>
    c1c0:	00d70223          	sb	a3,4(a4)
    c1c4:	00c7d463          	bge	a5,a2,c1cc <ee_printf+0xa50>
    c1c8:	00d702a3          	sb	a3,5(a4)
    c1cc:	001d4783          	lbu	a5,1(s10)
    c1d0:	00b40433          	add	s0,s0,a1
    c1d4:	e2079863          	bnez	a5,b804 <ee_printf+0x88>
    c1d8:	e48ff06f          	j	b820 <ee_printf+0xa4>
    c1dc:	00060d13          	mv	s10,a2
    c1e0:	fff00793          	li	a5,-1
    c1e4:	58f48263          	beq	s1,a5,c768 <ee_printf+0xfec>
    c1e8:	000ba583          	lw	a1,0(s7)
    c1ec:	00040513          	mv	a0,s0
    c1f0:	000c8793          	mv	a5,s9
    c1f4:	00048693          	mv	a3,s1
    c1f8:	01000613          	li	a2,16
    c1fc:	f1dfe0ef          	jal	ra,b118 <number>
    c200:	001d4783          	lbu	a5,1(s10)
    c204:	00050413          	mv	s0,a0
    c208:	004b8b93          	addi	s7,s7,4
    c20c:	001d0513          	addi	a0,s10,1
    c210:	de079a63          	bnez	a5,b804 <ee_printf+0x88>
    c214:	e0cff06f          	j	b820 <ee_printf+0xa4>
    c218:	00000713          	li	a4,0
    c21c:	00900613          	li	a2,9
    c220:	00271793          	slli	a5,a4,0x2
    c224:	00e78733          	add	a4,a5,a4
    c228:	00158593          	addi	a1,a1,1
    c22c:	00171713          	slli	a4,a4,0x1
    c230:	00d70733          	add	a4,a4,a3
    c234:	0005c683          	lbu	a3,0(a1)
    c238:	fd070713          	addi	a4,a4,-48
    c23c:	fd068793          	addi	a5,a3,-48
    c240:	0ff7f793          	andi	a5,a5,255
    c244:	fcf67ee3          	bgeu	a2,a5,c220 <ee_printf+0xaa4>
    c248:	00058613          	mv	a2,a1
    c24c:	eb4ff06f          	j	b900 <ee_printf+0x184>
    c250:	03000793          	li	a5,48
    c254:	00f10c23          	sb	a5,24(sp)
    c258:	00100c13          	li	s8,1
    c25c:	13010793          	addi	a5,sp,304
    c260:	001b4a83          	lbu	s5,1(s6)
    c264:	018786b3          	add	a3,a5,s8
    c268:	02e00713          	li	a4,46
    c26c:	eee68423          	sb	a4,-280(a3)
    c270:	00200d93          	li	s11,2
    c274:	880a98e3          	bnez	s5,bb04 <ee_printf+0x388>
    c278:	13010793          	addi	a5,sp,304
    c27c:	01b78db3          	add	s11,a5,s11
    c280:	03000793          	li	a5,48
    c284:	eefd8423          	sb	a5,-280(s11)
    c288:	002c0c13          	addi	s8,s8,2
    c28c:	13010793          	addi	a5,sp,304
    c290:	002b4d83          	lbu	s11,2(s6)
    c294:	01878733          	add	a4,a5,s8
    c298:	02e00793          	li	a5,46
    c29c:	eef70423          	sb	a5,-280(a4)
    c2a0:	001c0a93          	addi	s5,s8,1
    c2a4:	8e0d9ee3          	bnez	s11,bba0 <ee_printf+0x424>
    c2a8:	13010793          	addi	a5,sp,304
    c2ac:	015787b3          	add	a5,a5,s5
    c2b0:	03000713          	li	a4,48
    c2b4:	002c0c13          	addi	s8,s8,2
    c2b8:	eee78423          	sb	a4,-280(a5)
    c2bc:	003b4d83          	lbu	s11,3(s6)
    c2c0:	13010793          	addi	a5,sp,304
    c2c4:	018786b3          	add	a3,a5,s8
    c2c8:	02e00793          	li	a5,46
    c2cc:	eef68423          	sb	a5,-280(a3)
    c2d0:	001c0b13          	addi	s6,s8,1
    c2d4:	960d94e3          	bnez	s11,bc3c <ee_printf+0x4c0>
    c2d8:	13010793          	addi	a5,sp,304
    c2dc:	016787b3          	add	a5,a5,s6
    c2e0:	03000693          	li	a3,48
    c2e4:	002c0713          	addi	a4,s8,2
    c2e8:	eed78423          	sb	a3,-280(a5)
    c2ec:	9d1ff06f          	j	bcbc <ee_printf+0x540>
    c2f0:	000ba703          	lw	a4,0(s7)
    c2f4:	00264683          	lbu	a3,2(a2)
    c2f8:	004b8b93          	addi	s7,s7,4
    c2fc:	fff74793          	not	a5,a4
    c300:	41f7d793          	srai	a5,a5,0x1f
    c304:	00f77733          	and	a4,a4,a5
    c308:	00260613          	addi	a2,a2,2
    c30c:	df4ff06f          	j	b900 <ee_printf+0x184>
    c310:	040cf713          	andi	a4,s9,64
    c314:	00098793          	mv	a5,s3
    c318:	00070663          	beqz	a4,c324 <ee_printf+0xba8>
    c31c:	000107b7          	lui	a5,0x10
    c320:	73078793          	addi	a5,a5,1840 # 10730 <errpat+0x700>
    c324:	001b4883          	lbu	a7,1(s6)
    c328:	000b4703          	lbu	a4,0(s6)
    c32c:	002b4503          	lbu	a0,2(s6)
    c330:	003b4583          	lbu	a1,3(s6)
    c334:	004b4683          	lbu	a3,4(s6)
    c338:	005b4383          	lbu	t2,5(s6)
    c33c:	00475e93          	srli	t4,a4,0x4
    c340:	0048de13          	srli	t3,a7,0x4
    c344:	00f8f313          	andi	t1,a7,15
    c348:	0045d813          	srli	a6,a1,0x4
    c34c:	00455893          	srli	a7,a0,0x4
    c350:	0046dd13          	srli	s10,a3,0x4
    c354:	00f77713          	andi	a4,a4,15
    c358:	00f57513          	andi	a0,a0,15
    c35c:	00f5f593          	andi	a1,a1,15
    c360:	00f6f693          	andi	a3,a3,15
    c364:	01d78eb3          	add	t4,a5,t4
    c368:	00e78733          	add	a4,a5,a4
    c36c:	01c78e33          	add	t3,a5,t3
    c370:	00678333          	add	t1,a5,t1
    c374:	011788b3          	add	a7,a5,a7
    c378:	00a78533          	add	a0,a5,a0
    c37c:	01078833          	add	a6,a5,a6
    c380:	00b785b3          	add	a1,a5,a1
    c384:	00d786b3          	add	a3,a5,a3
    c388:	0043dc13          	srli	s8,t2,0x4
    c38c:	01a78d33          	add	s10,a5,s10
    c390:	000ec283          	lbu	t0,0(t4) # ffff8000 <stack_top+0xfffd8000>
    c394:	00074f83          	lbu	t6,0(a4)
    c398:	000e4f03          	lbu	t5,0(t3)
    c39c:	01878733          	add	a4,a5,s8
    c3a0:	00034e83          	lbu	t4,0(t1)
    c3a4:	0008ce03          	lbu	t3,0(a7)
    c3a8:	00054303          	lbu	t1,0(a0)
    c3ac:	00084883          	lbu	a7,0(a6)
    c3b0:	000d4503          	lbu	a0,0(s10)
    c3b4:	0005c803          	lbu	a6,0(a1)
    c3b8:	0006c583          	lbu	a1,0(a3)
    c3bc:	00074683          	lbu	a3,0(a4)
    c3c0:	00f3f393          	andi	t2,t2,15
    c3c4:	03a00713          	li	a4,58
    c3c8:	00e10d23          	sb	a4,26(sp)
    c3cc:	00e10ea3          	sb	a4,29(sp)
    c3d0:	02e10023          	sb	a4,32(sp)
    c3d4:	02e101a3          	sb	a4,35(sp)
    c3d8:	02e10323          	sb	a4,38(sp)
    c3dc:	00510c23          	sb	t0,24(sp)
    c3e0:	01f10ca3          	sb	t6,25(sp)
    c3e4:	01e10da3          	sb	t5,27(sp)
    c3e8:	01d10e23          	sb	t4,28(sp)
    c3ec:	01c10f23          	sb	t3,30(sp)
    c3f0:	00610fa3          	sb	t1,31(sp)
    c3f4:	031100a3          	sb	a7,33(sp)
    c3f8:	03010123          	sb	a6,34(sp)
    c3fc:	02a10223          	sb	a0,36(sp)
    c400:	02b102a3          	sb	a1,37(sp)
    c404:	007787b3          	add	a5,a5,t2
    c408:	010cfc93          	andi	s9,s9,16
    c40c:	02d103a3          	sb	a3,39(sp)
    c410:	fff48713          	addi	a4,s1,-1
    c414:	0007cc03          	lbu	s8,0(a5)
    c418:	0e0c9463          	bnez	s9,c500 <ee_printf+0xd84>
    c41c:	01100793          	li	a5,17
    c420:	7297d263          	bge	a5,s1,cb44 <ee_printf+0x13c8>
    c424:	408007b3          	neg	a5,s0
    c428:	fee48393          	addi	t2,s1,-18
    c42c:	00500d13          	li	s10,5
    c430:	fef48c93          	addi	s9,s1,-17
    c434:	0037f793          	andi	a5,a5,3
    c438:	707d7263          	bgeu	s10,t2,cb3c <ee_printf+0x13c0>
    c43c:	00040393          	mv	t2,s0
    c440:	02078e63          	beqz	a5,c47c <ee_printf+0xd00>
    c444:	02000d13          	li	s10,32
    c448:	01a40023          	sb	s10,0(s0)
    c44c:	00100d93          	li	s11,1
    c450:	00140393          	addi	t2,s0,1
    c454:	ffe48713          	addi	a4,s1,-2
    c458:	03b78263          	beq	a5,s11,c47c <ee_printf+0xd00>
    c45c:	01a400a3          	sb	s10,1(s0)
    c460:	00300d93          	li	s11,3
    c464:	00240393          	addi	t2,s0,2
    c468:	ffd48713          	addi	a4,s1,-3
    c46c:	01b79863          	bne	a5,s11,c47c <ee_printf+0xd00>
    c470:	00340393          	addi	t2,s0,3
    c474:	01a40123          	sb	s10,2(s0)
    c478:	ffc48713          	addi	a4,s1,-4
    c47c:	40fc84b3          	sub	s1,s9,a5
    c480:	ffc4fd93          	andi	s11,s1,-4
    c484:	00f407b3          	add	a5,s0,a5
    c488:	20202d37          	lui	s10,0x20202
    c48c:	00fd8db3          	add	s11,s11,a5
    c490:	020d0d13          	addi	s10,s10,32 # 20202020 <stack_top+0x201e2020>
    c494:	01a7a023          	sw	s10,0(a5)
    c498:	00478793          	addi	a5,a5,4
    c49c:	fefd9ce3          	bne	s11,a5,c494 <ee_printf+0xd18>
    c4a0:	ffc4fd13          	andi	s10,s1,-4
    c4a4:	01a387b3          	add	a5,t2,s10
    c4a8:	41a70733          	sub	a4,a4,s10
    c4ac:	049d0463          	beq	s10,s1,c4f4 <ee_printf+0xd78>
    c4b0:	02000393          	li	t2,32
    c4b4:	00778023          	sb	t2,0(a5)
    c4b8:	01100493          	li	s1,17
    c4bc:	02e4dc63          	bge	s1,a4,c4f4 <ee_printf+0xd78>
    c4c0:	007780a3          	sb	t2,1(a5)
    c4c4:	01200493          	li	s1,18
    c4c8:	02e4d663          	bge	s1,a4,c4f4 <ee_printf+0xd78>
    c4cc:	00778123          	sb	t2,2(a5)
    c4d0:	01300493          	li	s1,19
    c4d4:	02e4d063          	bge	s1,a4,c4f4 <ee_printf+0xd78>
    c4d8:	007781a3          	sb	t2,3(a5)
    c4dc:	01400493          	li	s1,20
    c4e0:	00e4da63          	bge	s1,a4,c4f4 <ee_printf+0xd78>
    c4e4:	00778223          	sb	t2,4(a5)
    c4e8:	01500493          	li	s1,21
    c4ec:	00e4d463          	bge	s1,a4,c4f4 <ee_printf+0xd78>
    c4f0:	007782a3          	sb	t2,5(a5)
    c4f4:	01940433          	add	s0,s0,s9
    c4f8:	00f00713          	li	a4,15
    c4fc:	01000493          	li	s1,16
    c500:	00347793          	andi	a5,s0,3
    c504:	5a079063          	bnez	a5,caa4 <ee_printf+0x1328>
    c508:	01c12783          	lw	a5,28(sp)
    c50c:	01840823          	sb	s8,16(s0)
    c510:	00f42223          	sw	a5,4(s0)
    c514:	02012783          	lw	a5,32(sp)
    c518:	00f42423          	sw	a5,8(s0)
    c51c:	01812783          	lw	a5,24(sp)
    c520:	00f42023          	sw	a5,0(s0)
    c524:	02412783          	lw	a5,36(sp)
    c528:	00f42623          	sw	a5,12(s0)
    c52c:	01100793          	li	a5,17
    c530:	01140593          	addi	a1,s0,17
    c534:	5697d463          	bge	a5,s1,ca9c <ee_printf+0x1320>
    c538:	01000793          	li	a5,16
    c53c:	00100893          	li	a7,1
    c540:	00e7d463          	bge	a5,a4,c548 <ee_printf+0xdcc>
    c544:	ff070893          	addi	a7,a4,-16
    c548:	40b007b3          	neg	a5,a1
    c54c:	01600693          	li	a3,22
    c550:	0037f793          	andi	a5,a5,3
    c554:	54e6d063          	bge	a3,a4,ca94 <ee_printf+0x1318>
    c558:	00058693          	mv	a3,a1
    c55c:	04078063          	beqz	a5,c59c <ee_printf+0xe20>
    c560:	02000813          	li	a6,32
    c564:	010408a3          	sb	a6,17(s0)
    c568:	00100313          	li	t1,1
    c56c:	01240693          	addi	a3,s0,18
    c570:	fff70513          	addi	a0,a4,-1
    c574:	02678263          	beq	a5,t1,c598 <ee_printf+0xe1c>
    c578:	01040923          	sb	a6,18(s0)
    c57c:	00300313          	li	t1,3
    c580:	01340693          	addi	a3,s0,19
    c584:	ffe70513          	addi	a0,a4,-2
    c588:	00679863          	bne	a5,t1,c598 <ee_printf+0xe1c>
    c58c:	01440693          	addi	a3,s0,20
    c590:	010409a3          	sb	a6,19(s0)
    c594:	ffd70513          	addi	a0,a4,-3
    c598:	00050713          	mv	a4,a0
    c59c:	40f88533          	sub	a0,a7,a5
    c5a0:	01178793          	addi	a5,a5,17
    c5a4:	00f40433          	add	s0,s0,a5
    c5a8:	ffc57813          	andi	a6,a0,-4
    c5ac:	202027b7          	lui	a5,0x20202
    c5b0:	00880833          	add	a6,a6,s0
    c5b4:	02078793          	addi	a5,a5,32 # 20202020 <stack_top+0x201e2020>
    c5b8:	00f42023          	sw	a5,0(s0)
    c5bc:	00440413          	addi	s0,s0,4
    c5c0:	ff041ce3          	bne	s0,a6,c5b8 <ee_printf+0xe3c>
    c5c4:	ffc57813          	andi	a6,a0,-4
    c5c8:	010687b3          	add	a5,a3,a6
    c5cc:	41070733          	sub	a4,a4,a6
    c5d0:	04a80463          	beq	a6,a0,c618 <ee_printf+0xe9c>
    c5d4:	02000693          	li	a3,32
    c5d8:	00d78023          	sb	a3,0(a5)
    c5dc:	01100513          	li	a0,17
    c5e0:	02e55c63          	bge	a0,a4,c618 <ee_printf+0xe9c>
    c5e4:	00d780a3          	sb	a3,1(a5)
    c5e8:	01200513          	li	a0,18
    c5ec:	02e55663          	bge	a0,a4,c618 <ee_printf+0xe9c>
    c5f0:	00d78123          	sb	a3,2(a5)
    c5f4:	01300513          	li	a0,19
    c5f8:	02e55063          	bge	a0,a4,c618 <ee_printf+0xe9c>
    c5fc:	00d781a3          	sb	a3,3(a5)
    c600:	01400513          	li	a0,20
    c604:	00e55a63          	bge	a0,a4,c618 <ee_printf+0xe9c>
    c608:	00d78223          	sb	a3,4(a5)
    c60c:	01500513          	li	a0,21
    c610:	00e55463          	bge	a0,a4,c618 <ee_printf+0xe9c>
    c614:	00d782a3          	sb	a3,5(a5)
    c618:	01158433          	add	s0,a1,a7
    c61c:	00264783          	lbu	a5,2(a2)
    c620:	00260513          	addi	a0,a2,2
    c624:	9e079063          	bnez	a5,b804 <ee_printf+0x88>
    c628:	9f8ff06f          	j	b820 <ee_printf+0xa4>
    c62c:	002cec93          	ori	s9,s9,2
    c630:	00a00613          	li	a2,10
    c634:	004b8793          	addi	a5,s7,4
    c638:	000ba583          	lw	a1,0(s7)
    c63c:	00040513          	mv	a0,s0
    c640:	00078b93          	mv	s7,a5
    c644:	00048693          	mv	a3,s1
    c648:	000c8793          	mv	a5,s9
    c64c:	acdfe0ef          	jal	ra,b118 <number>
    c650:	001d4783          	lbu	a5,1(s10)
    c654:	00050413          	mv	s0,a0
    c658:	001d0513          	addi	a0,s10,1
    c65c:	9a079463          	bnez	a5,b804 <ee_printf+0x88>
    c660:	9c0ff06f          	j	b820 <ee_printf+0xa4>
    c664:	fff48513          	addi	a0,s1,-1
    c668:	5697d263          	bge	a5,s1,cbcc <ee_printf+0x1450>
    c66c:	40f48833          	sub	a6,s1,a5
    c670:	40800733          	neg	a4,s0
    c674:	fff80593          	addi	a1,a6,-1
    c678:	00500613          	li	a2,5
    c67c:	00377713          	andi	a4,a4,3
    c680:	48b67063          	bgeu	a2,a1,cb00 <ee_printf+0x1384>
    c684:	54070863          	beqz	a4,cbd4 <ee_printf+0x1458>
    c688:	02000893          	li	a7,32
    c68c:	01140023          	sb	a7,0(s0)
    c690:	00100313          	li	t1,1
    c694:	00140593          	addi	a1,s0,1
    c698:	ffe48613          	addi	a2,s1,-2
    c69c:	02670263          	beq	a4,t1,c6c0 <ee_printf+0xf44>
    c6a0:	011400a3          	sb	a7,1(s0)
    c6a4:	00300313          	li	t1,3
    c6a8:	00240593          	addi	a1,s0,2
    c6ac:	ffd48613          	addi	a2,s1,-3
    c6b0:	00671863          	bne	a4,t1,c6c0 <ee_printf+0xf44>
    c6b4:	00340593          	addi	a1,s0,3
    c6b8:	01140123          	sb	a7,2(s0)
    c6bc:	ffc48613          	addi	a2,s1,-4
    c6c0:	40e80333          	sub	t1,a6,a4
    c6c4:	ffc37e13          	andi	t3,t1,-4
    c6c8:	00e40733          	add	a4,s0,a4
    c6cc:	202028b7          	lui	a7,0x20202
    c6d0:	00ee0e33          	add	t3,t3,a4
    c6d4:	02088893          	addi	a7,a7,32 # 20202020 <stack_top+0x201e2020>
    c6d8:	01172023          	sw	a7,0(a4)
    c6dc:	00470713          	addi	a4,a4,4
    c6e0:	feee1ce3          	bne	t3,a4,c6d8 <ee_printf+0xf5c>
    c6e4:	ffc37893          	andi	a7,t1,-4
    c6e8:	011585b3          	add	a1,a1,a7
    c6ec:	41160733          	sub	a4,a2,a7
    c6f0:	05130263          	beq	t1,a7,c734 <ee_printf+0xfb8>
    c6f4:	02000613          	li	a2,32
    c6f8:	00c58023          	sb	a2,0(a1)
    c6fc:	fff70893          	addi	a7,a4,-1
    c700:	02e7da63          	bge	a5,a4,c734 <ee_printf+0xfb8>
    c704:	00c580a3          	sb	a2,1(a1)
    c708:	ffe70313          	addi	t1,a4,-2
    c70c:	0317d463          	bge	a5,a7,c734 <ee_printf+0xfb8>
    c710:	00c58123          	sb	a2,2(a1)
    c714:	ffd70893          	addi	a7,a4,-3
    c718:	0067de63          	bge	a5,t1,c734 <ee_printf+0xfb8>
    c71c:	00c581a3          	sb	a2,3(a1)
    c720:	ffc70713          	addi	a4,a4,-4
    c724:	0117d863          	bge	a5,a7,c734 <ee_printf+0xfb8>
    c728:	00c58223          	sb	a2,4(a1)
    c72c:	00e7d463          	bge	a5,a4,c734 <ee_printf+0xfb8>
    c730:	00c582a3          	sb	a2,5(a1)
    c734:	409784b3          	sub	s1,a5,s1
    c738:	01040433          	add	s0,s0,a6
    c73c:	00a484b3          	add	s1,s1,a0
    c740:	921ff06f          	j	c060 <ee_printf+0x8e4>
    c744:	00240793          	addi	a5,s0,2
    c748:	00070413          	mv	s0,a4
    c74c:	00078713          	mv	a4,a5
    c750:	00b40023          	sb	a1,0(s0)
    c754:	001d4783          	lbu	a5,1(s10)
    c758:	001d0513          	addi	a0,s10,1
    c75c:	00070413          	mv	s0,a4
    c760:	8a079263          	bnez	a5,b804 <ee_printf+0x88>
    c764:	8bcff06f          	j	b820 <ee_printf+0xa4>
    c768:	001cec93          	ori	s9,s9,1
    c76c:	00800493          	li	s1,8
    c770:	a79ff06f          	j	c1e8 <ee_printf+0xa6c>
    c774:	38e05c63          	blez	a4,cb0c <ee_printf+0x1390>
    c778:	408007b3          	neg	a5,s0
    c77c:	ffe48593          	addi	a1,s1,-2
    c780:	00500693          	li	a3,5
    c784:	00070613          	mv	a2,a4
    c788:	0037f793          	andi	a5,a5,3
    c78c:	42b6fc63          	bgeu	a3,a1,cbc4 <ee_printf+0x1448>
    c790:	00040693          	mv	a3,s0
    c794:	02078e63          	beqz	a5,c7d0 <ee_printf+0x1054>
    c798:	02000713          	li	a4,32
    c79c:	00e40023          	sb	a4,0(s0)
    c7a0:	00100513          	li	a0,1
    c7a4:	00140693          	addi	a3,s0,1
    c7a8:	02a78263          	beq	a5,a0,c7cc <ee_printf+0x1050>
    c7ac:	00e400a3          	sb	a4,1(s0)
    c7b0:	00300513          	li	a0,3
    c7b4:	00240693          	addi	a3,s0,2
    c7b8:	ffd48593          	addi	a1,s1,-3
    c7bc:	00a79863          	bne	a5,a0,c7cc <ee_printf+0x1050>
    c7c0:	00340693          	addi	a3,s0,3
    c7c4:	00e40123          	sb	a4,2(s0)
    c7c8:	ffc48593          	addi	a1,s1,-4
    c7cc:	00058713          	mv	a4,a1
    c7d0:	40f60533          	sub	a0,a2,a5
    c7d4:	ffc57813          	andi	a6,a0,-4
    c7d8:	00f407b3          	add	a5,s0,a5
    c7dc:	202025b7          	lui	a1,0x20202
    c7e0:	00f80833          	add	a6,a6,a5
    c7e4:	02058593          	addi	a1,a1,32 # 20202020 <stack_top+0x201e2020>
    c7e8:	00b7a023          	sw	a1,0(a5)
    c7ec:	00478793          	addi	a5,a5,4
    c7f0:	fef81ce3          	bne	a6,a5,c7e8 <ee_printf+0x106c>
    c7f4:	ffc57593          	andi	a1,a0,-4
    c7f8:	00b687b3          	add	a5,a3,a1
    c7fc:	40b70733          	sub	a4,a4,a1
    c800:	04b50463          	beq	a0,a1,c848 <ee_printf+0x10cc>
    c804:	02000693          	li	a3,32
    c808:	00d78023          	sb	a3,0(a5)
    c80c:	fff70593          	addi	a1,a4,-1
    c810:	02b05c63          	blez	a1,c848 <ee_printf+0x10cc>
    c814:	00d780a3          	sb	a3,1(a5)
    c818:	ffe70593          	addi	a1,a4,-2
    c81c:	02058663          	beqz	a1,c848 <ee_printf+0x10cc>
    c820:	00d78123          	sb	a3,2(a5)
    c824:	ffd70593          	addi	a1,a4,-3
    c828:	02058063          	beqz	a1,c848 <ee_printf+0x10cc>
    c82c:	00d781a3          	sb	a3,3(a5)
    c830:	ffc70593          	addi	a1,a4,-4
    c834:	00058a63          	beqz	a1,c848 <ee_printf+0x10cc>
    c838:	00d78223          	sb	a3,4(a5)
    c83c:	00500593          	li	a1,5
    c840:	00b70463          	beq	a4,a1,c848 <ee_printf+0x10cc>
    c844:	00d782a3          	sb	a3,5(a5)
    c848:	000ba703          	lw	a4,0(s7)
    c84c:	00c407b3          	add	a5,s0,a2
    c850:	004b8b93          	addi	s7,s7,4
    c854:	00940633          	add	a2,s0,s1
    c858:	00e78023          	sb	a4,0(a5)
    c85c:	001d0513          	addi	a0,s10,1
    c860:	001d4783          	lbu	a5,1(s10)
    c864:	00060413          	mv	s0,a2
    c868:	00078463          	beqz	a5,c870 <ee_printf+0x10f4>
    c86c:	f99fe06f          	j	b804 <ee_printf+0x88>
    c870:	fb1fe06f          	j	b820 <ee_printf+0xa4>
    c874:	000107b7          	lui	a5,0x10
    c878:	75878693          	addi	a3,a5,1880 # 10758 <errpat+0x728>
    c87c:	fb8ff06f          	j	c034 <ee_printf+0x8b8>
    c880:	040cec93          	ori	s9,s9,64
    c884:	01000613          	li	a2,16
    c888:	dadff06f          	j	c634 <ee_printf+0xeb8>
    c88c:	00800613          	li	a2,8
    c890:	da5ff06f          	j	c634 <ee_printf+0xeb8>
    c894:	00900713          	li	a4,9
    c898:	ad575a63          	bge	a4,s5,bb6c <ee_printf+0x3f0>
    c89c:	00a00593          	li	a1,10
    c8a0:	000a8513          	mv	a0,s5
    c8a4:	3d0000ef          	jal	ra,cc74 <__divsi3>
    c8a8:	00a98733          	add	a4,s3,a0
    c8ac:	00074703          	lbu	a4,0(a4)
    c8b0:	13010793          	addi	a5,sp,304
    c8b4:	01b78db3          	add	s11,a5,s11
    c8b8:	000a8513          	mv	a0,s5
    c8bc:	eeed8423          	sb	a4,-280(s11)
    c8c0:	00a00593          	li	a1,10
    c8c4:	002c0c13          	addi	s8,s8,2
    c8c8:	430000ef          	jal	ra,ccf8 <__modsi3>
    c8cc:	00050a93          	mv	s5,a0
    c8d0:	000c0d93          	mv	s11,s8
    c8d4:	a98ff06f          	j	bb6c <ee_printf+0x3f0>
    c8d8:	00900713          	li	a4,9
    c8dc:	2d575c63          	bge	a4,s5,cbb4 <ee_printf+0x1438>
    c8e0:	00a00593          	li	a1,10
    c8e4:	000a8513          	mv	a0,s5
    c8e8:	38c000ef          	jal	ra,cc74 <__divsi3>
    c8ec:	00a98733          	add	a4,s3,a0
    c8f0:	00074703          	lbu	a4,0(a4)
    c8f4:	000a8513          	mv	a0,s5
    c8f8:	00a00593          	li	a1,10
    c8fc:	00e10c23          	sb	a4,24(sp)
    c900:	3f8000ef          	jal	ra,ccf8 <__modsi3>
    c904:	00050a93          	mv	s5,a0
    c908:	00300d93          	li	s11,3
    c90c:	00200c13          	li	s8,2
    c910:	00100713          	li	a4,1
    c914:	9c4ff06f          	j	bad8 <ee_printf+0x35c>
    c918:	000bab03          	lw	s6,0(s7)
    c91c:	00060d13          	mv	s10,a2
    c920:	004b8b93          	addi	s7,s7,4
    c924:	944ff06f          	j	ba68 <ee_printf+0x2ec>
    c928:	00078513          	mv	a0,a5
    c92c:	00058613          	mv	a2,a1
    c930:	d5cff06f          	j	be8c <ee_printf+0x710>
    c934:	01814683          	lbu	a3,24(sp)
    c938:	00d40023          	sb	a3,0(s0)
    c93c:	01914683          	lbu	a3,25(sp)
    c940:	00d400a3          	sb	a3,1(s0)
    c944:	01a14683          	lbu	a3,26(sp)
    c948:	00d40123          	sb	a3,2(s0)
    c94c:	01b14683          	lbu	a3,27(sp)
    c950:	00d401a3          	sb	a3,3(s0)
    c954:	01c14683          	lbu	a3,28(sp)
    c958:	00d40223          	sb	a3,4(s0)
    c95c:	01d14683          	lbu	a3,29(sp)
    c960:	00d402a3          	sb	a3,5(s0)
    c964:	01e14683          	lbu	a3,30(sp)
    c968:	00d40323          	sb	a3,6(s0)
    c96c:	00700693          	li	a3,7
    c970:	cad70a63          	beq	a4,a3,be24 <ee_printf+0x6a8>
    c974:	01f14603          	lbu	a2,31(sp)
    c978:	00800693          	li	a3,8
    c97c:	00c403a3          	sb	a2,7(s0)
    c980:	cad70263          	beq	a4,a3,be24 <ee_printf+0x6a8>
    c984:	02014603          	lbu	a2,32(sp)
    c988:	00900693          	li	a3,9
    c98c:	00c40423          	sb	a2,8(s0)
    c990:	c8d70a63          	beq	a4,a3,be24 <ee_printf+0x6a8>
    c994:	02114603          	lbu	a2,33(sp)
    c998:	00a00693          	li	a3,10
    c99c:	00c404a3          	sb	a2,9(s0)
    c9a0:	c8d70263          	beq	a4,a3,be24 <ee_printf+0x6a8>
    c9a4:	02214603          	lbu	a2,34(sp)
    c9a8:	00b00693          	li	a3,11
    c9ac:	00c40523          	sb	a2,10(s0)
    c9b0:	c6d70a63          	beq	a4,a3,be24 <ee_printf+0x6a8>
    c9b4:	02314603          	lbu	a2,35(sp)
    c9b8:	00c00693          	li	a3,12
    c9bc:	00c405a3          	sb	a2,11(s0)
    c9c0:	c6d70263          	beq	a4,a3,be24 <ee_printf+0x6a8>
    c9c4:	02414603          	lbu	a2,36(sp)
    c9c8:	00d00693          	li	a3,13
    c9cc:	00c40623          	sb	a2,12(s0)
    c9d0:	c4d70a63          	beq	a4,a3,be24 <ee_printf+0x6a8>
    c9d4:	02514603          	lbu	a2,37(sp)
    c9d8:	00f00693          	li	a3,15
    c9dc:	00c406a3          	sb	a2,13(s0)
    c9e0:	c4d71263          	bne	a4,a3,be24 <ee_printf+0x6a8>
    c9e4:	02614683          	lbu	a3,38(sp)
    c9e8:	00d40723          	sb	a3,14(s0)
    c9ec:	c38ff06f          	j	be24 <ee_printf+0x6a8>
    c9f0:	00900693          	li	a3,9
    c9f4:	a1b6da63          	bge	a3,s11,bc08 <ee_printf+0x48c>
    c9f8:	00a00593          	li	a1,10
    c9fc:	000d8513          	mv	a0,s11
    ca00:	274000ef          	jal	ra,cc74 <__divsi3>
    ca04:	00a986b3          	add	a3,s3,a0
    ca08:	0006c683          	lbu	a3,0(a3)
    ca0c:	13010793          	addi	a5,sp,304
    ca10:	015787b3          	add	a5,a5,s5
    ca14:	000d8513          	mv	a0,s11
    ca18:	00a00593          	li	a1,10
    ca1c:	eed78423          	sb	a3,-280(a5)
    ca20:	002c0c13          	addi	s8,s8,2
    ca24:	2d4000ef          	jal	ra,ccf8 <__modsi3>
    ca28:	00050d93          	mv	s11,a0
    ca2c:	000c0a93          	mv	s5,s8
    ca30:	9d8ff06f          	j	bc08 <ee_printf+0x48c>
    ca34:	00900713          	li	a4,9
    ca38:	a7b75663          	bge	a4,s11,bca4 <ee_printf+0x528>
    ca3c:	00a00593          	li	a1,10
    ca40:	000d8513          	mv	a0,s11
    ca44:	230000ef          	jal	ra,cc74 <__divsi3>
    ca48:	00a98733          	add	a4,s3,a0
    ca4c:	00074703          	lbu	a4,0(a4)
    ca50:	13010793          	addi	a5,sp,304
    ca54:	016787b3          	add	a5,a5,s6
    ca58:	000d8513          	mv	a0,s11
    ca5c:	00a00593          	li	a1,10
    ca60:	eee78423          	sb	a4,-280(a5)
    ca64:	002c0c13          	addi	s8,s8,2
    ca68:	290000ef          	jal	ra,ccf8 <__modsi3>
    ca6c:	00050d93          	mv	s11,a0
    ca70:	000c0b13          	mv	s6,s8
    ca74:	a30ff06f          	j	bca4 <ee_printf+0x528>
    ca78:	00070593          	mv	a1,a4
    ca7c:	00060693          	mv	a3,a2
    ca80:	d10ff06f          	j	bf90 <ee_printf+0x814>
    ca84:	ffe48693          	addi	a3,s1,-2
    ca88:	00078493          	mv	s1,a5
    ca8c:	00068793          	mv	a5,a3
    ca90:	b14ff06f          	j	bda4 <ee_printf+0x628>
    ca94:	00058793          	mv	a5,a1
    ca98:	b3dff06f          	j	c5d4 <ee_printf+0xe58>
    ca9c:	00058413          	mv	s0,a1
    caa0:	b7dff06f          	j	c61c <ee_printf+0xea0>
    caa4:	03a00793          	li	a5,58
    caa8:	00540023          	sb	t0,0(s0)
    caac:	01f400a3          	sb	t6,1(s0)
    cab0:	00f40123          	sb	a5,2(s0)
    cab4:	01e401a3          	sb	t5,3(s0)
    cab8:	01d40223          	sb	t4,4(s0)
    cabc:	00f402a3          	sb	a5,5(s0)
    cac0:	01c40323          	sb	t3,6(s0)
    cac4:	006403a3          	sb	t1,7(s0)
    cac8:	00f40423          	sb	a5,8(s0)
    cacc:	011404a3          	sb	a7,9(s0)
    cad0:	01040523          	sb	a6,10(s0)
    cad4:	00f405a3          	sb	a5,11(s0)
    cad8:	00a40623          	sb	a0,12(s0)
    cadc:	00b406a3          	sb	a1,13(s0)
    cae0:	00f40723          	sb	a5,14(s0)
    cae4:	00d407a3          	sb	a3,15(s0)
    cae8:	01840823          	sb	s8,16(s0)
    caec:	a41ff06f          	j	c52c <ee_printf+0xdb0>
    caf0:	00058693          	mv	a3,a1
    caf4:	bd0ff06f          	j	bec4 <ee_printf+0x748>
    caf8:	00058413          	mv	s0,a1
    cafc:	c0cff06f          	j	bf08 <ee_printf+0x78c>
    cb00:	00050713          	mv	a4,a0
    cb04:	00040593          	mv	a1,s0
    cb08:	bedff06f          	j	c6f4 <ee_printf+0xf78>
    cb0c:	000ba783          	lw	a5,0(s7)
    cb10:	00140613          	addi	a2,s0,1
    cb14:	004b8b93          	addi	s7,s7,4
    cb18:	00f40023          	sb	a5,0(s0)
    cb1c:	001d0513          	addi	a0,s10,1
    cb20:	d41ff06f          	j	c860 <ee_printf+0x10e4>
    cb24:	00078613          	mv	a2,a5
    cb28:	00040593          	mv	a1,s0
    cb2c:	9f4ff06f          	j	bd20 <ee_printf+0x5a4>
    cb30:	00078693          	mv	a3,a5
    cb34:	00040593          	mv	a1,s0
    cb38:	a1cff06f          	j	bd54 <ee_printf+0x5d8>
    cb3c:	00040793          	mv	a5,s0
    cb40:	971ff06f          	j	c4b0 <ee_printf+0xd34>
    cb44:	ffe48793          	addi	a5,s1,-2
    cb48:	00070493          	mv	s1,a4
    cb4c:	00078713          	mv	a4,a5
    cb50:	9b1ff06f          	j	c500 <ee_printf+0xd84>
    cb54:	00060793          	mv	a5,a2
    cb58:	c70ff06f          	j	bfc8 <ee_printf+0x84c>
    cb5c:	010cf793          	andi	a5,s9,16
    cb60:	b00782e3          	beqz	a5,c664 <ee_printf+0xee8>
    cb64:	00000793          	li	a5,0
    cb68:	d8cff06f          	j	c0f4 <ee_printf+0x978>
    cb6c:	00060d13          	mv	s10,a2
    cb70:	040cec93          	ori	s9,s9,64
    cb74:	004b8793          	addi	a5,s7,4
    cb78:	01000613          	li	a2,16
    cb7c:	abdff06f          	j	c638 <ee_printf+0xebc>
    cb80:	000bab03          	lw	s6,0(s7)
    cb84:	040cec93          	ori	s9,s9,64
    cb88:	004b8b93          	addi	s7,s7,4
    cb8c:	00060d13          	mv	s10,a2
    cb90:	ed9fe06f          	j	ba68 <ee_printf+0x2ec>
    cb94:	01000613          	li	a2,16
    cb98:	a9dff06f          	j	c634 <ee_printf+0xeb8>
    cb9c:	00a00613          	li	a2,10
    cba0:	a95ff06f          	j	c634 <ee_printf+0xeb8>
    cba4:	00060d13          	mv	s10,a2
    cba8:	004b8793          	addi	a5,s7,4
    cbac:	01000613          	li	a2,16
    cbb0:	a89ff06f          	j	c638 <ee_printf+0xebc>
    cbb4:	00200d93          	li	s11,2
    cbb8:	00100c13          	li	s8,1
    cbbc:	00000713          	li	a4,0
    cbc0:	f19fe06f          	j	bad8 <ee_printf+0x35c>
    cbc4:	00040793          	mv	a5,s0
    cbc8:	c3dff06f          	j	c804 <ee_printf+0x1088>
    cbcc:	00050493          	mv	s1,a0
    cbd0:	c90ff06f          	j	c060 <ee_printf+0x8e4>
    cbd4:	00050613          	mv	a2,a0
    cbd8:	00040593          	mv	a1,s0
    cbdc:	ae5ff06f          	j	c6c0 <ee_printf+0xf44>
    cbe0:	00f686b3          	add	a3,a3,a5
    cbe4:	00040713          	mv	a4,s0
    cbe8:	0080006f          	j	cbf0 <ee_printf+0x1474>
    cbec:	00160613          	addi	a2,a2,1
    cbf0:	fff64583          	lbu	a1,-1(a2)
    cbf4:	00170713          	addi	a4,a4,1
    cbf8:	feb70fa3          	sb	a1,-1(a4)
    cbfc:	fed618e3          	bne	a2,a3,cbec <ee_printf+0x1470>
    cc00:	cf0ff06f          	j	c0f0 <ee_printf+0x974>
    cc04:	00040713          	mv	a4,s0
    cc08:	d84ff06f          	j	c18c <ee_printf+0xa10>
    cc0c:	001d4783          	lbu	a5,1(s10)
    cc10:	00078463          	beqz	a5,cc18 <ee_printf+0x149c>
    cc14:	bf1fe06f          	j	b804 <ee_printf+0x88>
    cc18:	c09fe06f          	j	b820 <ee_printf+0xa4>
    cc1c:	00060d13          	mv	s10,a2
    cc20:	004b8793          	addi	a5,s7,4
    cc24:	00a00613          	li	a2,10
    cc28:	a11ff06f          	j	c638 <ee_printf+0xebc>
    cc2c:	00060d13          	mv	s10,a2
    cc30:	004b8793          	addi	a5,s7,4
    cc34:	00800613          	li	a2,8
    cc38:	a01ff06f          	j	c638 <ee_printf+0xebc>
    cc3c:	00060d13          	mv	s10,a2
    cc40:	002cec93          	ori	s9,s9,2
    cc44:	004b8793          	addi	a5,s7,4
    cc48:	00a00613          	li	a2,10
    cc4c:	9edff06f          	j	c638 <ee_printf+0xebc>

0000cc50 <__mulsi3>:
    cc50:	00050613          	mv	a2,a0
    cc54:	00000513          	li	a0,0
    cc58:	0015f693          	andi	a3,a1,1
    cc5c:	00068463          	beqz	a3,cc64 <__mulsi3+0x14>
    cc60:	00c50533          	add	a0,a0,a2
    cc64:	0015d593          	srli	a1,a1,0x1
    cc68:	00161613          	slli	a2,a2,0x1
    cc6c:	fe0596e3          	bnez	a1,cc58 <__mulsi3+0x8>
    cc70:	00008067          	ret

0000cc74 <__divsi3>:
    cc74:	06054063          	bltz	a0,ccd4 <__umodsi3+0x10>
    cc78:	0605c663          	bltz	a1,cce4 <__umodsi3+0x20>

0000cc7c <__udivsi3>:
    cc7c:	00058613          	mv	a2,a1
    cc80:	00050593          	mv	a1,a0
    cc84:	fff00513          	li	a0,-1
    cc88:	02060c63          	beqz	a2,ccc0 <__udivsi3+0x44>
    cc8c:	00100693          	li	a3,1
    cc90:	00b67a63          	bgeu	a2,a1,cca4 <__udivsi3+0x28>
    cc94:	00c05863          	blez	a2,cca4 <__udivsi3+0x28>
    cc98:	00161613          	slli	a2,a2,0x1
    cc9c:	00169693          	slli	a3,a3,0x1
    cca0:	feb66ae3          	bltu	a2,a1,cc94 <__udivsi3+0x18>
    cca4:	00000513          	li	a0,0
    cca8:	00c5e663          	bltu	a1,a2,ccb4 <__udivsi3+0x38>
    ccac:	40c585b3          	sub	a1,a1,a2
    ccb0:	00d56533          	or	a0,a0,a3
    ccb4:	0016d693          	srli	a3,a3,0x1
    ccb8:	00165613          	srli	a2,a2,0x1
    ccbc:	fe0696e3          	bnez	a3,cca8 <__udivsi3+0x2c>
    ccc0:	00008067          	ret

0000ccc4 <__umodsi3>:
    ccc4:	00008293          	mv	t0,ra
    ccc8:	fb5ff0ef          	jal	ra,cc7c <__udivsi3>
    cccc:	00058513          	mv	a0,a1
    ccd0:	00028067          	jr	t0
    ccd4:	40a00533          	neg	a0,a0
    ccd8:	00b04863          	bgtz	a1,cce8 <__umodsi3+0x24>
    ccdc:	40b005b3          	neg	a1,a1
    cce0:	f9dff06f          	j	cc7c <__udivsi3>
    cce4:	40b005b3          	neg	a1,a1
    cce8:	00008293          	mv	t0,ra
    ccec:	f91ff0ef          	jal	ra,cc7c <__udivsi3>
    ccf0:	40a00533          	neg	a0,a0
    ccf4:	00028067          	jr	t0

0000ccf8 <__modsi3>:
    ccf8:	00008293          	mv	t0,ra
    ccfc:	0005ca63          	bltz	a1,cd10 <__modsi3+0x18>
    cd00:	00054c63          	bltz	a0,cd18 <__modsi3+0x20>
    cd04:	f79ff0ef          	jal	ra,cc7c <__udivsi3>
    cd08:	00058513          	mv	a0,a1
    cd0c:	00028067          	jr	t0
    cd10:	40b005b3          	neg	a1,a1
    cd14:	fe0558e3          	bgez	a0,cd04 <__modsi3+0xc>
    cd18:	40a00533          	neg	a0,a0
    cd1c:	f61ff0ef          	jal	ra,cc7c <__udivsi3>
    cd20:	40b00533          	neg	a0,a1
    cd24:	00028067          	jr	t0

Disassembly of section .text.startup:

0000cd28 <main>:
    cd28:	81010113          	addi	sp,sp,-2032
    cd2c:	7e112623          	sw	ra,2028(sp)
    cd30:	7e812423          	sw	s0,2024(sp)
    cd34:	7e912223          	sw	s1,2020(sp)
    cd38:	7f212023          	sw	s2,2016(sp)
    cd3c:	7d312e23          	sw	s3,2012(sp)
    cd40:	7d412c23          	sw	s4,2008(sp)
    cd44:	7d512a23          	sw	s5,2004(sp)
    cd48:	7d612823          	sw	s6,2000(sp)
    cd4c:	7d712623          	sw	s7,1996(sp)
    cd50:	7d812423          	sw	s8,1992(sp)
    cd54:	7d912223          	sw	s9,1988(sp)
    cd58:	7da12023          	sw	s10,1984(sp)
    cd5c:	7bb12e23          	sw	s11,1980(sp)
    cd60:	00001737          	lui	a4,0x1
    cd64:	f8010113          	addi	sp,sp,-128
    cd68:	01010513          	addi	a0,sp,16
    cd6c:	fffff7b7          	lui	a5,0xfffff
    cd70:	82070693          	addi	a3,a4,-2016 # 820 <_start-0x77e0>
    cd74:	00a686b3          	add	a3,a3,a0
    cd78:	7e878613          	addi	a2,a5,2024 # fffff7e8 <stack_top+0xfffdf7e8>
    cd7c:	00c68633          	add	a2,a3,a2
    cd80:	82070693          	addi	a3,a4,-2016
    cd84:	82070713          	addi	a4,a4,-2016
    cd88:	00a686b3          	add	a3,a3,a0
    cd8c:	00a70733          	add	a4,a4,a0
    cd90:	7e478593          	addi	a1,a5,2020
    cd94:	00b685b3          	add	a1,a3,a1
    cd98:	00f707b3          	add	a5,a4,a5
    cd9c:	05e10513          	addi	a0,sp,94
    cda0:	00f12623          	sw	a5,12(sp)
    cda4:	7e07a223          	sw	zero,2020(a5)
    cda8:	b5cfe0ef          	jal	ra,b104 <portable_init>
    cdac:	00100513          	li	a0,1
    cdb0:	da0fd0ef          	jal	ra,a350 <get_seed_32>
    cdb4:	00c12703          	lw	a4,12(sp)
    cdb8:	00050793          	mv	a5,a0
    cdbc:	00200513          	li	a0,2
    cdc0:	7ef71623          	sh	a5,2028(a4)
    cdc4:	d8cfd0ef          	jal	ra,a350 <get_seed_32>
    cdc8:	00c12703          	lw	a4,12(sp)
    cdcc:	00050793          	mv	a5,a0
    cdd0:	00300513          	li	a0,3
    cdd4:	7ef71723          	sh	a5,2030(a4)
    cdd8:	d78fd0ef          	jal	ra,a350 <get_seed_32>
    cddc:	00c12703          	lw	a4,12(sp)
    cde0:	00050793          	mv	a5,a0
    cde4:	00400513          	li	a0,4
    cde8:	7ef71823          	sh	a5,2032(a4)
    cdec:	d64fd0ef          	jal	ra,a350 <get_seed_32>
    cdf0:	00050793          	mv	a5,a0
    cdf4:	00500513          	li	a0,5
    cdf8:	02f12c23          	sw	a5,56(sp)
    cdfc:	d54fd0ef          	jal	ra,a350 <get_seed_32>
    ce00:	7e050663          	beqz	a0,d5ec <main+0x8c4>
    ce04:	02a12e23          	sw	a0,60(sp)
    ce08:	00001737          	lui	a4,0x1
    ce0c:	82070713          	addi	a4,a4,-2016 # 820 <_start-0x77e0>
    ce10:	01010693          	addi	a3,sp,16
    ce14:	fffff7b7          	lui	a5,0xfffff
    ce18:	00d70733          	add	a4,a4,a3
    ce1c:	00f707b3          	add	a5,a4,a5
    ce20:	00f12623          	sw	a5,12(sp)
    ce24:	7ec7a783          	lw	a5,2028(a5) # fffff7ec <stack_top+0xfffdf7ec>
    ce28:	78079a63          	bnez	a5,d5bc <main+0x894>
    ce2c:	00c12783          	lw	a5,12(sp)
    ce30:	7f079783          	lh	a5,2032(a5)
    ce34:	04078ce3          	beqz	a5,d68c <main+0x964>
    ce38:	03c12403          	lw	s0,60(sp)
    ce3c:	00001737          	lui	a4,0x1
    ce40:	82070713          	addi	a4,a4,-2016 # 820 <_start-0x77e0>
    ce44:	01010693          	addi	a3,sp,16
    ce48:	00d70733          	add	a4,a4,a3
    ce4c:	fffff7b7          	lui	a5,0xfffff
    ce50:	00247493          	andi	s1,s0,2
    ce54:	00f707b3          	add	a5,a4,a5
    ce58:	00147a93          	andi	s5,s0,1
    ce5c:	00903933          	snez	s2,s1
    ce60:	06010713          	addi	a4,sp,96
    ce64:	012a8933          	add	s2,s5,s2
    ce68:	00f12623          	sw	a5,12(sp)
    ce6c:	7ee7aa23          	sw	a4,2036(a5) # fffff7f4 <stack_top+0xfffdf7f4>
    ce70:	04011e23          	sh	zero,92(sp)
    ce74:	00447a13          	andi	s4,s0,4
    ce78:	000a8b13          	mv	s6,s5
    ce7c:	00190593          	addi	a1,s2,1
    ce80:	000a1463          	bnez	s4,ce88 <main+0x160>
    ce84:	00090593          	mv	a1,s2
    ce88:	7d000513          	li	a0,2000
    ce8c:	df1ff0ef          	jal	ra,cc7c <__udivsi3>
    ce90:	02a12a23          	sw	a0,52(sp)
    ce94:	00050993          	mv	s3,a0
    ce98:	fffff7b7          	lui	a5,0xfffff
    ce9c:	740b1e63          	bnez	s6,d5f8 <main+0x8d0>
    cea0:	7a049063          	bnez	s1,d640 <main+0x918>
    cea4:	760a1e63          	bnez	s4,d620 <main+0x8f8>
    cea8:	300b1663          	bnez	s6,d1b4 <main+0x48c>
    ceac:	34049263          	bnez	s1,d1f0 <main+0x4c8>
    ceb0:	00447413          	andi	s0,s0,4
    ceb4:	02040863          	beqz	s0,cee4 <main+0x1bc>
    ceb8:	00001737          	lui	a4,0x1
    cebc:	82070713          	addi	a4,a4,-2016 # 820 <_start-0x77e0>
    cec0:	01010693          	addi	a3,sp,16
    cec4:	fffff7b7          	lui	a5,0xfffff
    cec8:	00d70733          	add	a4,a4,a3
    cecc:	00f707b3          	add	a5,a4,a5
    ced0:	03012603          	lw	a2,48(sp)
    ced4:	7ec79583          	lh	a1,2028(a5) # fffff7ec <stack_top+0xfffdf7ec>
    ced8:	03412503          	lw	a0,52(sp)
    cedc:	00f12623          	sw	a5,12(sp)
    cee0:	bddfc0ef          	jal	ra,9abc <core_init_state>
    cee4:	03812783          	lw	a5,56(sp)
    cee8:	0c079063          	bnez	a5,cfa8 <main+0x280>
    ceec:	00100793          	li	a5,1
    cef0:	02f12c23          	sw	a5,56(sp)
    cef4:	000017b7          	lui	a5,0x1
    cef8:	fffff4b7          	lui	s1,0xfffff
    cefc:	82078793          	addi	a5,a5,-2016 # 820 <_start-0x77e0>
    cf00:	01010713          	addi	a4,sp,16
    cf04:	7ec48493          	addi	s1,s1,2028 # fffff7ec <stack_top+0xfffdf7ec>
    cf08:	00e787b3          	add	a5,a5,a4
    cf0c:	009784b3          	add	s1,a5,s1
    cf10:	03812703          	lw	a4,56(sp)
    cf14:	00000413          	li	s0,0
    cf18:	00271793          	slli	a5,a4,0x2
    cf1c:	00e787b3          	add	a5,a5,a4
    cf20:	00179793          	slli	a5,a5,0x1
    cf24:	02f12c23          	sw	a5,56(sp)
    cf28:	884fe0ef          	jal	ra,afac <start_time>
    cf2c:	03812903          	lw	s2,56(sp)
    cf30:	04012a23          	sw	zero,84(sp)
    cf34:	04012c23          	sw	zero,88(sp)
    cf38:	04090263          	beqz	s2,cf7c <main+0x254>
    cf3c:	00100593          	li	a1,1
    cf40:	00048513          	mv	a0,s1
    cf44:	cecfb0ef          	jal	ra,8430 <core_bench_list>
    cf48:	05415583          	lhu	a1,84(sp)
    cf4c:	da4fd0ef          	jal	ra,a4f0 <crcu16>
    cf50:	00050793          	mv	a5,a0
    cf54:	fff00593          	li	a1,-1
    cf58:	00048513          	mv	a0,s1
    cf5c:	04f11a23          	sh	a5,84(sp)
    cf60:	cd0fb0ef          	jal	ra,8430 <core_bench_list>
    cf64:	05415583          	lhu	a1,84(sp)
    cf68:	d88fd0ef          	jal	ra,a4f0 <crcu16>
    cf6c:	04a11a23          	sh	a0,84(sp)
    cf70:	2c040463          	beqz	s0,d238 <main+0x510>
    cf74:	00140413          	addi	s0,s0,1
    cf78:	fc8912e3          	bne	s2,s0,cf3c <main+0x214>
    cf7c:	8c0fe0ef          	jal	ra,b03c <stop_time>
    cf80:	94cfe0ef          	jal	ra,b0cc <get_time>
    cf84:	960fe0ef          	jal	ra,b0e4 <time_in_secs>
    cf88:	f80504e3          	beqz	a0,cf10 <main+0x1e8>
    cf8c:	00050593          	mv	a1,a0
    cf90:	00a00513          	li	a0,10
    cf94:	ce9ff0ef          	jal	ra,cc7c <__udivsi3>
    cf98:	03812583          	lw	a1,56(sp)
    cf9c:	00150513          	addi	a0,a0,1
    cfa0:	cb1ff0ef          	jal	ra,cc50 <__mulsi3>
    cfa4:	02a12c23          	sw	a0,56(sp)
    cfa8:	804fe0ef          	jal	ra,afac <start_time>
    cfac:	000014b7          	lui	s1,0x1
    cfb0:	01010713          	addi	a4,sp,16
    cfb4:	fffff437          	lui	s0,0xfffff
    cfb8:	82048793          	addi	a5,s1,-2016 # 820 <_start-0x77e0>
    cfbc:	00e787b3          	add	a5,a5,a4
    cfc0:	7ec40513          	addi	a0,s0,2028 # fffff7ec <stack_top+0xfffdf7ec>
    cfc4:	00a78533          	add	a0,a5,a0
    cfc8:	e1dfb0ef          	jal	ra,8de4 <iterate>
    cfcc:	870fe0ef          	jal	ra,b03c <stop_time>
    cfd0:	8fcfe0ef          	jal	ra,b0cc <get_time>
    cfd4:	01010713          	addi	a4,sp,16
    cfd8:	82048793          	addi	a5,s1,-2016
    cfdc:	00e787b3          	add	a5,a5,a4
    cfe0:	008787b3          	add	a5,a5,s0
    cfe4:	00050a13          	mv	s4,a0
    cfe8:	7ec79503          	lh	a0,2028(a5)
    cfec:	00000593          	li	a1,0
    cff0:	00f12623          	sw	a5,12(sp)
    cff4:	c9dfd0ef          	jal	ra,ac90 <crc16>
    cff8:	00c12783          	lw	a5,12(sp)
    cffc:	00050593          	mv	a1,a0
    d000:	7ee79503          	lh	a0,2030(a5)
    d004:	c8dfd0ef          	jal	ra,ac90 <crc16>
    d008:	00c12783          	lw	a5,12(sp)
    d00c:	00050593          	mv	a1,a0
    d010:	7f079503          	lh	a0,2032(a5)
    d014:	c7dfd0ef          	jal	ra,ac90 <crc16>
    d018:	00050593          	mv	a1,a0
    d01c:	03411503          	lh	a0,52(sp)
    d020:	c71fd0ef          	jal	ra,ac90 <crc16>
    d024:	000087b7          	lui	a5,0x8
    d028:	b0578793          	addi	a5,a5,-1275 # 7b05 <_start-0x4fb>
    d02c:	00050913          	mv	s2,a0
    d030:	6cf50463          	beq	a0,a5,d6f8 <main+0x9d0>
    d034:	24a7e263          	bltu	a5,a0,d278 <main+0x550>
    d038:	000027b7          	lui	a5,0x2
    d03c:	8f278793          	addi	a5,a5,-1806 # 18f2 <_start-0x670e>
    d040:	6ef50263          	beq	a0,a5,d724 <main+0x9fc>
    d044:	00005b37          	lui	s6,0x5
    d048:	eafb0793          	addi	a5,s6,-337 # 4eaf <_start-0x3151>
    d04c:	72f51c63          	bne	a0,a5,d784 <main+0xa5c>
    d050:	00010537          	lui	a0,0x10
    d054:	2b850513          	addi	a0,a0,696 # 102b8 <errpat+0x288>
    d058:	608b0b13          	addi	s6,s6,1544
    d05c:	0000e9b7          	lui	s3,0xe
    d060:	00007ab7          	lui	s5,0x7
    d064:	f18fe0ef          	jal	ra,b77c <ee_printf>
    d068:	5a498993          	addi	s3,s3,1444 # e5a4 <main+0x187c>
    d06c:	000b0b93          	mv	s7,s6
    d070:	a79a8a93          	addi	s5,s5,-1415 # 6a79 <_start-0x1587>
    d074:	00010db7          	lui	s11,0x10
    d078:	76cda783          	lw	a5,1900(s11) # 1076c <default_num_contexts>
    d07c:	00000c93          	li	s9,0
    d080:	00000d13          	li	s10,0
    d084:	22078a63          	beqz	a5,d2b8 <main+0x590>
    d088:	00001737          	lui	a4,0x1
    d08c:	82070713          	addi	a4,a4,-2016 # 820 <_start-0x77e0>
    d090:	01010693          	addi	a3,sp,16
    d094:	fffff7b7          	lui	a5,0xfffff
    d098:	00d70733          	add	a4,a4,a3
    d09c:	00f707b3          	add	a5,a4,a5
    d0a0:	00f12623          	sw	a5,12(sp)
    d0a4:	00001c37          	lui	s8,0x1
    d0a8:	0440006f          	j	d0ec <main+0x3c4>
    d0ac:	00c12783          	lw	a5,12(sp)
    d0b0:	01a406b3          	add	a3,s0,s10
    d0b4:	00269693          	slli	a3,a3,0x2
    d0b8:	00d786b3          	add	a3,a5,a3
    d0bc:	00dc06b3          	add	a3,s8,a3
    d0c0:	82c6d683          	lhu	a3,-2004(a3)
    d0c4:	001d0593          	addi	a1,s10,1
    d0c8:	76cda603          	lw	a2,1900(s11)
    d0cc:	01968733          	add	a4,a3,s9
    d0d0:	01059d13          	slli	s10,a1,0x10
    d0d4:	01071493          	slli	s1,a4,0x10
    d0d8:	01071c93          	slli	s9,a4,0x10
    d0dc:	010d5d13          	srli	s10,s10,0x10
    d0e0:	0104d493          	srli	s1,s1,0x10
    d0e4:	410cdc93          	srai	s9,s9,0x10
    d0e8:	1ccd7a63          	bgeu	s10,a2,d2bc <main+0x594>
    d0ec:	00c12783          	lw	a5,12(sp)
    d0f0:	004d1413          	slli	s0,s10,0x4
    d0f4:	01a404b3          	add	s1,s0,s10
    d0f8:	00249493          	slli	s1,s1,0x2
    d0fc:	009784b3          	add	s1,a5,s1
    d100:	009c04b3          	add	s1,s8,s1
    d104:	80c4a683          	lw	a3,-2036(s1)
    d108:	82049623          	sh	zero,-2004(s1)
    d10c:	0016f693          	andi	a3,a3,1
    d110:	02068663          	beqz	a3,d13c <main+0x414>
    d114:	8264d603          	lhu	a2,-2010(s1)
    d118:	03560263          	beq	a2,s5,d13c <main+0x414>
    d11c:	000107b7          	lui	a5,0x10
    d120:	000a8693          	mv	a3,s5
    d124:	000d0593          	mv	a1,s10
    d128:	34878513          	addi	a0,a5,840 # 10348 <errpat+0x318>
    d12c:	e50fe0ef          	jal	ra,b77c <ee_printf>
    d130:	82c4d683          	lhu	a3,-2004(s1)
    d134:	00168693          	addi	a3,a3,1
    d138:	82d49623          	sh	a3,-2004(s1)
    d13c:	00c12783          	lw	a5,12(sp)
    d140:	01a404b3          	add	s1,s0,s10
    d144:	00249493          	slli	s1,s1,0x2
    d148:	009784b3          	add	s1,a5,s1
    d14c:	009c04b3          	add	s1,s8,s1
    d150:	80c4a683          	lw	a3,-2036(s1)
    d154:	0026f613          	andi	a2,a3,2
    d158:	02060863          	beqz	a2,d188 <main+0x460>
    d15c:	8284d603          	lhu	a2,-2008(s1)
    d160:	03760463          	beq	a2,s7,d188 <main+0x460>
    d164:	000107b7          	lui	a5,0x10
    d168:	000b0693          	mv	a3,s6
    d16c:	000d0593          	mv	a1,s10
    d170:	37878513          	addi	a0,a5,888 # 10378 <errpat+0x348>
    d174:	e08fe0ef          	jal	ra,b77c <ee_printf>
    d178:	82c4d603          	lhu	a2,-2004(s1)
    d17c:	80c4a683          	lw	a3,-2036(s1)
    d180:	00160613          	addi	a2,a2,1
    d184:	82c49623          	sh	a2,-2004(s1)
    d188:	0046f693          	andi	a3,a3,4
    d18c:	f20680e3          	beqz	a3,d0ac <main+0x384>
    d190:	00c12783          	lw	a5,12(sp)
    d194:	01a40433          	add	s0,s0,s10
    d198:	00241413          	slli	s0,s0,0x2
    d19c:	00878433          	add	s0,a5,s0
    d1a0:	008c0433          	add	s0,s8,s0
    d1a4:	82a45603          	lhu	a2,-2006(s0)
    d1a8:	0b361263          	bne	a2,s3,d24c <main+0x524>
    d1ac:	82c45683          	lhu	a3,-2004(s0)
    d1b0:	f15ff06f          	j	d0c4 <main+0x39c>
    d1b4:	00001737          	lui	a4,0x1
    d1b8:	01010693          	addi	a3,sp,16
    d1bc:	82070713          	addi	a4,a4,-2016 # 820 <_start-0x77e0>
    d1c0:	00d70733          	add	a4,a4,a3
    d1c4:	fffff7b7          	lui	a5,0xfffff
    d1c8:	00f707b3          	add	a5,a4,a5
    d1cc:	7ec79603          	lh	a2,2028(a5) # fffff7ec <stack_top+0xfffdf7ec>
    d1d0:	7f87a583          	lw	a1,2040(a5)
    d1d4:	00098513          	mv	a0,s3
    d1d8:	00f12623          	sw	a5,12(sp)
    d1dc:	ed8fb0ef          	jal	ra,88b4 <core_list_init>
    d1e0:	03c12403          	lw	s0,60(sp)
    d1e4:	04a12023          	sw	a0,64(sp)
    d1e8:	00247493          	andi	s1,s0,2
    d1ec:	cc0482e3          	beqz	s1,ceb0 <main+0x188>
    d1f0:	00001737          	lui	a4,0x1
    d1f4:	01010693          	addi	a3,sp,16
    d1f8:	82070713          	addi	a4,a4,-2016 # 820 <_start-0x77e0>
    d1fc:	00d70733          	add	a4,a4,a3
    d200:	fffff7b7          	lui	a5,0xfffff
    d204:	00f707b3          	add	a5,a4,a5
    d208:	00f12623          	sw	a5,12(sp)
    d20c:	00c12703          	lw	a4,12(sp)
    d210:	7ee79783          	lh	a5,2030(a5) # fffff7ee <stack_top+0xfffdf7ee>
    d214:	03412503          	lw	a0,52(sp)
    d218:	7ec71603          	lh	a2,2028(a4)
    d21c:	7fc72583          	lw	a1,2044(a4)
    d220:	01079793          	slli	a5,a5,0x10
    d224:	04410693          	addi	a3,sp,68
    d228:	00c7e633          	or	a2,a5,a2
    d22c:	a00fc0ef          	jal	ra,942c <core_init_matrix>
    d230:	03c12403          	lw	s0,60(sp)
    d234:	c7dff06f          	j	ceb0 <main+0x188>
    d238:	04a11b23          	sh	a0,86(sp)
    d23c:	00100793          	li	a5,1
    d240:	d2f90ee3          	beq	s2,a5,cf7c <main+0x254>
    d244:	00100413          	li	s0,1
    d248:	cf5ff06f          	j	cf3c <main+0x214>
    d24c:	000107b7          	lui	a5,0x10
    d250:	00098693          	mv	a3,s3
    d254:	000d0593          	mv	a1,s10
    d258:	3ac78513          	addi	a0,a5,940 # 103ac <errpat+0x37c>
    d25c:	d20fe0ef          	jal	ra,b77c <ee_printf>
    d260:	82c45683          	lhu	a3,-2004(s0)
    d264:	00168693          	addi	a3,a3,1
    d268:	01069693          	slli	a3,a3,0x10
    d26c:	0106d693          	srli	a3,a3,0x10
    d270:	82d41623          	sh	a3,-2004(s0)
    d274:	e51ff06f          	j	d0c4 <main+0x39c>
    d278:	000099b7          	lui	s3,0x9
    d27c:	a0298793          	addi	a5,s3,-1534 # 8a02 <core_list_init+0x14e>
    d280:	4cf50663          	beq	a0,a5,d74c <main+0xa24>
    d284:	0000f7b7          	lui	a5,0xf
    d288:	9f578793          	addi	a5,a5,-1547 # e9f5 <main+0x1ccd>
    d28c:	4ef51c63          	bne	a0,a5,d784 <main+0xa5c>
    d290:	00010537          	lui	a0,0x10
    d294:	00002b37          	lui	s6,0x2
    d298:	2ec50513          	addi	a0,a0,748 # 102ec <errpat+0x2bc>
    d29c:	fd7b0b13          	addi	s6,s6,-41 # 1fd7 <_start-0x6029>
    d2a0:	0000eab7          	lui	s5,0xe
    d2a4:	cd8fe0ef          	jal	ra,b77c <ee_printf>
    d2a8:	e3a98993          	addi	s3,s3,-454
    d2ac:	000b0b93          	mv	s7,s6
    d2b0:	714a8a93          	addi	s5,s5,1812 # e714 <main+0x19ec>
    d2b4:	dc1ff06f          	j	d074 <main+0x34c>
    d2b8:	00000493          	li	s1,0
    d2bc:	c61fd0ef          	jal	ra,af1c <check_data_types>
    d2c0:	03412583          	lw	a1,52(sp)
    d2c4:	00a484b3          	add	s1,s1,a0
    d2c8:	00010537          	lui	a0,0x10
    d2cc:	3dc50513          	addi	a0,a0,988 # 103dc <errpat+0x3ac>
    d2d0:	cacfe0ef          	jal	ra,b77c <ee_printf>
    d2d4:	00010537          	lui	a0,0x10
    d2d8:	000a0593          	mv	a1,s4
    d2dc:	3f450513          	addi	a0,a0,1012 # 103f4 <errpat+0x3c4>
    d2e0:	c9cfe0ef          	jal	ra,b77c <ee_printf>
    d2e4:	000a0513          	mv	a0,s4
    d2e8:	dfdfd0ef          	jal	ra,b0e4 <time_in_secs>
    d2ec:	00050593          	mv	a1,a0
    d2f0:	00010537          	lui	a0,0x10
    d2f4:	40c50513          	addi	a0,a0,1036 # 1040c <errpat+0x3dc>
    d2f8:	c84fe0ef          	jal	ra,b77c <ee_printf>
    d2fc:	01049493          	slli	s1,s1,0x10
    d300:	000a0513          	mv	a0,s4
    d304:	0104d493          	srli	s1,s1,0x10
    d308:	dddfd0ef          	jal	ra,b0e4 <time_in_secs>
    d30c:	3a051a63          	bnez	a0,d6c0 <main+0x998>
    d310:	000a0513          	mv	a0,s4
    d314:	dd1fd0ef          	jal	ra,b0e4 <time_in_secs>
    d318:	00900793          	li	a5,9
    d31c:	38a7f063          	bgeu	a5,a0,d69c <main+0x974>
    d320:	76cda583          	lw	a1,1900(s11)
    d324:	03812503          	lw	a0,56(sp)
    d328:	01049493          	slli	s1,s1,0x10
    d32c:	4104d493          	srai	s1,s1,0x10
    d330:	921ff0ef          	jal	ra,cc50 <__mulsi3>
    d334:	00050593          	mv	a1,a0
    d338:	00010537          	lui	a0,0x10
    d33c:	47c50513          	addi	a0,a0,1148 # 1047c <errpat+0x44c>
    d340:	c3cfe0ef          	jal	ra,b77c <ee_printf>
    d344:	000105b7          	lui	a1,0x10
    d348:	00010537          	lui	a0,0x10
    d34c:	49458593          	addi	a1,a1,1172 # 10494 <errpat+0x464>
    d350:	4a050513          	addi	a0,a0,1184 # 104a0 <errpat+0x470>
    d354:	c28fe0ef          	jal	ra,b77c <ee_printf>
    d358:	000105b7          	lui	a1,0x10
    d35c:	00010537          	lui	a0,0x10
    d360:	31858593          	addi	a1,a1,792 # 10318 <errpat+0x2e8>
    d364:	4b850513          	addi	a0,a0,1208 # 104b8 <errpat+0x488>
    d368:	c14fe0ef          	jal	ra,b77c <ee_printf>
    d36c:	000105b7          	lui	a1,0x10
    d370:	00010537          	lui	a0,0x10
    d374:	4d058593          	addi	a1,a1,1232 # 104d0 <errpat+0x4a0>
    d378:	4d850513          	addi	a0,a0,1240 # 104d8 <errpat+0x4a8>
    d37c:	c00fe0ef          	jal	ra,b77c <ee_printf>
    d380:	00010537          	lui	a0,0x10
    d384:	00090593          	mv	a1,s2
    d388:	4f050513          	addi	a0,a0,1264 # 104f0 <errpat+0x4c0>
    d38c:	bf0fe0ef          	jal	ra,b77c <ee_printf>
    d390:	03c12783          	lw	a5,60(sp)
    d394:	0017f713          	andi	a4,a5,1
    d398:	06070a63          	beqz	a4,d40c <main+0x6e4>
    d39c:	76cda703          	lw	a4,1900(s11)
    d3a0:	06070663          	beqz	a4,d40c <main+0x6e4>
    d3a4:	00001737          	lui	a4,0x1
    d3a8:	82070713          	addi	a4,a4,-2016 # 820 <_start-0x77e0>
    d3ac:	01010693          	addi	a3,sp,16
    d3b0:	fffff7b7          	lui	a5,0xfffff
    d3b4:	00d70733          	add	a4,a4,a3
    d3b8:	00f707b3          	add	a5,a4,a5
    d3bc:	00000413          	li	s0,0
    d3c0:	000109b7          	lui	s3,0x10
    d3c4:	00f12623          	sw	a5,12(sp)
    d3c8:	00001937          	lui	s2,0x1
    d3cc:	00c12703          	lw	a4,12(sp)
    d3d0:	00441793          	slli	a5,s0,0x4
    d3d4:	008787b3          	add	a5,a5,s0
    d3d8:	00279793          	slli	a5,a5,0x2
    d3dc:	00f707b3          	add	a5,a4,a5
    d3e0:	00f907b3          	add	a5,s2,a5
    d3e4:	8267d603          	lhu	a2,-2010(a5) # ffffe826 <stack_top+0xfffde826>
    d3e8:	00040593          	mv	a1,s0
    d3ec:	50c98513          	addi	a0,s3,1292 # 1050c <errpat+0x4dc>
    d3f0:	b8cfe0ef          	jal	ra,b77c <ee_printf>
    d3f4:	00140413          	addi	s0,s0,1
    d3f8:	76cda783          	lw	a5,1900(s11)
    d3fc:	01041413          	slli	s0,s0,0x10
    d400:	01045413          	srli	s0,s0,0x10
    d404:	fcf464e3          	bltu	s0,a5,d3cc <main+0x6a4>
    d408:	03c12783          	lw	a5,60(sp)
    d40c:	0027f713          	andi	a4,a5,2
    d410:	06070a63          	beqz	a4,d484 <main+0x75c>
    d414:	76cda703          	lw	a4,1900(s11)
    d418:	36070063          	beqz	a4,d778 <main+0xa50>
    d41c:	00001737          	lui	a4,0x1
    d420:	82070713          	addi	a4,a4,-2016 # 820 <_start-0x77e0>
    d424:	01010693          	addi	a3,sp,16
    d428:	fffff7b7          	lui	a5,0xfffff
    d42c:	00d70733          	add	a4,a4,a3
    d430:	00f707b3          	add	a5,a4,a5
    d434:	00000413          	li	s0,0
    d438:	000109b7          	lui	s3,0x10
    d43c:	00f12623          	sw	a5,12(sp)
    d440:	00001937          	lui	s2,0x1
    d444:	00c12703          	lw	a4,12(sp)
    d448:	00441793          	slli	a5,s0,0x4
    d44c:	008787b3          	add	a5,a5,s0
    d450:	00279793          	slli	a5,a5,0x2
    d454:	00f707b3          	add	a5,a4,a5
    d458:	00f907b3          	add	a5,s2,a5
    d45c:	8287d603          	lhu	a2,-2008(a5) # ffffe828 <stack_top+0xfffde828>
    d460:	00040593          	mv	a1,s0
    d464:	52898513          	addi	a0,s3,1320 # 10528 <errpat+0x4f8>
    d468:	b14fe0ef          	jal	ra,b77c <ee_printf>
    d46c:	00140413          	addi	s0,s0,1
    d470:	76cda783          	lw	a5,1900(s11)
    d474:	01041413          	slli	s0,s0,0x10
    d478:	01045413          	srli	s0,s0,0x10
    d47c:	fcf464e3          	bltu	s0,a5,d444 <main+0x71c>
    d480:	03c12783          	lw	a5,60(sp)
    d484:	0047f793          	andi	a5,a5,4
    d488:	06078863          	beqz	a5,d4f8 <main+0x7d0>
    d48c:	76cda783          	lw	a5,1900(s11)
    d490:	0c078663          	beqz	a5,d55c <main+0x834>
    d494:	00001737          	lui	a4,0x1
    d498:	82070713          	addi	a4,a4,-2016 # 820 <_start-0x77e0>
    d49c:	01010693          	addi	a3,sp,16
    d4a0:	fffff7b7          	lui	a5,0xfffff
    d4a4:	00d70733          	add	a4,a4,a3
    d4a8:	00f707b3          	add	a5,a4,a5
    d4ac:	00000413          	li	s0,0
    d4b0:	000109b7          	lui	s3,0x10
    d4b4:	00f12623          	sw	a5,12(sp)
    d4b8:	00001937          	lui	s2,0x1
    d4bc:	00c12703          	lw	a4,12(sp)
    d4c0:	00441793          	slli	a5,s0,0x4
    d4c4:	008787b3          	add	a5,a5,s0
    d4c8:	00279793          	slli	a5,a5,0x2
    d4cc:	00f707b3          	add	a5,a4,a5
    d4d0:	00f907b3          	add	a5,s2,a5
    d4d4:	82a7d603          	lhu	a2,-2006(a5) # ffffe82a <stack_top+0xfffde82a>
    d4d8:	00040593          	mv	a1,s0
    d4dc:	54498513          	addi	a0,s3,1348 # 10544 <errpat+0x514>
    d4e0:	a9cfe0ef          	jal	ra,b77c <ee_printf>
    d4e4:	00140413          	addi	s0,s0,1
    d4e8:	76cda783          	lw	a5,1900(s11)
    d4ec:	01041413          	slli	s0,s0,0x10
