
LoadAndStore/code.elf:     file format elf32-littleriscv


Disassembly of section .text:

00008000 <_start>:
    8000:	0080006f          	j	8008 <_init_reg>

00008004 <_end>:
    8004:	0000006f          	j	8004 <_end>

00008008 <_init_reg>:
    8008:	00000093          	li	ra,0
    800c:	00000113          	li	sp,0
    8010:	00000193          	li	gp,0
    8014:	00000213          	li	tp,0
    8018:	00000293          	li	t0,0
    801c:	00000313          	li	t1,0
    8020:	00000393          	li	t2,0
    8024:	00000413          	li	s0,0
    8028:	00000493          	li	s1,0
    802c:	00000513          	li	a0,0
    8030:	00000593          	li	a1,0
    8034:	00000613          	li	a2,0
    8038:	00000693          	li	a3,0
    803c:	00000713          	li	a4,0
    8040:	00000793          	li	a5,0
    8044:	00000813          	li	a6,0
    8048:	00000893          	li	a7,0
    804c:	00000913          	li	s2,0
    8050:	00000993          	li	s3,0
    8054:	00000a13          	li	s4,0
    8058:	00000a93          	li	s5,0
    805c:	00000b13          	li	s6,0
    8060:	00000b93          	li	s7,0
    8064:	00000c13          	li	s8,0
    8068:	00000c93          	li	s9,0
    806c:	00000d13          	li	s10,0
    8070:	00000d93          	li	s11,0
    8074:	00000e13          	li	t3,0
    8078:	00000e93          	li	t4,0
    807c:	00000f13          	li	t5,0
    8080:	00000f93          	li	t6,0
    8084:	00020137          	lui	sp,0x20

00008088 <_call_main>:
    8088:	008000ef          	jal	ra,8090 <main>
    808c:	f79ff06f          	j	8004 <_end>

00008090 <main>:
    8090:	00014537          	lui	a0,0x14
    8094:	808805b7          	lui	a1,0x80880
    8098:	00858593          	addi	a1,a1,8 # 80880008 <stack_top+0x80860008>
    809c:	08809637          	lui	a2,0x8809
    80a0:	88060613          	addi	a2,a2,-1920 # 8808880 <stack_top+0x87e8880>
    80a4:	00c0006f          	j	80b0 <main2>

000080a8 <end>:
    80a8:	00100893          	li	a7,1

000080ac <end2>:
    80ac:	0000006f          	j	80ac <end2>

000080b0 <main2>:
    80b0:	00b52023          	sw	a1,0(a0) # 14000 <__bss_end+0xbe58>
    80b4:	00052683          	lw	a3,0(a0)
    80b8:	00d888b3          	add	a7,a7,a3
    80bc:	00051683          	lh	a3,0(a0)
    80c0:	00d888b3          	add	a7,a7,a3
    80c4:	00151683          	lh	a3,1(a0)
    80c8:	00d888b3          	add	a7,a7,a3
    80cc:	00251683          	lh	a3,2(a0)
    80d0:	00d888b3          	add	a7,a7,a3
    80d4:	00050683          	lb	a3,0(a0)
    80d8:	00d888b3          	add	a7,a7,a3
    80dc:	00150683          	lb	a3,1(a0)
    80e0:	00d888b3          	add	a7,a7,a3
    80e4:	00250683          	lb	a3,2(a0)
    80e8:	00d888b3          	add	a7,a7,a3
    80ec:	00350683          	lb	a3,3(a0)
    80f0:	00d888b3          	add	a7,a7,a3
    80f4:	00055683          	lhu	a3,0(a0)
    80f8:	00d888b3          	add	a7,a7,a3
    80fc:	00155683          	lhu	a3,1(a0)
    8100:	00d888b3          	add	a7,a7,a3
    8104:	00255683          	lhu	a3,2(a0)
    8108:	00d888b3          	add	a7,a7,a3
    810c:	00054683          	lbu	a3,0(a0)
    8110:	00d888b3          	add	a7,a7,a3
    8114:	00154683          	lbu	a3,1(a0)
    8118:	00d888b3          	add	a7,a7,a3
    811c:	00254683          	lbu	a3,2(a0)
    8120:	00d888b3          	add	a7,a7,a3
    8124:	00354683          	lbu	a3,3(a0)
    8128:	00d888b3          	add	a7,a7,a3
    812c:	000105b7          	lui	a1,0x10
    8130:	fff58593          	addi	a1,a1,-1 # ffff <__bss_end+0x7e57>
    8134:	01052023          	sw	a6,0(a0)
    8138:	00b51023          	sh	a1,0(a0)
    813c:	00052703          	lw	a4,0(a0)
    8140:	00e888b3          	add	a7,a7,a4
    8144:	01052023          	sw	a6,0(a0)
    8148:	00b510a3          	sh	a1,1(a0)
    814c:	00052703          	lw	a4,0(a0)
    8150:	00e888b3          	add	a7,a7,a4
    8154:	01052023          	sw	a6,0(a0)
    8158:	00b51123          	sh	a1,2(a0)
    815c:	00052703          	lw	a4,0(a0)
    8160:	00e888b3          	add	a7,a7,a4
    8164:	01052023          	sw	a6,0(a0)
    8168:	00b50023          	sb	a1,0(a0)
    816c:	00052703          	lw	a4,0(a0)
    8170:	00e888b3          	add	a7,a7,a4
    8174:	01052023          	sw	a6,0(a0)
    8178:	00b500a3          	sb	a1,1(a0)
    817c:	00052703          	lw	a4,0(a0)
    8180:	00e888b3          	add	a7,a7,a4
    8184:	01052023          	sw	a6,0(a0)
    8188:	00b50123          	sb	a1,2(a0)
    818c:	00052703          	lw	a4,0(a0)
    8190:	00e888b3          	add	a7,a7,a4
    8194:	01052023          	sw	a6,0(a0)
    8198:	00b501a3          	sb	a1,3(a0)
    819c:	00052703          	lw	a4,0(a0)
    81a0:	00e888b3          	add	a7,a7,a4

000081a4 <main3>:
    81a4:	0000006f          	j	81a4 <main3>

Disassembly of section .riscv.attributes:

00000000 <.riscv.attributes>:
   0:	1941                	addi	s2,s2,-16
   2:	0000                	unimp
   4:	7200                	flw	fs0,32(a2)
   6:	7369                	lui	t1,0xffffa
   8:	01007663          	bgeu	zero,a6,14 <_start-0x7fec>
   c:	0000000f          	fence	unknown,unknown
  10:	7205                	lui	tp,0xfffe1
  12:	3376                	fld	ft6,376(sp)
  14:	6932                	flw	fs2,12(sp)
  16:	7032                	flw	ft0,44(sp)
  18:	0030                	addi	a2,sp,8

Disassembly of section .debug_line:

00000000 <.debug_line>:
   0:	0130                	addi	a2,sp,136
   2:	0000                	unimp
   4:	00480003          	lb	zero,4(a6)
   8:	0000                	unimp
   a:	0101                	addi	sp,sp,0
   c:	000d0efb          	0xd0efb
  10:	0101                	addi	sp,sp,0
  12:	0101                	addi	sp,sp,0
  14:	0000                	unimp
  16:	0100                	addi	s0,sp,128
  18:	0000                	unimp
  1a:	2f01                	jal	72a <_start-0x78d6>
  1c:	6f68                	flw	fa0,92(a4)
  1e:	656d                	lui	a0,0x1b
  20:	6e65642f          	0x6e65642f
  24:	6f6a                	flw	ft10,152(sp)
  26:	63696d2f          	0x63696d2f
  2a:	6f72                	flw	ft10,28(sp)
  2c:	7270                	flw	fa2,100(a2)
  2e:	7365636f          	jal	t1,56764 <stack_top+0x36764>
  32:	2f726f73          	csrrsi	t5,0x2f7,4
  36:	6562                	flw	fa0,24(sp)
  38:	636e                	flw	ft6,216(sp)
  3a:	6d68                	flw	fa0,92(a0)
  3c:	7261                	lui	tp,0xffff8
  3e:	742f736b          	0x742f736b
  42:	736c6f6f          	jal	t5,c6778 <stack_top+0xa6778>
  46:	0000                	unimp
  48:	2e747263          	bgeu	s0,t2,32c <_start-0x7cd4>
  4c:	00010073          	0x10073
  50:	0000                	unimp
  52:	0500                	addi	s0,sp,640
  54:	0002                	c.slli64	zero
  56:	0080                	addi	s0,sp,64
  58:	0300                	addi	s0,sp,384
  5a:	0109                	addi	sp,sp,2
  5c:	04090203          	lb	tp,64(s2)
  60:	0100                	addi	s0,sp,128
  62:	04090203          	lb	tp,64(s2)
  66:	0100                	addi	s0,sp,128
  68:	04090103          	lb	sp,64(s2)
  6c:	0100                	addi	s0,sp,128
  6e:	04090103          	lb	sp,64(s2)
  72:	0100                	addi	s0,sp,128
  74:	04090103          	lb	sp,64(s2)
  78:	0100                	addi	s0,sp,128
  7a:	04090103          	lb	sp,64(s2)
  7e:	0100                	addi	s0,sp,128
  80:	04090103          	lb	sp,64(s2)
  84:	0100                	addi	s0,sp,128
  86:	04090103          	lb	sp,64(s2)
  8a:	0100                	addi	s0,sp,128
  8c:	04090103          	lb	sp,64(s2)
  90:	0100                	addi	s0,sp,128
  92:	04090103          	lb	sp,64(s2)
  96:	0100                	addi	s0,sp,128
  98:	04090103          	lb	sp,64(s2)
  9c:	0100                	addi	s0,sp,128
  9e:	04090103          	lb	sp,64(s2)
  a2:	0100                	addi	s0,sp,128
  a4:	04090103          	lb	sp,64(s2)
  a8:	0100                	addi	s0,sp,128
  aa:	04090103          	lb	sp,64(s2)
  ae:	0100                	addi	s0,sp,128
  b0:	04090103          	lb	sp,64(s2)
  b4:	0100                	addi	s0,sp,128
  b6:	04090103          	lb	sp,64(s2)
  ba:	0100                	addi	s0,sp,128
  bc:	04090103          	lb	sp,64(s2)
  c0:	0100                	addi	s0,sp,128
  c2:	04090103          	lb	sp,64(s2)
  c6:	0100                	addi	s0,sp,128
  c8:	04090103          	lb	sp,64(s2)
  cc:	0100                	addi	s0,sp,128
  ce:	04090103          	lb	sp,64(s2)
  d2:	0100                	addi	s0,sp,128
  d4:	04090103          	lb	sp,64(s2)
  d8:	0100                	addi	s0,sp,128
  da:	04090103          	lb	sp,64(s2)
  de:	0100                	addi	s0,sp,128
  e0:	04090103          	lb	sp,64(s2)
  e4:	0100                	addi	s0,sp,128
  e6:	04090103          	lb	sp,64(s2)
  ea:	0100                	addi	s0,sp,128
  ec:	04090103          	lb	sp,64(s2)
  f0:	0100                	addi	s0,sp,128
  f2:	04090103          	lb	sp,64(s2)
  f6:	0100                	addi	s0,sp,128
  f8:	04090103          	lb	sp,64(s2)
  fc:	0100                	addi	s0,sp,128
  fe:	04090103          	lb	sp,64(s2)
 102:	0100                	addi	s0,sp,128
 104:	04090103          	lb	sp,64(s2)
 108:	0100                	addi	s0,sp,128
 10a:	04090103          	lb	sp,64(s2)
 10e:	0100                	addi	s0,sp,128
 110:	04090103          	lb	sp,64(s2)
 114:	0100                	addi	s0,sp,128
 116:	04090103          	lb	sp,64(s2)
 11a:	0100                	addi	s0,sp,128
 11c:	04090103          	lb	sp,64(s2)
 120:	0100                	addi	s0,sp,128
 122:	04090203          	lb	tp,64(s2)
 126:	0100                	addi	s0,sp,128
 128:	04090103          	lb	sp,64(s2)
 12c:	0100                	addi	s0,sp,128
 12e:	0409                	addi	s0,s0,2
 130:	0000                	unimp
 132:	0101                	addi	sp,sp,0
 134:	01ca                	slli	gp,gp,0x12
 136:	0000                	unimp
 138:	002a0003          	lb	zero,2(s4)
 13c:	0000                	unimp
 13e:	0101                	addi	sp,sp,0
 140:	000d0efb          	0xd0efb
 144:	0101                	addi	sp,sp,0
 146:	0101                	addi	sp,sp,0
 148:	0000                	unimp
 14a:	0100                	addi	s0,sp,128
 14c:	0000                	unimp
 14e:	4c01                	li	s8,0
 150:	4164616f          	jal	sp,46566 <stack_top+0x26566>
 154:	646e                	flw	fs0,216(sp)
 156:	726f7453          	0x726f7453
 15a:	0065                	c.nop	25
 15c:	6300                	flw	fs0,0(a4)
 15e:	2e65646f          	jal	s0,56444 <stack_top+0x36444>
 162:	00010073          	0x10073
 166:	0000                	unimp
 168:	0500                	addi	s0,sp,640
 16a:	9002                	ebreak
 16c:	0080                	addi	s0,sp,64
 16e:	1900                	addi	s0,sp,176
 170:	04090103          	lb	sp,64(s2)
 174:	0100                	addi	s0,sp,128
 176:	08090103          	lb	sp,128(s2)
 17a:	0100                	addi	s0,sp,128
 17c:	08090103          	lb	sp,128(s2)
 180:	0100                	addi	s0,sp,128
 182:	04090203          	lb	tp,64(s2)
 186:	0100                	addi	s0,sp,128
 188:	04090203          	lb	tp,64(s2)
 18c:	0100                	addi	s0,sp,128
 18e:	04090203          	lb	tp,64(s2)
 192:	0100                	addi	s0,sp,128
 194:	04090103          	lb	sp,64(s2)
 198:	0100                	addi	s0,sp,128
 19a:	04090103          	lb	sp,64(s2)
 19e:	0100                	addi	s0,sp,128
 1a0:	04090103          	lb	sp,64(s2)
 1a4:	0100                	addi	s0,sp,128
 1a6:	04090103          	lb	sp,64(s2)
 1aa:	0100                	addi	s0,sp,128
 1ac:	04090103          	lb	sp,64(s2)
 1b0:	0100                	addi	s0,sp,128
 1b2:	04090103          	lb	sp,64(s2)
 1b6:	0100                	addi	s0,sp,128
 1b8:	04090103          	lb	sp,64(s2)
 1bc:	0100                	addi	s0,sp,128
 1be:	04090103          	lb	sp,64(s2)
 1c2:	0100                	addi	s0,sp,128
 1c4:	04090103          	lb	sp,64(s2)
 1c8:	0100                	addi	s0,sp,128
 1ca:	04090103          	lb	sp,64(s2)
 1ce:	0100                	addi	s0,sp,128
 1d0:	04090103          	lb	sp,64(s2)
 1d4:	0100                	addi	s0,sp,128
 1d6:	04090103          	lb	sp,64(s2)
 1da:	0100                	addi	s0,sp,128
 1dc:	04090103          	lb	sp,64(s2)
 1e0:	0100                	addi	s0,sp,128
 1e2:	04090103          	lb	sp,64(s2)
 1e6:	0100                	addi	s0,sp,128
 1e8:	04090103          	lb	sp,64(s2)
 1ec:	0100                	addi	s0,sp,128
 1ee:	04090103          	lb	sp,64(s2)
 1f2:	0100                	addi	s0,sp,128
 1f4:	04090103          	lb	sp,64(s2)
 1f8:	0100                	addi	s0,sp,128
 1fa:	04090103          	lb	sp,64(s2)
 1fe:	0100                	addi	s0,sp,128
 200:	04090103          	lb	sp,64(s2)
 204:	0100                	addi	s0,sp,128
 206:	04090103          	lb	sp,64(s2)
 20a:	0100                	addi	s0,sp,128
 20c:	04090103          	lb	sp,64(s2)
 210:	0100                	addi	s0,sp,128
 212:	04090103          	lb	sp,64(s2)
 216:	0100                	addi	s0,sp,128
 218:	04090103          	lb	sp,64(s2)
 21c:	0100                	addi	s0,sp,128
 21e:	04090103          	lb	sp,64(s2)
 222:	0100                	addi	s0,sp,128
 224:	04090103          	lb	sp,64(s2)
 228:	0100                	addi	s0,sp,128
 22a:	04090103          	lb	sp,64(s2)
 22e:	0100                	addi	s0,sp,128
 230:	04090103          	lb	sp,64(s2)
 234:	0100                	addi	s0,sp,128
 236:	04090103          	lb	sp,64(s2)
 23a:	0100                	addi	s0,sp,128
 23c:	04090103          	lb	sp,64(s2)
 240:	0100                	addi	s0,sp,128
 242:	04090103          	lb	sp,64(s2)
 246:	0100                	addi	s0,sp,128
 248:	04090103          	lb	sp,64(s2)
 24c:	0100                	addi	s0,sp,128
 24e:	08090103          	lb	sp,128(s2)
 252:	0100                	addi	s0,sp,128
 254:	04090103          	lb	sp,64(s2)
 258:	0100                	addi	s0,sp,128
 25a:	04090103          	lb	sp,64(s2)
 25e:	0100                	addi	s0,sp,128
 260:	04090103          	lb	sp,64(s2)
 264:	0100                	addi	s0,sp,128
 266:	04090103          	lb	sp,64(s2)
 26a:	0100                	addi	s0,sp,128
 26c:	04090103          	lb	sp,64(s2)
 270:	0100                	addi	s0,sp,128
 272:	04090103          	lb	sp,64(s2)
 276:	0100                	addi	s0,sp,128
 278:	04090103          	lb	sp,64(s2)
 27c:	0100                	addi	s0,sp,128
 27e:	04090103          	lb	sp,64(s2)
 282:	0100                	addi	s0,sp,128
 284:	04090103          	lb	sp,64(s2)
 288:	0100                	addi	s0,sp,128
 28a:	04090103          	lb	sp,64(s2)
 28e:	0100                	addi	s0,sp,128
 290:	04090103          	lb	sp,64(s2)
 294:	0100                	addi	s0,sp,128
 296:	04090103          	lb	sp,64(s2)
 29a:	0100                	addi	s0,sp,128
 29c:	04090103          	lb	sp,64(s2)
 2a0:	0100                	addi	s0,sp,128
 2a2:	04090103          	lb	sp,64(s2)
 2a6:	0100                	addi	s0,sp,128
 2a8:	04090103          	lb	sp,64(s2)
 2ac:	0100                	addi	s0,sp,128
 2ae:	04090103          	lb	sp,64(s2)
 2b2:	0100                	addi	s0,sp,128
 2b4:	04090103          	lb	sp,64(s2)
 2b8:	0100                	addi	s0,sp,128
 2ba:	04090103          	lb	sp,64(s2)
 2be:	0100                	addi	s0,sp,128
 2c0:	04090103          	lb	sp,64(s2)
 2c4:	0100                	addi	s0,sp,128
 2c6:	04090103          	lb	sp,64(s2)
 2ca:	0100                	addi	s0,sp,128
 2cc:	04090103          	lb	sp,64(s2)
 2d0:	0100                	addi	s0,sp,128
 2d2:	04090103          	lb	sp,64(s2)
 2d6:	0100                	addi	s0,sp,128
 2d8:	04090103          	lb	sp,64(s2)
 2dc:	0100                	addi	s0,sp,128
 2de:	04090103          	lb	sp,64(s2)
 2e2:	0100                	addi	s0,sp,128
 2e4:	04090103          	lb	sp,64(s2)
 2e8:	0100                	addi	s0,sp,128
 2ea:	04090103          	lb	sp,64(s2)
 2ee:	0100                	addi	s0,sp,128
 2f0:	04090103          	lb	sp,64(s2)
 2f4:	0100                	addi	s0,sp,128
 2f6:	04090203          	lb	tp,64(s2)
 2fa:	0100                	addi	s0,sp,128
 2fc:	0409                	addi	s0,s0,2
 2fe:	0000                	unimp
 300:	0101                	addi	sp,sp,0

Disassembly of section .debug_info:

00000000 <.debug_info>:
   0:	0022                	c.slli	zero,0x8
   2:	0000                	unimp
   4:	0002                	c.slli64	zero
   6:	0000                	unimp
   8:	0000                	unimp
   a:	0104                	addi	s1,sp,128
   c:	0000                	unimp
   e:	0000                	unimp
  10:	8000                	0x8000
  12:	0000                	unimp
  14:	8090                	0x8090
  16:	0000                	unimp
  18:	0000                	unimp
  1a:	0000                	unimp
  1c:	0032                	c.slli	zero,0xc
  1e:	0000                	unimp
  20:	005e                	c.slli	zero,0x17
  22:	0000                	unimp
  24:	8001                	c.srli64	s0
  26:	0022                	c.slli	zero,0x8
  28:	0000                	unimp
  2a:	0002                	c.slli64	zero
  2c:	0014                	0x14
  2e:	0000                	unimp
  30:	0104                	addi	s1,sp,128
  32:	0134                	addi	a3,sp,136
  34:	0000                	unimp
  36:	8090                	0x8090
  38:	0000                	unimp
  3a:	81a8                	0x81a8
  3c:	0000                	unimp
  3e:	006a                	c.slli	zero,0x1a
  40:	0000                	unimp
  42:	0032                	c.slli	zero,0xc
  44:	0000                	unimp
  46:	005e                	c.slli	zero,0x17
  48:	0000                	unimp
  4a:	8001                	c.srli64	s0

Disassembly of section .debug_abbrev:

00000000 <.debug_abbrev>:
   0:	1101                	addi	sp,sp,-32
   2:	1000                	addi	s0,sp,32
   4:	1106                	slli	sp,sp,0x21
   6:	1201                	addi	tp,tp,-32
   8:	0301                	addi	t1,t1,0
   a:	1b0e                	slli	s6,s6,0x23
   c:	250e                	fld	fa0,192(sp)
   e:	130e                	slli	t1,t1,0x23
  10:	0005                	c.nop	1
  12:	0000                	unimp
  14:	1101                	addi	sp,sp,-32
  16:	1000                	addi	s0,sp,32
  18:	1106                	slli	sp,sp,0x21
  1a:	1201                	addi	tp,tp,-32
  1c:	0301                	addi	t1,t1,0
  1e:	1b0e                	slli	s6,s6,0x23
  20:	250e                	fld	fa0,192(sp)
  22:	130e                	slli	t1,t1,0x23
  24:	0005                	c.nop	1
	...

Disassembly of section .debug_aranges:

00000000 <.debug_aranges>:
   0:	001c                	0x1c
   2:	0000                	unimp
   4:	0002                	c.slli64	zero
   6:	0000                	unimp
   8:	0000                	unimp
   a:	0004                	0x4
   c:	0000                	unimp
   e:	0000                	unimp
  10:	8000                	0x8000
  12:	0000                	unimp
  14:	0090                	addi	a2,sp,64
	...
  1e:	0000                	unimp
  20:	001c                	0x1c
  22:	0000                	unimp
  24:	0002                	c.slli64	zero
  26:	0026                	c.slli	zero,0x9
  28:	0000                	unimp
  2a:	0004                	0x4
  2c:	0000                	unimp
  2e:	0000                	unimp
  30:	8090                	0x8090
  32:	0000                	unimp
  34:	0118                	addi	a4,sp,128
	...

Disassembly of section .debug_str:

00000000 <.debug_str>:
   0:	6d6f682f          	0x6d6f682f
   4:	2f65                	jal	7bc <_start-0x7844>
   6:	6564                	flw	fs1,76(a0)
   8:	6a6e                	flw	fs4,216(sp)
   a:	696d2f6f          	jal	t5,d26a0 <stack_top+0xb26a0>
   e:	706f7263          	bgeu	t5,t1,712 <_start-0x78ee>
  12:	6f72                	flw	ft10,28(sp)
  14:	73736563          	bltu	t1,s7,73e <_start-0x78c2>
  18:	622f726f          	jal	tp,f763a <stack_top+0xd763a>
  1c:	6e65                	lui	t3,0x19
  1e:	616d6863          	bltu	s10,s6,62e <_start-0x79d2>
  22:	6b72                	flw	fs6,28(sp)
  24:	6f742f73          	csrrs	t5,0x6f7,s0
  28:	2f736c6f          	jal	s8,36b1e <stack_top+0x16b1e>
  2c:	2e747263          	bgeu	s0,t2,310 <_start-0x7cf0>
  30:	682f0073          	0x682f0073
  34:	2f656d6f          	jal	s10,5632a <stack_top+0x3632a>
  38:	6564                	flw	fs1,76(a0)
  3a:	6a6e                	flw	fs4,216(sp)
  3c:	696d2f6f          	jal	t5,d26d2 <stack_top+0xb26d2>
  40:	706f7263          	bgeu	t5,t1,744 <_start-0x78bc>
  44:	6f72                	flw	ft10,28(sp)
  46:	73736563          	bltu	t1,s7,770 <_start-0x7890>
  4a:	622f726f          	jal	tp,f766c <stack_top+0xd766c>
  4e:	6e65                	lui	t3,0x19
  50:	616d6863          	bltu	s10,s6,660 <_start-0x79a0>
  54:	6b72                	flw	fs6,28(sp)
  56:	65742f73          	csrrs	t5,0x657,s0
  5a:	00737473          	csrrci	s0,0x7,6
  5e:	20554e47          	fmsub.s	ft8,fa0,ft5,ft4,rmm
  62:	5341                	li	t1,-16
  64:	3220                	fld	fs0,96(a2)
  66:	332e                	fld	ft6,232(sp)
  68:	0035                	c.nop	13
  6a:	6f4c                	flw	fa1,28(a4)
  6c:	6461                	lui	s0,0x18
  6e:	6e41                	lui	t3,0x10
  70:	5364                	lw	s1,100(a4)
  72:	6f74                	flw	fa3,92(a4)
  74:	6572                	flw	fa0,28(sp)
  76:	646f632f          	0x646f632f
  7a:	2e65                	jal	432 <_start-0x7bce>
  7c:	          	ecall
