
LoadAndStore/code.elf:     file format elf32-littleriscv


Disassembly of section .text:

00008000 <_start>:
    8000:	0080006f          	j	8008 <_init_reg>

00008004 <_end>:
    8004:	0000006f          	j	8004 <_end>

00008008 <_init_reg>:
    8008:	00000093          	li	ra,0
    800c:	00000113          	li	sp,0
    8010:	00000193          	li	gp,0
    8014:	00000213          	li	tp,0
    8018:	00000293          	li	t0,0
    801c:	00000313          	li	t1,0
    8020:	00000393          	li	t2,0
    8024:	00000413          	li	s0,0
    8028:	00000493          	li	s1,0
    802c:	00000513          	li	a0,0
    8030:	00000593          	li	a1,0
    8034:	00000613          	li	a2,0
    8038:	00000693          	li	a3,0
    803c:	00000713          	li	a4,0
    8040:	00000793          	li	a5,0
    8044:	00000813          	li	a6,0
    8048:	00000893          	li	a7,0
    804c:	00000913          	li	s2,0
    8050:	00000993          	li	s3,0
    8054:	00000a13          	li	s4,0
    8058:	00000a93          	li	s5,0
    805c:	00000b13          	li	s6,0
    8060:	00000b93          	li	s7,0
    8064:	00000c13          	li	s8,0
    8068:	00000c93          	li	s9,0
    806c:	00000d13          	li	s10,0
    8070:	00000d93          	li	s11,0
    8074:	00000e13          	li	t3,0
    8078:	00000e93          	li	t4,0
    807c:	00000f13          	li	t5,0
    8080:	00000f93          	li	t6,0
    8084:	00020137          	lui	sp,0x20

00008088 <_call_main>:
    8088:	008000ef          	jal	ra,8090 <main>
    808c:	f79ff06f          	j	8004 <_end>

00008090 <main>:
    8090:	00014537          	lui	a0,0x14
    8094:	808805b7          	lui	a1,0x80880
    8098:	00858593          	addi	a1,a1,8 # 80880008 <stack_top+0x80860008>
    809c:	08809637          	lui	a2,0x8809
    80a0:	88060613          	addi	a2,a2,-1920 # 8808880 <stack_top+0x87e8880>
    80a4:	00c0006f          	j	80b0 <main2>

000080a8 <end>:
    80a8:	00100893          	li	a7,1

000080ac <end2>:
    80ac:	0000006f          	j	80ac <end2>

000080b0 <main2>:
    80b0:	00b52023          	sw	a1,0(a0) # 14000 <__bss_end+0xbe58>
    80b4:	00052683          	lw	a3,0(a0)
    80b8:	00d888b3          	add	a7,a7,a3
    80bc:	00051683          	lh	a3,0(a0)
    80c0:	00d888b3          	add	a7,a7,a3
    80c4:	00151683          	lh	a3,1(a0)
    80c8:	00d888b3          	add	a7,a7,a3
    80cc:	00251683          	lh	a3,2(a0)
    80d0:	00d888b3          	add	a7,a7,a3
    80d4:	00050683          	lb	a3,0(a0)
    80d8:	00d888b3          	add	a7,a7,a3
    80dc:	00150683          	lb	a3,1(a0)
    80e0:	00d888b3          	add	a7,a7,a3
    80e4:	00250683          	lb	a3,2(a0)
    80e8:	00d888b3          	add	a7,a7,a3
    80ec:	00350683          	lb	a3,3(a0)
    80f0:	00d888b3          	add	a7,a7,a3
    80f4:	00055683          	lhu	a3,0(a0)
    80f8:	00d888b3          	add	a7,a7,a3
    80fc:	00155683          	lhu	a3,1(a0)
    8100:	00d888b3          	add	a7,a7,a3
    8104:	00255683          	lhu	a3,2(a0)
    8108:	00d888b3          	add	a7,a7,a3
    810c:	00054683          	lbu	a3,0(a0)
    8110:	00d888b3          	add	a7,a7,a3
    8114:	00154683          	lbu	a3,1(a0)
    8118:	00d888b3          	add	a7,a7,a3
    811c:	00254683          	lbu	a3,2(a0)
    8120:	00d888b3          	add	a7,a7,a3
    8124:	00354683          	lbu	a3,3(a0)
    8128:	00d888b3          	add	a7,a7,a3
    812c:	000105b7          	lui	a1,0x10
    8130:	fff58593          	addi	a1,a1,-1 # ffff <__bss_end+0x7e57>
    8134:	01052023          	sw	a6,0(a0)
    8138:	00b51023          	sh	a1,0(a0)
    813c:	00052703          	lw	a4,0(a0)
    8140:	00e888b3          	add	a7,a7,a4
    8144:	01052023          	sw	a6,0(a0)
    8148:	00b510a3          	sh	a1,1(a0)
    814c:	00052703          	lw	a4,0(a0)
    8150:	00e888b3          	add	a7,a7,a4
    8154:	01052023          	sw	a6,0(a0)
    8158:	00b51123          	sh	a1,2(a0)
    815c:	00052703          	lw	a4,0(a0)
    8160:	00e888b3          	add	a7,a7,a4
    8164:	01052023          	sw	a6,0(a0)
    8168:	00b50023          	sb	a1,0(a0)
    816c:	00052703          	lw	a4,0(a0)
    8170:	00e888b3          	add	a7,a7,a4
    8174:	01052023          	sw	a6,0(a0)
    8178:	00b500a3          	sb	a1,1(a0)
    817c:	00052703          	lw	a4,0(a0)
    8180:	00e888b3          	add	a7,a7,a4
    8184:	01052023          	sw	a6,0(a0)
    8188:	00b50123          	sb	a1,2(a0)
    818c:	00052703          	lw	a4,0(a0)
    8190:	00e888b3          	add	a7,a7,a4
    8194:	01052023          	sw	a6,0(a0)
    8198:	00b501a3          	sb	a1,3(a0)
    819c:	00052703          	lw	a4,0(a0)
    81a0:	00e888b3          	add	a7,a7,a4

000081a4 <main3>:
    81a4:	0000006f          	j	81a4 <main3>
