
prog.elf:     file format elf32-littleriscv


Disassembly of section .text:

00008000 <_start>:
    8000:	0080006f          	j	8008 <_init_reg>

00008004 <_end>:
    8004:	0000006f          	j	8004 <_end>

00008008 <_init_reg>:
    8008:	00000093          	li	ra,0
    800c:	00000113          	li	sp,0
    8010:	00000193          	li	gp,0
    8014:	00000213          	li	tp,0
    8018:	00000293          	li	t0,0
    801c:	00000313          	li	t1,0
    8020:	00000393          	li	t2,0
    8024:	00000413          	li	s0,0
    8028:	00000493          	li	s1,0
    802c:	00000513          	li	a0,0
    8030:	00000593          	li	a1,0
    8034:	00000613          	li	a2,0
    8038:	00000693          	li	a3,0
    803c:	00000713          	li	a4,0
    8040:	00000793          	li	a5,0
    8044:	00000813          	li	a6,0
    8048:	00000893          	li	a7,0
    804c:	00000913          	li	s2,0
    8050:	00000993          	li	s3,0
    8054:	00000a13          	li	s4,0
    8058:	00000a93          	li	s5,0
    805c:	00000b13          	li	s6,0
    8060:	00000b93          	li	s7,0
    8064:	00000c13          	li	s8,0
    8068:	00000c93          	li	s9,0
    806c:	00000d13          	li	s10,0
    8070:	00000d93          	li	s11,0
    8074:	00000e13          	li	t3,0
    8078:	00000e93          	li	t4,0
    807c:	00000f13          	li	t5,0
    8080:	00000f93          	li	t6,0
    8084:	00020137          	lui	sp,0x20

00008088 <_call_main>:
    8088:	461040ef          	jal	ra,cce8 <main>
    808c:	f79ff06f          	j	8004 <_end>

00008090 <calc_func>:
    8090:	fe010113          	addi	sp,sp,-32 # 1ffe0 <start_time_val+0xf858>
    8094:	00812c23          	sw	s0,24(sp)
    8098:	00051403          	lh	s0,0(a0)
    809c:	00112e23          	sw	ra,28(sp)
    80a0:	00912a23          	sw	s1,20(sp)
    80a4:	40745793          	srai	a5,s0,0x7
    80a8:	01212823          	sw	s2,16(sp)
    80ac:	01312623          	sw	s3,12(sp)
    80b0:	0017f793          	andi	a5,a5,1
    80b4:	02078263          	beqz	a5,80d8 <calc_func+0x48>
    80b8:	01c12083          	lw	ra,28(sp)
    80bc:	07f47513          	andi	a0,s0,127
    80c0:	01812403          	lw	s0,24(sp)
    80c4:	01412483          	lw	s1,20(sp)
    80c8:	01012903          	lw	s2,16(sp)
    80cc:	00c12983          	lw	s3,12(sp)
    80d0:	02010113          	addi	sp,sp,32
    80d4:	00008067          	ret
    80d8:	00058493          	mv	s1,a1
    80dc:	40345593          	srai	a1,s0,0x3
    80e0:	00f5f593          	andi	a1,a1,15
    80e4:	00459713          	slli	a4,a1,0x4
    80e8:	00747693          	andi	a3,s0,7
    80ec:	0384d783          	lhu	a5,56(s1)
    80f0:	00050993          	mv	s3,a0
    80f4:	00b765b3          	or	a1,a4,a1
    80f8:	04068c63          	beqz	a3,8150 <calc_func+0xc0>
    80fc:	00100713          	li	a4,1
    8100:	08e68a63          	beq	a3,a4,8194 <calc_func+0x104>
    8104:	01041513          	slli	a0,s0,0x10
    8108:	01055513          	srli	a0,a0,0x10
    810c:	00040913          	mv	s2,s0
    8110:	00078593          	mv	a1,a5
    8114:	3dc020ef          	jal	ra,a4f0 <crcu16>
    8118:	00050793          	mv	a5,a0
    811c:	f0047413          	andi	s0,s0,-256
    8120:	07f97513          	andi	a0,s2,127
    8124:	00856433          	or	s0,a0,s0
    8128:	02f49c23          	sh	a5,56(s1)
    812c:	08046413          	ori	s0,s0,128
    8130:	00899023          	sh	s0,0(s3)
    8134:	01c12083          	lw	ra,28(sp)
    8138:	01812403          	lw	s0,24(sp)
    813c:	01412483          	lw	s1,20(sp)
    8140:	01012903          	lw	s2,16(sp)
    8144:	00c12983          	lw	s3,12(sp)
    8148:	02010113          	addi	sp,sp,32
    814c:	00008067          	ret
    8150:	02200693          	li	a3,34
    8154:	00058713          	mv	a4,a1
    8158:	00d5d463          	bge	a1,a3,8160 <calc_func+0xd0>
    815c:	02200713          	li	a4,34
    8160:	00249683          	lh	a3,2(s1)
    8164:	00049603          	lh	a2,0(s1)
    8168:	0144a583          	lw	a1,20(s1)
    816c:	0184a503          	lw	a0,24(s1)
    8170:	0ff77713          	andi	a4,a4,255
    8174:	7dd010ef          	jal	ra,a150 <core_bench_state>
    8178:	03e4d783          	lhu	a5,62(s1)
    817c:	01051913          	slli	s2,a0,0x10
    8180:	41095913          	srai	s2,s2,0x10
    8184:	02079c63          	bnez	a5,81bc <calc_func+0x12c>
    8188:	0384d783          	lhu	a5,56(s1)
    818c:	02a49f23          	sh	a0,62(s1)
    8190:	f81ff06f          	j	8110 <calc_func+0x80>
    8194:	00078613          	mv	a2,a5
    8198:	02848513          	addi	a0,s1,40
    819c:	254010ef          	jal	ra,93f0 <core_bench_matrix>
    81a0:	03c4d783          	lhu	a5,60(s1)
    81a4:	01051913          	slli	s2,a0,0x10
    81a8:	41095913          	srai	s2,s2,0x10
    81ac:	00079863          	bnez	a5,81bc <calc_func+0x12c>
    81b0:	0384d783          	lhu	a5,56(s1)
    81b4:	02a49e23          	sh	a0,60(s1)
    81b8:	f59ff06f          	j	8110 <calc_func+0x80>
    81bc:	0384d783          	lhu	a5,56(s1)
    81c0:	f51ff06f          	j	8110 <calc_func+0x80>

000081c4 <cmp_complex>:
    81c4:	fe010113          	addi	sp,sp,-32
    81c8:	00912a23          	sw	s1,20(sp)
    81cc:	00051483          	lh	s1,0(a0)
    81d0:	00812c23          	sw	s0,24(sp)
    81d4:	01212823          	sw	s2,16(sp)
    81d8:	4074d793          	srai	a5,s1,0x7
    81dc:	01412423          	sw	s4,8(sp)
    81e0:	00112e23          	sw	ra,28(sp)
    81e4:	01312623          	sw	s3,12(sp)
    81e8:	0017f793          	andi	a5,a5,1
    81ec:	00058913          	mv	s2,a1
    81f0:	00060413          	mv	s0,a2
    81f4:	07f4fa13          	andi	s4,s1,127
    81f8:	04079c63          	bnez	a5,8250 <cmp_complex+0x8c>
    81fc:	4034d593          	srai	a1,s1,0x3
    8200:	00f5f593          	andi	a1,a1,15
    8204:	00459693          	slli	a3,a1,0x4
    8208:	0074f713          	andi	a4,s1,7
    820c:	03865783          	lhu	a5,56(a2)
    8210:	00050993          	mv	s3,a0
    8214:	00d5e5b3          	or	a1,a1,a3
    8218:	0e070463          	beqz	a4,8300 <cmp_complex+0x13c>
    821c:	00100693          	li	a3,1
    8220:	16d70463          	beq	a4,a3,8388 <cmp_complex+0x1c4>
    8224:	01049513          	slli	a0,s1,0x10
    8228:	01055513          	srli	a0,a0,0x10
    822c:	00048a13          	mv	s4,s1
    8230:	00078593          	mv	a1,a5
    8234:	07fa7a13          	andi	s4,s4,127
    8238:	f004f493          	andi	s1,s1,-256
    823c:	2b4020ef          	jal	ra,a4f0 <crcu16>
    8240:	009a64b3          	or	s1,s4,s1
    8244:	02a41c23          	sh	a0,56(s0)
    8248:	0804e493          	ori	s1,s1,128
    824c:	00999023          	sh	s1,0(s3)
    8250:	00091483          	lh	s1,0(s2)
    8254:	4074d793          	srai	a5,s1,0x7
    8258:	0017f793          	andi	a5,a5,1
    825c:	07f4f993          	andi	s3,s1,127
    8260:	06079663          	bnez	a5,82cc <cmp_complex+0x108>
    8264:	4034d593          	srai	a1,s1,0x3
    8268:	00f5f593          	andi	a1,a1,15
    826c:	00459693          	slli	a3,a1,0x4
    8270:	0074f713          	andi	a4,s1,7
    8274:	03845783          	lhu	a5,56(s0)
    8278:	00d5e5b3          	or	a1,a1,a3
    827c:	0c070463          	beqz	a4,8344 <cmp_complex+0x180>
    8280:	00100693          	li	a3,1
    8284:	06d71663          	bne	a4,a3,82f0 <cmp_complex+0x12c>
    8288:	00078613          	mv	a2,a5
    828c:	02840513          	addi	a0,s0,40
    8290:	160010ef          	jal	ra,93f0 <core_bench_matrix>
    8294:	03c45783          	lhu	a5,60(s0)
    8298:	01051993          	slli	s3,a0,0x10
    829c:	4109d993          	srai	s3,s3,0x10
    82a0:	10079863          	bnez	a5,83b0 <cmp_complex+0x1ec>
    82a4:	03845783          	lhu	a5,56(s0)
    82a8:	02a41e23          	sh	a0,60(s0)
    82ac:	00078593          	mv	a1,a5
    82b0:	07f9f993          	andi	s3,s3,127
    82b4:	f004f493          	andi	s1,s1,-256
    82b8:	238020ef          	jal	ra,a4f0 <crcu16>
    82bc:	0099e4b3          	or	s1,s3,s1
    82c0:	02a41c23          	sh	a0,56(s0)
    82c4:	0804e493          	ori	s1,s1,128
    82c8:	00991023          	sh	s1,0(s2)
    82cc:	01c12083          	lw	ra,28(sp)
    82d0:	01812403          	lw	s0,24(sp)
    82d4:	413a0533          	sub	a0,s4,s3
    82d8:	01412483          	lw	s1,20(sp)
    82dc:	01012903          	lw	s2,16(sp)
    82e0:	00c12983          	lw	s3,12(sp)
    82e4:	00812a03          	lw	s4,8(sp)
    82e8:	02010113          	addi	sp,sp,32
    82ec:	00008067          	ret
    82f0:	01049513          	slli	a0,s1,0x10
    82f4:	01055513          	srli	a0,a0,0x10
    82f8:	00048993          	mv	s3,s1
    82fc:	fb1ff06f          	j	82ac <cmp_complex+0xe8>
    8300:	02200693          	li	a3,34
    8304:	00058713          	mv	a4,a1
    8308:	00d5d463          	bge	a1,a3,8310 <cmp_complex+0x14c>
    830c:	02200713          	li	a4,34
    8310:	00241683          	lh	a3,2(s0)
    8314:	00041603          	lh	a2,0(s0)
    8318:	01442583          	lw	a1,20(s0)
    831c:	01842503          	lw	a0,24(s0)
    8320:	0ff77713          	andi	a4,a4,255
    8324:	62d010ef          	jal	ra,a150 <core_bench_state>
    8328:	03e45783          	lhu	a5,62(s0)
    832c:	01051a13          	slli	s4,a0,0x10
    8330:	410a5a13          	srai	s4,s4,0x10
    8334:	08079263          	bnez	a5,83b8 <cmp_complex+0x1f4>
    8338:	03845783          	lhu	a5,56(s0)
    833c:	02a41f23          	sh	a0,62(s0)
    8340:	ef1ff06f          	j	8230 <cmp_complex+0x6c>
    8344:	02200693          	li	a3,34
    8348:	00058713          	mv	a4,a1
    834c:	00d5d463          	bge	a1,a3,8354 <cmp_complex+0x190>
    8350:	02200713          	li	a4,34
    8354:	00241683          	lh	a3,2(s0)
    8358:	00041603          	lh	a2,0(s0)
    835c:	01442583          	lw	a1,20(s0)
    8360:	01842503          	lw	a0,24(s0)
    8364:	0ff77713          	andi	a4,a4,255
    8368:	5e9010ef          	jal	ra,a150 <core_bench_state>
    836c:	03e45783          	lhu	a5,62(s0)
    8370:	01051993          	slli	s3,a0,0x10
    8374:	4109d993          	srai	s3,s3,0x10
    8378:	02079c63          	bnez	a5,83b0 <cmp_complex+0x1ec>
    837c:	03845783          	lhu	a5,56(s0)
    8380:	02a41f23          	sh	a0,62(s0)
    8384:	f29ff06f          	j	82ac <cmp_complex+0xe8>
    8388:	00078613          	mv	a2,a5
    838c:	02840513          	addi	a0,s0,40
    8390:	060010ef          	jal	ra,93f0 <core_bench_matrix>
    8394:	03c45783          	lhu	a5,60(s0)
    8398:	01051a13          	slli	s4,a0,0x10
    839c:	410a5a13          	srai	s4,s4,0x10
    83a0:	00079c63          	bnez	a5,83b8 <cmp_complex+0x1f4>
    83a4:	03845783          	lhu	a5,56(s0)
    83a8:	02a41e23          	sh	a0,60(s0)
    83ac:	e85ff06f          	j	8230 <cmp_complex+0x6c>
    83b0:	03845783          	lhu	a5,56(s0)
    83b4:	ef9ff06f          	j	82ac <cmp_complex+0xe8>
    83b8:	03845783          	lhu	a5,56(s0)
    83bc:	e75ff06f          	j	8230 <cmp_complex+0x6c>

000083c0 <cmp_idx>:
    83c0:	00060a63          	beqz	a2,83d4 <cmp_idx+0x14>
    83c4:	00251503          	lh	a0,2(a0)
    83c8:	00259783          	lh	a5,2(a1)
    83cc:	40f50533          	sub	a0,a0,a5
    83d0:	00008067          	ret
    83d4:	00051783          	lh	a5,0(a0)
    83d8:	01079713          	slli	a4,a5,0x10
    83dc:	01075713          	srli	a4,a4,0x10
    83e0:	00875713          	srli	a4,a4,0x8
    83e4:	f007f793          	andi	a5,a5,-256
    83e8:	00e7e7b3          	or	a5,a5,a4
    83ec:	00f51023          	sh	a5,0(a0)
    83f0:	00059783          	lh	a5,0(a1)
    83f4:	00251503          	lh	a0,2(a0)
    83f8:	01079713          	slli	a4,a5,0x10
    83fc:	01075713          	srli	a4,a4,0x10
    8400:	00875713          	srli	a4,a4,0x8
    8404:	f007f793          	andi	a5,a5,-256
    8408:	00e7e7b3          	or	a5,a5,a4
    840c:	00f59023          	sh	a5,0(a1)
    8410:	00259783          	lh	a5,2(a1)
    8414:	40f50533          	sub	a0,a0,a5
    8418:	00008067          	ret

0000841c <copy_info>:
    841c:	00059703          	lh	a4,0(a1)
    8420:	00259783          	lh	a5,2(a1)
    8424:	00e51023          	sh	a4,0(a0)
    8428:	00f51123          	sh	a5,2(a0)
    842c:	00008067          	ret

00008430 <core_bench_list>:
    8430:	00451883          	lh	a7,4(a0)
    8434:	fc010113          	addi	sp,sp,-64
    8438:	02812c23          	sw	s0,56(sp)
    843c:	01b12623          	sw	s11,12(sp)
    8440:	02112e23          	sw	ra,60(sp)
    8444:	02912a23          	sw	s1,52(sp)
    8448:	03212823          	sw	s2,48(sp)
    844c:	03312623          	sw	s3,44(sp)
    8450:	03412423          	sw	s4,40(sp)
    8454:	03512223          	sw	s5,36(sp)
    8458:	03612023          	sw	s6,32(sp)
    845c:	01712e23          	sw	s7,28(sp)
    8460:	01812c23          	sw	s8,24(sp)
    8464:	01912a23          	sw	s9,20(sp)
    8468:	01a12823          	sw	s10,16(sp)
    846c:	02452403          	lw	s0,36(a0)
    8470:	00050d93          	mv	s11,a0
    8474:	00058513          	mv	a0,a1
    8478:	43105263          	blez	a7,889c <core_bench_list+0x46c>
    847c:	00058b93          	mv	s7,a1
    8480:	00000613          	li	a2,0
    8484:	00000813          	li	a6,0
    8488:	00000593          	li	a1,0
    848c:	00000913          	li	s2,0
    8490:	0ff67c93          	andi	s9,a2,255
    8494:	280bc063          	bltz	s7,8714 <core_bench_list+0x2e4>
    8498:	40040a63          	beqz	s0,88ac <core_bench_list+0x47c>
    849c:	00040793          	mv	a5,s0
    84a0:	00c0006f          	j	84ac <core_bench_list+0x7c>
    84a4:	0007a783          	lw	a5,0(a5)
    84a8:	00078863          	beqz	a5,84b8 <core_bench_list+0x88>
    84ac:	0047a703          	lw	a4,4(a5)
    84b0:	00271703          	lh	a4,2(a4)
    84b4:	ff7718e3          	bne	a4,s7,84a4 <core_bench_list+0x74>
    84b8:	00000693          	li	a3,0
    84bc:	00c0006f          	j	84c8 <core_bench_list+0x98>
    84c0:	00040693          	mv	a3,s0
    84c4:	00070413          	mv	s0,a4
    84c8:	00042703          	lw	a4,0(s0)
    84cc:	00d42023          	sw	a3,0(s0)
    84d0:	fe0718e3          	bnez	a4,84c0 <core_bench_list+0x90>
    84d4:	26078263          	beqz	a5,8738 <core_bench_list+0x308>
    84d8:	0047a683          	lw	a3,4(a5)
    84dc:	00158593          	addi	a1,a1,1
    84e0:	01059593          	slli	a1,a1,0x10
    84e4:	00069703          	lh	a4,0(a3)
    84e8:	0105d593          	srli	a1,a1,0x10
    84ec:	00177693          	andi	a3,a4,1
    84f0:	00068c63          	beqz	a3,8508 <core_bench_list+0xd8>
    84f4:	40975713          	srai	a4,a4,0x9
    84f8:	00177713          	andi	a4,a4,1
    84fc:	00e90733          	add	a4,s2,a4
    8500:	01071913          	slli	s2,a4,0x10
    8504:	01095913          	srli	s2,s2,0x10
    8508:	0007a683          	lw	a3,0(a5)
    850c:	00068c63          	beqz	a3,8524 <core_bench_list+0xf4>
    8510:	0006a703          	lw	a4,0(a3)
    8514:	00e7a023          	sw	a4,0(a5)
    8518:	00042783          	lw	a5,0(s0)
    851c:	00f6a023          	sw	a5,0(a3)
    8520:	00d42023          	sw	a3,0(s0)
    8524:	000bc863          	bltz	s7,8534 <core_bench_list+0x104>
    8528:	001b8b93          	addi	s7,s7,1
    852c:	010b9b93          	slli	s7,s7,0x10
    8530:	410bdb93          	srai	s7,s7,0x10
    8534:	00160613          	addi	a2,a2,1
    8538:	01061613          	slli	a2,a2,0x10
    853c:	41065613          	srai	a2,a2,0x10
    8540:	f4c898e3          	bne	a7,a2,8490 <core_bench_list+0x60>
    8544:	00259793          	slli	a5,a1,0x2
    8548:	410787b3          	sub	a5,a5,a6
    854c:	00f907b3          	add	a5,s2,a5
    8550:	01079913          	slli	s2,a5,0x10
    8554:	01095913          	srli	s2,s2,0x10
    8558:	26a04a63          	bgtz	a0,87cc <core_bench_list+0x39c>
    855c:	00042783          	lw	a5,0(s0)
    8560:	00040493          	mv	s1,s0
    8564:	0007a983          	lw	s3,0(a5)
    8568:	0047a703          	lw	a4,4(a5)
    856c:	0049a603          	lw	a2,4(s3)
    8570:	0009a683          	lw	a3,0(s3)
    8574:	00c7a223          	sw	a2,4(a5)
    8578:	00e9a223          	sw	a4,4(s3)
    857c:	00d7a023          	sw	a3,0(a5)
    8580:	0009a023          	sw	zero,0(s3)
    8584:	120bc663          	bltz	s7,86b0 <core_bench_list+0x280>
    8588:	0044a783          	lw	a5,4(s1)
    858c:	00279783          	lh	a5,2(a5)
    8590:	01778a63          	beq	a5,s7,85a4 <core_bench_list+0x174>
    8594:	0004a483          	lw	s1,0(s1)
    8598:	fe0498e3          	bnez	s1,8588 <core_bench_list+0x158>
    859c:	00042483          	lw	s1,0(s0)
    85a0:	02048463          	beqz	s1,85c8 <core_bench_list+0x198>
    85a4:	00442783          	lw	a5,4(s0)
    85a8:	00090593          	mv	a1,s2
    85ac:	00079503          	lh	a0,0(a5)
    85b0:	6e0020ef          	jal	ra,ac90 <crc16>
    85b4:	0004a483          	lw	s1,0(s1)
    85b8:	00050913          	mv	s2,a0
    85bc:	fe0494e3          	bnez	s1,85a4 <core_bench_list+0x174>
    85c0:	00042483          	lw	s1,0(s0)
    85c4:	0049a703          	lw	a4,4(s3)
    85c8:	0044a683          	lw	a3,4(s1)
    85cc:	0004a783          	lw	a5,0(s1)
    85d0:	00100e13          	li	t3,1
    85d4:	00d9a223          	sw	a3,4(s3)
    85d8:	00e4a223          	sw	a4,4(s1)
    85dc:	00f9a023          	sw	a5,0(s3)
    85e0:	0134a023          	sw	s3,0(s1)
    85e4:	00000613          	li	a2,0
    85e8:	00000493          	li	s1,0
    85ec:	00000f13          	li	t5,0
    85f0:	00100f93          	li	t6,1
    85f4:	001f0f13          	addi	t5,t5,1
    85f8:	00040793          	mv	a5,s0
    85fc:	00000713          	li	a4,0
    8600:	0007a783          	lw	a5,0(a5)
    8604:	00170713          	addi	a4,a4,1
    8608:	00078463          	beqz	a5,8610 <core_bench_list+0x1e0>
    860c:	feee1ae3          	bne	t3,a4,8600 <core_bench_list+0x1d0>
    8610:	000e0593          	mv	a1,t3
    8614:	06070c63          	beqz	a4,868c <core_bench_list+0x25c>
    8618:	0a058c63          	beqz	a1,86d0 <core_bench_list+0x2a0>
    861c:	0a078a63          	beqz	a5,86d0 <core_bench_list+0x2a0>
    8620:	00442883          	lw	a7,4(s0)
    8624:	0047a803          	lw	a6,4(a5)
    8628:	00089683          	lh	a3,0(a7)
    862c:	00281e83          	lh	t4,2(a6)
    8630:	00289503          	lh	a0,2(a7)
    8634:	01069313          	slli	t1,a3,0x10
    8638:	01035313          	srli	t1,t1,0x10
    863c:	f006f693          	andi	a3,a3,-256
    8640:	00835313          	srli	t1,t1,0x8
    8644:	0066e6b3          	or	a3,a3,t1
    8648:	00d89023          	sh	a3,0(a7)
    864c:	00081683          	lh	a3,0(a6)
    8650:	41d50533          	sub	a0,a0,t4
    8654:	01069893          	slli	a7,a3,0x10
    8658:	0108d893          	srli	a7,a7,0x10
    865c:	f006f693          	andi	a3,a3,-256
    8660:	0088d893          	srli	a7,a7,0x8
    8664:	0116e6b3          	or	a3,a3,a7
    8668:	00d81023          	sh	a3,0(a6)
    866c:	06a05263          	blez	a0,86d0 <core_bench_list+0x2a0>
    8670:	00078693          	mv	a3,a5
    8674:	0007a783          	lw	a5,0(a5)
    8678:	fff58593          	addi	a1,a1,-1
    867c:	02060463          	beqz	a2,86a4 <core_bench_list+0x274>
    8680:	00d62023          	sw	a3,0(a2)
    8684:	00068613          	mv	a2,a3
    8688:	f80718e3          	bnez	a4,8618 <core_bench_list+0x1e8>
    868c:	04058a63          	beqz	a1,86e0 <core_bench_list+0x2b0>
    8690:	04078e63          	beqz	a5,86ec <core_bench_list+0x2bc>
    8694:	00078693          	mv	a3,a5
    8698:	fff58593          	addi	a1,a1,-1
    869c:	0007a783          	lw	a5,0(a5)
    86a0:	fe0610e3          	bnez	a2,8680 <core_bench_list+0x250>
    86a4:	00068493          	mv	s1,a3
    86a8:	00068613          	mv	a2,a3
    86ac:	fddff06f          	j	8688 <core_bench_list+0x258>
    86b0:	0044a783          	lw	a5,4(s1)
    86b4:	0007c783          	lbu	a5,0(a5)
    86b8:	eefc86e3          	beq	s9,a5,85a4 <core_bench_list+0x174>
    86bc:	0004a483          	lw	s1,0(s1)
    86c0:	fe0498e3          	bnez	s1,86b0 <core_bench_list+0x280>
    86c4:	00042483          	lw	s1,0(s0)
    86c8:	ec049ee3          	bnez	s1,85a4 <core_bench_list+0x174>
    86cc:	efdff06f          	j	85c8 <core_bench_list+0x198>
    86d0:	00040693          	mv	a3,s0
    86d4:	fff70713          	addi	a4,a4,-1
    86d8:	00042403          	lw	s0,0(s0)
    86dc:	fa1ff06f          	j	867c <core_bench_list+0x24c>
    86e0:	00078663          	beqz	a5,86ec <core_bench_list+0x2bc>
    86e4:	00078413          	mv	s0,a5
    86e8:	f0dff06f          	j	85f4 <core_bench_list+0x1c4>
    86ec:	00062023          	sw	zero,0(a2)
    86f0:	07ff0c63          	beq	t5,t6,8768 <core_bench_list+0x338>
    86f4:	001e1e13          	slli	t3,t3,0x1
    86f8:	06048463          	beqz	s1,8760 <core_bench_list+0x330>
    86fc:	00048793          	mv	a5,s1
    8700:	00000f13          	li	t5,0
    8704:	00000613          	li	a2,0
    8708:	00000493          	li	s1,0
    870c:	00078413          	mv	s0,a5
    8710:	ee5ff06f          	j	85f4 <core_bench_list+0x1c4>
    8714:	18040c63          	beqz	s0,88ac <core_bench_list+0x47c>
    8718:	00040793          	mv	a5,s0
    871c:	00c0006f          	j	8728 <core_bench_list+0x2f8>
    8720:	0007a783          	lw	a5,0(a5)
    8724:	d8078ae3          	beqz	a5,84b8 <core_bench_list+0x88>
    8728:	0047a703          	lw	a4,4(a5)
    872c:	00074703          	lbu	a4,0(a4)
    8730:	feec98e3          	bne	s9,a4,8720 <core_bench_list+0x2f0>
    8734:	d85ff06f          	j	84b8 <core_bench_list+0x88>
    8738:	0046a703          	lw	a4,4(a3)
    873c:	00180793          	addi	a5,a6,1
    8740:	01079813          	slli	a6,a5,0x10
    8744:	00170783          	lb	a5,1(a4)
    8748:	01085813          	srli	a6,a6,0x10
    874c:	0017f793          	andi	a5,a5,1
    8750:	00f907b3          	add	a5,s2,a5
    8754:	01079913          	slli	s2,a5,0x10
    8758:	01095913          	srli	s2,s2,0x10
    875c:	dc9ff06f          	j	8524 <core_bench_list+0xf4>
    8760:	00002023          	sw	zero,0(zero) # 0 <_start-0x8000>
    8764:	00100073          	ebreak
    8768:	0004a403          	lw	s0,0(s1)
    876c:	02040063          	beqz	s0,878c <core_bench_list+0x35c>
    8770:	0044a783          	lw	a5,4(s1)
    8774:	00090593          	mv	a1,s2
    8778:	00079503          	lh	a0,0(a5)
    877c:	514020ef          	jal	ra,ac90 <crc16>
    8780:	00042403          	lw	s0,0(s0)
    8784:	00050913          	mv	s2,a0
    8788:	fe0414e3          	bnez	s0,8770 <core_bench_list+0x340>
    878c:	03c12083          	lw	ra,60(sp)
    8790:	03812403          	lw	s0,56(sp)
    8794:	03412483          	lw	s1,52(sp)
    8798:	02c12983          	lw	s3,44(sp)
    879c:	02812a03          	lw	s4,40(sp)
    87a0:	02412a83          	lw	s5,36(sp)
    87a4:	02012b03          	lw	s6,32(sp)
    87a8:	01c12b83          	lw	s7,28(sp)
    87ac:	01812c03          	lw	s8,24(sp)
    87b0:	01412c83          	lw	s9,20(sp)
    87b4:	01012d03          	lw	s10,16(sp)
    87b8:	00c12d83          	lw	s11,12(sp)
    87bc:	00090513          	mv	a0,s2
    87c0:	03012903          	lw	s2,48(sp)
    87c4:	04010113          	addi	sp,sp,64
    87c8:	00008067          	ret
    87cc:	00100d13          	li	s10,1
    87d0:	f80408e3          	beqz	s0,8760 <core_bench_list+0x330>
    87d4:	00000993          	li	s3,0
    87d8:	00000b13          	li	s6,0
    87dc:	00000c13          	li	s8,0
    87e0:	001c0c13          	addi	s8,s8,1
    87e4:	00040793          	mv	a5,s0
    87e8:	00000493          	li	s1,0
    87ec:	0007a783          	lw	a5,0(a5)
    87f0:	00148493          	addi	s1,s1,1
    87f4:	00078463          	beqz	a5,87fc <core_bench_list+0x3cc>
    87f8:	ffa49ae3          	bne	s1,s10,87ec <core_bench_list+0x3bc>
    87fc:	00040a93          	mv	s5,s0
    8800:	000d0a13          	mv	s4,s10
    8804:	00078413          	mv	s0,a5
    8808:	02048e63          	beqz	s1,8844 <core_bench_list+0x414>
    880c:	040a0e63          	beqz	s4,8868 <core_bench_list+0x438>
    8810:	04040c63          	beqz	s0,8868 <core_bench_list+0x438>
    8814:	00442583          	lw	a1,4(s0)
    8818:	004aa503          	lw	a0,4(s5)
    881c:	000d8613          	mv	a2,s11
    8820:	9a5ff0ef          	jal	ra,81c4 <cmp_complex>
    8824:	04a05263          	blez	a0,8868 <core_bench_list+0x438>
    8828:	00040793          	mv	a5,s0
    882c:	00042403          	lw	s0,0(s0)
    8830:	fffa0a13          	addi	s4,s4,-1
    8834:	02098463          	beqz	s3,885c <core_bench_list+0x42c>
    8838:	00f9a023          	sw	a5,0(s3)
    883c:	00078993          	mv	s3,a5
    8840:	fc0496e3          	bnez	s1,880c <core_bench_list+0x3dc>
    8844:	020a0a63          	beqz	s4,8878 <core_bench_list+0x448>
    8848:	02040a63          	beqz	s0,887c <core_bench_list+0x44c>
    884c:	00040793          	mv	a5,s0
    8850:	fffa0a13          	addi	s4,s4,-1
    8854:	00042403          	lw	s0,0(s0)
    8858:	fe0990e3          	bnez	s3,8838 <core_bench_list+0x408>
    885c:	00078b13          	mv	s6,a5
    8860:	00078993          	mv	s3,a5
    8864:	fddff06f          	j	8840 <core_bench_list+0x410>
    8868:	000a8793          	mv	a5,s5
    886c:	fff48493          	addi	s1,s1,-1
    8870:	000aaa83          	lw	s5,0(s5)
    8874:	fc1ff06f          	j	8834 <core_bench_list+0x404>
    8878:	f60414e3          	bnez	s0,87e0 <core_bench_list+0x3b0>
    887c:	0009a023          	sw	zero,0(s3)
    8880:	00100793          	li	a5,1
    8884:	00fc0863          	beq	s8,a5,8894 <core_bench_list+0x464>
    8888:	001d1d13          	slli	s10,s10,0x1
    888c:	000b0413          	mv	s0,s6
    8890:	f41ff06f          	j	87d0 <core_bench_list+0x3a0>
    8894:	000b0413          	mv	s0,s6
    8898:	cc5ff06f          	j	855c <core_bench_list+0x12c>
    889c:	00000c93          	li	s9,0
    88a0:	00058b93          	mv	s7,a1
    88a4:	00000913          	li	s2,0
    88a8:	cb1ff06f          	j	8558 <core_bench_list+0x128>
    88ac:	00002783          	lw	a5,0(zero) # 0 <_start-0x8000>
    88b0:	00100073          	ebreak

000088b4 <core_list_init>:
    88b4:	fe010113          	addi	sp,sp,-32
    88b8:	00812c23          	sw	s0,24(sp)
    88bc:	00058413          	mv	s0,a1
    88c0:	01400593          	li	a1,20
    88c4:	00912a23          	sw	s1,20(sp)
    88c8:	01312623          	sw	s3,12(sp)
    88cc:	00112e23          	sw	ra,28(sp)
    88d0:	00060993          	mv	s3,a2
    88d4:	01212823          	sw	s2,16(sp)
    88d8:	364040ef          	jal	ra,cc3c <__udivsi3>
    88dc:	ffe50513          	addi	a0,a0,-2
    88e0:	00351593          	slli	a1,a0,0x3
    88e4:	00b405b3          	add	a1,s0,a1
    88e8:	ffff87b7          	lui	a5,0xffff8
    88ec:	00042023          	sw	zero,0(s0)
    88f0:	00b42223          	sw	a1,4(s0)
    88f4:	08078713          	addi	a4,a5,128 # ffff8080 <stack_top+0xfffd8080>
    88f8:	00251e13          	slli	t3,a0,0x2
    88fc:	00e59023          	sh	a4,0(a1)
    8900:	00059123          	sh	zero,2(a1)
    8904:	01040713          	addi	a4,s0,16
    8908:	01c58e33          	add	t3,a1,t3
    890c:	00840493          	addi	s1,s0,8
    8910:	00458613          	addi	a2,a1,4
    8914:	24b77863          	bgeu	a4,a1,8b64 <core_list_init+0x2b0>
    8918:	00858693          	addi	a3,a1,8
    891c:	25c6f463          	bgeu	a3,t3,8b64 <core_list_init+0x2b0>
    8920:	00c42623          	sw	a2,12(s0)
    8924:	00042423          	sw	zero,8(s0)
    8928:	00942023          	sw	s1,0(s0)
    892c:	fff7c793          	not	a5,a5
    8930:	fff00613          	li	a2,-1
    8934:	00c59223          	sh	a2,4(a1)
    8938:	00f59323          	sh	a5,6(a1)
    893c:	06050a63          	beqz	a0,89b0 <core_list_init+0xfc>
    8940:	01099f13          	slli	t5,s3,0x10
    8944:	ffff8eb7          	lui	t4,0xffff8
    8948:	010f5f13          	srli	t5,t5,0x10
    894c:	00000613          	li	a2,0
    8950:	fffece93          	not	t4,t4
    8954:	00870893          	addi	a7,a4,8
    8958:	04b8fc63          	bgeu	a7,a1,89b0 <core_list_init+0xfc>
    895c:	00468313          	addi	t1,a3,4
    8960:	05c37463          	bgeu	t1,t3,89a8 <core_list_init+0xf4>
    8964:	01061813          	slli	a6,a2,0x10
    8968:	01085813          	srli	a6,a6,0x10
    896c:	01e847b3          	xor	a5,a6,t5
    8970:	00379793          	slli	a5,a5,0x3
    8974:	00787813          	andi	a6,a6,7
    8978:	0787f793          	andi	a5,a5,120
    897c:	00972023          	sw	s1,0(a4)
    8980:	0107e7b3          	or	a5,a5,a6
    8984:	00e42023          	sw	a4,0(s0)
    8988:	00879813          	slli	a6,a5,0x8
    898c:	00d72223          	sw	a3,4(a4)
    8990:	00f867b3          	or	a5,a6,a5
    8994:	00f69023          	sh	a5,0(a3)
    8998:	01d69123          	sh	t4,2(a3)
    899c:	00070493          	mv	s1,a4
    89a0:	00030693          	mv	a3,t1
    89a4:	00088713          	mv	a4,a7
    89a8:	00160613          	addi	a2,a2,1
    89ac:	fac514e3          	bne	a0,a2,8954 <core_list_init+0xa0>
    89b0:	0004a903          	lw	s2,0(s1)
    89b4:	06090c63          	beqz	s2,8a2c <core_list_init+0x178>
    89b8:	00500593          	li	a1,5
    89bc:	280040ef          	jal	ra,cc3c <__udivsi3>
    89c0:	00004837          	lui	a6,0x4
    89c4:	20000793          	li	a5,512
    89c8:	00100713          	li	a4,1
    89cc:	fff80813          	addi	a6,a6,-1 # 3fff <_start-0x4001>
    89d0:	0280006f          	j	89f8 <core_list_init+0x144>
    89d4:	00092683          	lw	a3,0(s2)
    89d8:	10078793          	addi	a5,a5,256
    89dc:	00e59123          	sh	a4,2(a1)
    89e0:	01079793          	slli	a5,a5,0x10
    89e4:	00170713          	addi	a4,a4,1
    89e8:	0107d793          	srli	a5,a5,0x10
    89ec:	04068063          	beqz	a3,8a2c <core_list_init+0x178>
    89f0:	00090493          	mv	s1,s2
    89f4:	00068913          	mv	s2,a3
    89f8:	0044a583          	lw	a1,4(s1)
    89fc:	fca76ce3          	bltu	a4,a0,89d4 <core_list_init+0x120>
    8a00:	013746b3          	xor	a3,a4,s3
    8a04:	7007f613          	andi	a2,a5,1792
    8a08:	00d66633          	or	a2,a2,a3
    8a0c:	00092683          	lw	a3,0(s2)
    8a10:	01067633          	and	a2,a2,a6
    8a14:	10078793          	addi	a5,a5,256
    8a18:	01079793          	slli	a5,a5,0x10
    8a1c:	00c59123          	sh	a2,2(a1)
    8a20:	00170713          	addi	a4,a4,1
    8a24:	0107d793          	srli	a5,a5,0x10
    8a28:	fc0694e3          	bnez	a3,89f0 <core_list_init+0x13c>
    8a2c:	00100e93          	li	t4,1
    8a30:	00000593          	li	a1,0
    8a34:	00000513          	li	a0,0
    8a38:	00000f93          	li	t6,0
    8a3c:	00100293          	li	t0,1
    8a40:	001f8f93          	addi	t6,t6,1
    8a44:	00040793          	mv	a5,s0
    8a48:	00000713          	li	a4,0
    8a4c:	0007a783          	lw	a5,0(a5)
    8a50:	00170713          	addi	a4,a4,1
    8a54:	00078463          	beqz	a5,8a5c <core_list_init+0x1a8>
    8a58:	ffd71ae3          	bne	a4,t4,8a4c <core_list_init+0x198>
    8a5c:	000e8613          	mv	a2,t4
    8a60:	06070c63          	beqz	a4,8ad8 <core_list_init+0x224>
    8a64:	08060c63          	beqz	a2,8afc <core_list_init+0x248>
    8a68:	08078a63          	beqz	a5,8afc <core_list_init+0x248>
    8a6c:	00442303          	lw	t1,4(s0)
    8a70:	0047a883          	lw	a7,4(a5)
    8a74:	00031683          	lh	a3,0(t1)
    8a78:	00289f03          	lh	t5,2(a7)
    8a7c:	00231803          	lh	a6,2(t1)
    8a80:	01069e13          	slli	t3,a3,0x10
    8a84:	010e5e13          	srli	t3,t3,0x10
    8a88:	f006f693          	andi	a3,a3,-256
    8a8c:	008e5e13          	srli	t3,t3,0x8
    8a90:	01c6e6b3          	or	a3,a3,t3
    8a94:	00d31023          	sh	a3,0(t1)
    8a98:	00089683          	lh	a3,0(a7)
    8a9c:	41e80833          	sub	a6,a6,t5
    8aa0:	01069313          	slli	t1,a3,0x10
    8aa4:	01035313          	srli	t1,t1,0x10
    8aa8:	f006f693          	andi	a3,a3,-256
    8aac:	00835313          	srli	t1,t1,0x8
    8ab0:	0066e6b3          	or	a3,a3,t1
    8ab4:	00d89023          	sh	a3,0(a7)
    8ab8:	05005263          	blez	a6,8afc <core_list_init+0x248>
    8abc:	00078693          	mv	a3,a5
    8ac0:	0007a783          	lw	a5,0(a5)
    8ac4:	fff60613          	addi	a2,a2,-1
    8ac8:	02058463          	beqz	a1,8af0 <core_list_init+0x23c>
    8acc:	00d5a023          	sw	a3,0(a1)
    8ad0:	00068593          	mv	a1,a3
    8ad4:	f80718e3          	bnez	a4,8a64 <core_list_init+0x1b0>
    8ad8:	02060a63          	beqz	a2,8b0c <core_list_init+0x258>
    8adc:	02078e63          	beqz	a5,8b18 <core_list_init+0x264>
    8ae0:	00078693          	mv	a3,a5
    8ae4:	fff60613          	addi	a2,a2,-1
    8ae8:	0007a783          	lw	a5,0(a5)
    8aec:	fe0590e3          	bnez	a1,8acc <core_list_init+0x218>
    8af0:	00068513          	mv	a0,a3
    8af4:	00068593          	mv	a1,a3
    8af8:	fddff06f          	j	8ad4 <core_list_init+0x220>
    8afc:	00040693          	mv	a3,s0
    8b00:	fff70713          	addi	a4,a4,-1
    8b04:	00042403          	lw	s0,0(s0)
    8b08:	fc1ff06f          	j	8ac8 <core_list_init+0x214>
    8b0c:	00078663          	beqz	a5,8b18 <core_list_init+0x264>
    8b10:	00078413          	mv	s0,a5
    8b14:	f2dff06f          	j	8a40 <core_list_init+0x18c>
    8b18:	0005a023          	sw	zero,0(a1)
    8b1c:	025f8263          	beq	t6,t0,8b40 <core_list_init+0x28c>
    8b20:	001e9e93          	slli	t4,t4,0x1
    8b24:	02050c63          	beqz	a0,8b5c <core_list_init+0x2a8>
    8b28:	00050793          	mv	a5,a0
    8b2c:	00000f93          	li	t6,0
    8b30:	00000593          	li	a1,0
    8b34:	00000513          	li	a0,0
    8b38:	00078413          	mv	s0,a5
    8b3c:	f05ff06f          	j	8a40 <core_list_init+0x18c>
    8b40:	01c12083          	lw	ra,28(sp)
    8b44:	01812403          	lw	s0,24(sp)
    8b48:	01412483          	lw	s1,20(sp)
    8b4c:	01012903          	lw	s2,16(sp)
    8b50:	00c12983          	lw	s3,12(sp)
    8b54:	02010113          	addi	sp,sp,32
    8b58:	00008067          	ret
    8b5c:	00002023          	sw	zero,0(zero) # 0 <_start-0x8000>
    8b60:	00100073          	ebreak
    8b64:	00048713          	mv	a4,s1
    8b68:	00060693          	mv	a3,a2
    8b6c:	00000493          	li	s1,0
    8b70:	dcdff06f          	j	893c <core_list_init+0x88>

00008b74 <core_list_insert_new>:
    8b74:	00062803          	lw	a6,0(a2)
    8b78:	00880893          	addi	a7,a6,8
    8b7c:	04e8f663          	bgeu	a7,a4,8bc8 <core_list_insert_new+0x54>
    8b80:	0006a703          	lw	a4,0(a3)
    8b84:	00470313          	addi	t1,a4,4
    8b88:	04f37063          	bgeu	t1,a5,8bc8 <core_list_insert_new+0x54>
    8b8c:	01162023          	sw	a7,0(a2)
    8b90:	00052783          	lw	a5,0(a0)
    8b94:	00059883          	lh	a7,0(a1)
    8b98:	00259603          	lh	a2,2(a1)
    8b9c:	00f82023          	sw	a5,0(a6)
    8ba0:	01052023          	sw	a6,0(a0)
    8ba4:	00e82223          	sw	a4,4(a6)
    8ba8:	0006a783          	lw	a5,0(a3)
    8bac:	00080513          	mv	a0,a6
    8bb0:	00478793          	addi	a5,a5,4
    8bb4:	00f6a023          	sw	a5,0(a3)
    8bb8:	00482783          	lw	a5,4(a6)
    8bbc:	01179023          	sh	a7,0(a5)
    8bc0:	00c79123          	sh	a2,2(a5)
    8bc4:	00008067          	ret
    8bc8:	00000813          	li	a6,0
    8bcc:	00080513          	mv	a0,a6
    8bd0:	00008067          	ret

00008bd4 <core_list_remove>:
    8bd4:	00050793          	mv	a5,a0
    8bd8:	00052503          	lw	a0,0(a0)
    8bdc:	0047a683          	lw	a3,4(a5)
    8be0:	00452603          	lw	a2,4(a0)
    8be4:	00052703          	lw	a4,0(a0)
    8be8:	00c7a223          	sw	a2,4(a5)
    8bec:	00d52223          	sw	a3,4(a0)
    8bf0:	00e7a023          	sw	a4,0(a5)
    8bf4:	00052023          	sw	zero,0(a0)
    8bf8:	00008067          	ret

00008bfc <core_list_undo_remove>:
    8bfc:	0045a603          	lw	a2,4(a1)
    8c00:	00452683          	lw	a3,4(a0)
    8c04:	0005a703          	lw	a4,0(a1)
    8c08:	00c52223          	sw	a2,4(a0)
    8c0c:	00d5a223          	sw	a3,4(a1)
    8c10:	00e52023          	sw	a4,0(a0)
    8c14:	00a5a023          	sw	a0,0(a1)
    8c18:	00008067          	ret

00008c1c <core_list_find>:
    8c1c:	00259703          	lh	a4,2(a1)
    8c20:	02074263          	bltz	a4,8c44 <core_list_find+0x28>
    8c24:	00051863          	bnez	a0,8c34 <core_list_find+0x18>
    8c28:	0480006f          	j	8c70 <core_list_find+0x54>
    8c2c:	00052503          	lw	a0,0(a0)
    8c30:	02050c63          	beqz	a0,8c68 <core_list_find+0x4c>
    8c34:	00452783          	lw	a5,4(a0)
    8c38:	00279783          	lh	a5,2(a5)
    8c3c:	fee798e3          	bne	a5,a4,8c2c <core_list_find+0x10>
    8c40:	00008067          	ret
    8c44:	02050263          	beqz	a0,8c68 <core_list_find+0x4c>
    8c48:	00059703          	lh	a4,0(a1)
    8c4c:	00c0006f          	j	8c58 <core_list_find+0x3c>
    8c50:	00052503          	lw	a0,0(a0)
    8c54:	00050c63          	beqz	a0,8c6c <core_list_find+0x50>
    8c58:	00452783          	lw	a5,4(a0)
    8c5c:	0007c783          	lbu	a5,0(a5)
    8c60:	fee798e3          	bne	a5,a4,8c50 <core_list_find+0x34>
    8c64:	00008067          	ret
    8c68:	00000513          	li	a0,0
    8c6c:	00008067          	ret
    8c70:	00008067          	ret

00008c74 <core_list_reverse>:
    8c74:	02050063          	beqz	a0,8c94 <core_list_reverse+0x20>
    8c78:	00000713          	li	a4,0
    8c7c:	0080006f          	j	8c84 <core_list_reverse+0x10>
    8c80:	00078513          	mv	a0,a5
    8c84:	00052783          	lw	a5,0(a0)
    8c88:	00e52023          	sw	a4,0(a0)
    8c8c:	00050713          	mv	a4,a0
    8c90:	fe0798e3          	bnez	a5,8c80 <core_list_reverse+0xc>
    8c94:	00008067          	ret

00008c98 <core_list_mergesort>:
    8c98:	fd010113          	addi	sp,sp,-48
    8c9c:	02912223          	sw	s1,36(sp)
    8ca0:	01512a23          	sw	s5,20(sp)
    8ca4:	01712623          	sw	s7,12(sp)
    8ca8:	01912223          	sw	s9,4(sp)
    8cac:	01a12023          	sw	s10,0(sp)
    8cb0:	02112623          	sw	ra,44(sp)
    8cb4:	02812423          	sw	s0,40(sp)
    8cb8:	03212023          	sw	s2,32(sp)
    8cbc:	01312e23          	sw	s3,28(sp)
    8cc0:	01412c23          	sw	s4,24(sp)
    8cc4:	01612823          	sw	s6,16(sp)
    8cc8:	01812423          	sw	s8,8(sp)
    8ccc:	00050493          	mv	s1,a0
    8cd0:	00058b93          	mv	s7,a1
    8cd4:	00060d13          	mv	s10,a2
    8cd8:	00100a93          	li	s5,1
    8cdc:	00100c93          	li	s9,1
    8ce0:	0c048063          	beqz	s1,8da0 <core_list_mergesort+0x108>
    8ce4:	00000c13          	li	s8,0
    8ce8:	00000913          	li	s2,0
    8cec:	00000b13          	li	s6,0
    8cf0:	001c0c13          	addi	s8,s8,1
    8cf4:	00048793          	mv	a5,s1
    8cf8:	00000413          	li	s0,0
    8cfc:	0007a783          	lw	a5,0(a5)
    8d00:	00140413          	addi	s0,s0,1
    8d04:	00078463          	beqz	a5,8d0c <core_list_mergesort+0x74>
    8d08:	fe8a9ae3          	bne	s5,s0,8cfc <core_list_mergesort+0x64>
    8d0c:	00048a13          	mv	s4,s1
    8d10:	000a8993          	mv	s3,s5
    8d14:	00078493          	mv	s1,a5
    8d18:	02040e63          	beqz	s0,8d54 <core_list_mergesort+0xbc>
    8d1c:	04098e63          	beqz	s3,8d78 <core_list_mergesort+0xe0>
    8d20:	04048c63          	beqz	s1,8d78 <core_list_mergesort+0xe0>
    8d24:	0044a583          	lw	a1,4(s1)
    8d28:	004a2503          	lw	a0,4(s4)
    8d2c:	000d0613          	mv	a2,s10
    8d30:	000b80e7          	jalr	s7
    8d34:	04a05263          	blez	a0,8d78 <core_list_mergesort+0xe0>
    8d38:	00048793          	mv	a5,s1
    8d3c:	0004a483          	lw	s1,0(s1)
    8d40:	fff98993          	addi	s3,s3,-1
    8d44:	02090463          	beqz	s2,8d6c <core_list_mergesort+0xd4>
    8d48:	00f92023          	sw	a5,0(s2)
    8d4c:	00078913          	mv	s2,a5
    8d50:	fc0416e3          	bnez	s0,8d1c <core_list_mergesort+0x84>
    8d54:	02098a63          	beqz	s3,8d88 <core_list_mergesort+0xf0>
    8d58:	02048a63          	beqz	s1,8d8c <core_list_mergesort+0xf4>
    8d5c:	00048793          	mv	a5,s1
    8d60:	fff98993          	addi	s3,s3,-1
    8d64:	0004a483          	lw	s1,0(s1)
    8d68:	fe0910e3          	bnez	s2,8d48 <core_list_mergesort+0xb0>
    8d6c:	00078b13          	mv	s6,a5
    8d70:	00078913          	mv	s2,a5
    8d74:	fddff06f          	j	8d50 <core_list_mergesort+0xb8>
    8d78:	000a0793          	mv	a5,s4
    8d7c:	fff40413          	addi	s0,s0,-1
    8d80:	000a2a03          	lw	s4,0(s4)
    8d84:	fc1ff06f          	j	8d44 <core_list_mergesort+0xac>
    8d88:	f60494e3          	bnez	s1,8cf0 <core_list_mergesort+0x58>
    8d8c:	00092023          	sw	zero,0(s2)
    8d90:	019c0c63          	beq	s8,s9,8da8 <core_list_mergesort+0x110>
    8d94:	001a9a93          	slli	s5,s5,0x1
    8d98:	000b0493          	mv	s1,s6
    8d9c:	f45ff06f          	j	8ce0 <core_list_mergesort+0x48>
    8da0:	00002023          	sw	zero,0(zero) # 0 <_start-0x8000>
    8da4:	00100073          	ebreak
    8da8:	02c12083          	lw	ra,44(sp)
    8dac:	02812403          	lw	s0,40(sp)
    8db0:	02412483          	lw	s1,36(sp)
    8db4:	02012903          	lw	s2,32(sp)
    8db8:	01c12983          	lw	s3,28(sp)
    8dbc:	01812a03          	lw	s4,24(sp)
    8dc0:	01412a83          	lw	s5,20(sp)
    8dc4:	00c12b83          	lw	s7,12(sp)
    8dc8:	00812c03          	lw	s8,8(sp)
    8dcc:	00412c83          	lw	s9,4(sp)
    8dd0:	00012d03          	lw	s10,0(sp)
    8dd4:	000b0513          	mv	a0,s6
    8dd8:	01012b03          	lw	s6,16(sp)
    8ddc:	03010113          	addi	sp,sp,48
    8de0:	00008067          	ret

00008de4 <iterate>:
    8de4:	ff010113          	addi	sp,sp,-16
    8de8:	01212023          	sw	s2,0(sp)
    8dec:	01c52903          	lw	s2,28(a0)
    8df0:	00112623          	sw	ra,12(sp)
    8df4:	00812423          	sw	s0,8(sp)
    8df8:	00912223          	sw	s1,4(sp)
    8dfc:	02052c23          	sw	zero,56(a0)
    8e00:	02052e23          	sw	zero,60(a0)
    8e04:	04090463          	beqz	s2,8e4c <iterate+0x68>
    8e08:	00050413          	mv	s0,a0
    8e0c:	00000493          	li	s1,0
    8e10:	00100593          	li	a1,1
    8e14:	00040513          	mv	a0,s0
    8e18:	e18ff0ef          	jal	ra,8430 <core_bench_list>
    8e1c:	03845583          	lhu	a1,56(s0)
    8e20:	6d0010ef          	jal	ra,a4f0 <crcu16>
    8e24:	02a41c23          	sh	a0,56(s0)
    8e28:	fff00593          	li	a1,-1
    8e2c:	00040513          	mv	a0,s0
    8e30:	e00ff0ef          	jal	ra,8430 <core_bench_list>
    8e34:	03845583          	lhu	a1,56(s0)
    8e38:	6b8010ef          	jal	ra,a4f0 <crcu16>
    8e3c:	02a41c23          	sh	a0,56(s0)
    8e40:	02048463          	beqz	s1,8e68 <iterate+0x84>
    8e44:	00148493          	addi	s1,s1,1
    8e48:	fc9914e3          	bne	s2,s1,8e10 <iterate+0x2c>
    8e4c:	00c12083          	lw	ra,12(sp)
    8e50:	00812403          	lw	s0,8(sp)
    8e54:	00412483          	lw	s1,4(sp)
    8e58:	00012903          	lw	s2,0(sp)
    8e5c:	00000513          	li	a0,0
    8e60:	01010113          	addi	sp,sp,16
    8e64:	00008067          	ret
    8e68:	02a41d23          	sh	a0,58(s0)
    8e6c:	00100793          	li	a5,1
    8e70:	fcf90ee3          	beq	s2,a5,8e4c <iterate+0x68>
    8e74:	00100493          	li	s1,1
    8e78:	f99ff06f          	j	8e10 <iterate+0x2c>

00008e7c <matrix_test>:
    8e7c:	fa010113          	addi	sp,sp,-96
    8e80:	05212823          	sw	s2,80(sp)
    8e84:	04112e23          	sw	ra,92(sp)
    8e88:	fffff937          	lui	s2,0xfffff
    8e8c:	04812c23          	sw	s0,88(sp)
    8e90:	04912a23          	sw	s1,84(sp)
    8e94:	05312623          	sw	s3,76(sp)
    8e98:	05412423          	sw	s4,72(sp)
    8e9c:	05512223          	sw	s5,68(sp)
    8ea0:	05612023          	sw	s6,64(sp)
    8ea4:	03712e23          	sw	s7,60(sp)
    8ea8:	03812c23          	sw	s8,56(sp)
    8eac:	03912a23          	sw	s9,52(sp)
    8eb0:	03a12823          	sw	s10,48(sp)
    8eb4:	03b12623          	sw	s11,44(sp)
    8eb8:	00b12223          	sw	a1,4(sp)
    8ebc:	00c12823          	sw	a2,16(sp)
    8ec0:	00d12423          	sw	a3,8(sp)
    8ec4:	01276933          	or	s2,a4,s2
    8ec8:	4e050c63          	beqz	a0,93c0 <matrix_test+0x544>
    8ecc:	40a00ab3          	neg	s5,a0
    8ed0:	00151493          	slli	s1,a0,0x1
    8ed4:	001a9793          	slli	a5,s5,0x1
    8ed8:	009609b3          	add	s3,a2,s1
    8edc:	01071b13          	slli	s6,a4,0x10
    8ee0:	00070d13          	mv	s10,a4
    8ee4:	00050813          	mv	a6,a0
    8ee8:	010b5b13          	srli	s6,s6,0x10
    8eec:	00f12623          	sw	a5,12(sp)
    8ef0:	00098693          	mv	a3,s3
    8ef4:	00000a13          	li	s4,0
    8ef8:	002a9a93          	slli	s5,s5,0x2
    8efc:	00c12783          	lw	a5,12(sp)
    8f00:	00f68633          	add	a2,a3,a5
    8f04:	00060793          	mv	a5,a2
    8f08:	0007d703          	lhu	a4,0(a5)
    8f0c:	00278793          	addi	a5,a5,2
    8f10:	00eb0733          	add	a4,s6,a4
    8f14:	fee79f23          	sh	a4,-2(a5)
    8f18:	fed798e3          	bne	a5,a3,8f08 <matrix_test+0x8c>
    8f1c:	001a0413          	addi	s0,s4,1
    8f20:	415606b3          	sub	a3,a2,s5
    8f24:	00880663          	beq	a6,s0,8f30 <matrix_test+0xb4>
    8f28:	00040a13          	mv	s4,s0
    8f2c:	fd1ff06f          	j	8efc <matrix_test+0x80>
    8f30:	00000c93          	li	s9,0
    8f34:	00012a23          	sw	zero,20(sp)
    8f38:	00c12783          	lw	a5,12(sp)
    8f3c:	002c9713          	slli	a4,s9,0x2
    8f40:	01378db3          	add	s11,a5,s3
    8f44:	00412783          	lw	a5,4(sp)
    8f48:	000d8b93          	mv	s7,s11
    8f4c:	00f70c33          	add	s8,a4,a5
    8f50:	000b9503          	lh	a0,0(s7)
    8f54:	000d0593          	mv	a1,s10
    8f58:	002b8b93          	addi	s7,s7,2
    8f5c:	4b5030ef          	jal	ra,cc10 <__mulsi3>
    8f60:	00ac2023          	sw	a0,0(s8)
    8f64:	004c0c13          	addi	s8,s8,4
    8f68:	ff3b94e3          	bne	s7,s3,8f50 <matrix_test+0xd4>
    8f6c:	01412703          	lw	a4,20(sp)
    8f70:	008c8cb3          	add	s9,s9,s0
    8f74:	415d89b3          	sub	s3,s11,s5
    8f78:	00170793          	addi	a5,a4,1
    8f7c:	01470663          	beq	a4,s4,8f88 <matrix_test+0x10c>
    8f80:	00f12a23          	sw	a5,20(sp)
    8f84:	fb5ff06f          	j	8f38 <matrix_test+0xbc>
    8f88:	00412703          	lw	a4,4(sp)
    8f8c:	00241793          	slli	a5,s0,0x2
    8f90:	40800e33          	neg	t3,s0
    8f94:	00f70cb3          	add	s9,a4,a5
    8f98:	00f12c23          	sw	a5,24(sp)
    8f9c:	000c8813          	mv	a6,s9
    8fa0:	00000513          	li	a0,0
    8fa4:	00000713          	li	a4,0
    8fa8:	00000613          	li	a2,0
    8fac:	00000893          	li	a7,0
    8fb0:	003e1e13          	slli	t3,t3,0x3
    8fb4:	010a8333          	add	t1,s5,a6
    8fb8:	00030793          	mv	a5,t1
    8fbc:	0140006f          	j	8fd0 <matrix_test+0x154>
    8fc0:	01051513          	slli	a0,a0,0x10
    8fc4:	00478793          	addi	a5,a5,4
    8fc8:	41055513          	srai	a0,a0,0x10
    8fcc:	03078e63          	beq	a5,a6,9008 <matrix_test+0x18c>
    8fd0:	00070693          	mv	a3,a4
    8fd4:	0007a703          	lw	a4,0(a5)
    8fd8:	01051513          	slli	a0,a0,0x10
    8fdc:	01055513          	srli	a0,a0,0x10
    8fe0:	00e6a6b3          	slt	a3,a3,a4
    8fe4:	00e60633          	add	a2,a2,a4
    8fe8:	00a50593          	addi	a1,a0,10
    8fec:	00d50533          	add	a0,a0,a3
    8ff0:	fcc958e3          	bge	s2,a2,8fc0 <matrix_test+0x144>
    8ff4:	01059513          	slli	a0,a1,0x10
    8ff8:	00478793          	addi	a5,a5,4
    8ffc:	41055513          	srai	a0,a0,0x10
    9000:	00000613          	li	a2,0
    9004:	fd0796e3          	bne	a5,a6,8fd0 <matrix_test+0x154>
    9008:	00188793          	addi	a5,a7,1
    900c:	41c30833          	sub	a6,t1,t3
    9010:	011a0663          	beq	s4,a7,901c <matrix_test+0x1a0>
    9014:	00078893          	mv	a7,a5
    9018:	f9dff06f          	j	8fb4 <matrix_test+0x138>
    901c:	00000593          	li	a1,0
    9020:	471010ef          	jal	ra,ac90 <crc16>
    9024:	00812783          	lw	a5,8(sp)
    9028:	00412a03          	lw	s4,4(sp)
    902c:	00050d13          	mv	s10,a0
    9030:	009789b3          	add	s3,a5,s1
    9034:	00000a93          	li	s5,0
    9038:	01012703          	lw	a4,16(sp)
    903c:	00812d83          	lw	s11,8(sp)
    9040:	001a9793          	slli	a5,s5,0x1
    9044:	00f70c33          	add	s8,a4,a5
    9048:	00000b93          	li	s7,0
    904c:	000d9583          	lh	a1,0(s11)
    9050:	000c1503          	lh	a0,0(s8)
    9054:	002d8d93          	addi	s11,s11,2
    9058:	002c0c13          	addi	s8,s8,2
    905c:	3b5030ef          	jal	ra,cc10 <__mulsi3>
    9060:	00ab8bb3          	add	s7,s7,a0
    9064:	ffb994e3          	bne	s3,s11,904c <matrix_test+0x1d0>
    9068:	017a2023          	sw	s7,0(s4)
    906c:	004a0a13          	addi	s4,s4,4
    9070:	008a8ab3          	add	s5,s5,s0
    9074:	fd9a12e3          	bne	s4,s9,9038 <matrix_test+0x1bc>
    9078:	00000313          	li	t1,0
    907c:	00000513          	li	a0,0
    9080:	00000793          	li	a5,0
    9084:	00000693          	li	a3,0
    9088:	00000893          	li	a7,0
    908c:	00412703          	lw	a4,4(sp)
    9090:	00231613          	slli	a2,t1,0x2
    9094:	00000593          	li	a1,0
    9098:	00c70633          	add	a2,a4,a2
    909c:	0180006f          	j	90b4 <matrix_test+0x238>
    90a0:	01051513          	slli	a0,a0,0x10
    90a4:	00158593          	addi	a1,a1,1
    90a8:	41055513          	srai	a0,a0,0x10
    90ac:	00460613          	addi	a2,a2,4
    90b0:	0485f063          	bgeu	a1,s0,90f0 <matrix_test+0x274>
    90b4:	00078713          	mv	a4,a5
    90b8:	00062783          	lw	a5,0(a2)
    90bc:	01051513          	slli	a0,a0,0x10
    90c0:	01055513          	srli	a0,a0,0x10
    90c4:	00f72733          	slt	a4,a4,a5
    90c8:	00f686b3          	add	a3,a3,a5
    90cc:	00a50813          	addi	a6,a0,10
    90d0:	00e50533          	add	a0,a0,a4
    90d4:	fcd956e3          	bge	s2,a3,90a0 <matrix_test+0x224>
    90d8:	01081513          	slli	a0,a6,0x10
    90dc:	00158593          	addi	a1,a1,1
    90e0:	41055513          	srai	a0,a0,0x10
    90e4:	00000693          	li	a3,0
    90e8:	00460613          	addi	a2,a2,4
    90ec:	fc85e4e3          	bltu	a1,s0,90b4 <matrix_test+0x238>
    90f0:	00188893          	addi	a7,a7,1
    90f4:	00830333          	add	t1,t1,s0
    90f8:	f888eae3          	bltu	a7,s0,908c <matrix_test+0x210>
    90fc:	000d0593          	mv	a1,s10
    9100:	391010ef          	jal	ra,ac90 <crc16>
    9104:	00412783          	lw	a5,4(sp)
    9108:	01012c83          	lw	s9,16(sp)
    910c:	00a12e23          	sw	a0,28(sp)
    9110:	00f12623          	sw	a5,12(sp)
    9114:	00012a23          	sw	zero,20(sp)
    9118:	00812a83          	lw	s5,8(sp)
    911c:	00c12a03          	lw	s4,12(sp)
    9120:	00000993          	li	s3,0
    9124:	000a8d93          	mv	s11,s5
    9128:	000c8d13          	mv	s10,s9
    912c:	00000b93          	li	s7,0
    9130:	00000c13          	li	s8,0
    9134:	000d9583          	lh	a1,0(s11)
    9138:	000d1503          	lh	a0,0(s10)
    913c:	001c0c13          	addi	s8,s8,1
    9140:	002d0d13          	addi	s10,s10,2
    9144:	2cd030ef          	jal	ra,cc10 <__mulsi3>
    9148:	00ab8bb3          	add	s7,s7,a0
    914c:	009d8db3          	add	s11,s11,s1
    9150:	fe8c62e3          	bltu	s8,s0,9134 <matrix_test+0x2b8>
    9154:	017a2023          	sw	s7,0(s4)
    9158:	00198993          	addi	s3,s3,1
    915c:	004a0a13          	addi	s4,s4,4
    9160:	002a8a93          	addi	s5,s5,2
    9164:	fc89e0e3          	bltu	s3,s0,9124 <matrix_test+0x2a8>
    9168:	01412783          	lw	a5,20(sp)
    916c:	00c12703          	lw	a4,12(sp)
    9170:	01812683          	lw	a3,24(sp)
    9174:	00178793          	addi	a5,a5,1
    9178:	00f12a23          	sw	a5,20(sp)
    917c:	00d70733          	add	a4,a4,a3
    9180:	00e12623          	sw	a4,12(sp)
    9184:	009c8cb3          	add	s9,s9,s1
    9188:	f887e8e3          	bltu	a5,s0,9118 <matrix_test+0x29c>
    918c:	00000313          	li	t1,0
    9190:	00000513          	li	a0,0
    9194:	00000793          	li	a5,0
    9198:	00000693          	li	a3,0
    919c:	00000893          	li	a7,0
    91a0:	00412703          	lw	a4,4(sp)
    91a4:	00231613          	slli	a2,t1,0x2
    91a8:	00000593          	li	a1,0
    91ac:	00c70633          	add	a2,a4,a2
    91b0:	0180006f          	j	91c8 <matrix_test+0x34c>
    91b4:	01051513          	slli	a0,a0,0x10
    91b8:	00158593          	addi	a1,a1,1
    91bc:	41055513          	srai	a0,a0,0x10
    91c0:	00460613          	addi	a2,a2,4
    91c4:	0485f063          	bgeu	a1,s0,9204 <matrix_test+0x388>
    91c8:	00078713          	mv	a4,a5
    91cc:	00062783          	lw	a5,0(a2)
    91d0:	01051513          	slli	a0,a0,0x10
    91d4:	01055513          	srli	a0,a0,0x10
    91d8:	00f72733          	slt	a4,a4,a5
    91dc:	00f686b3          	add	a3,a3,a5
    91e0:	00a50813          	addi	a6,a0,10
    91e4:	00e50533          	add	a0,a0,a4
    91e8:	fcd956e3          	bge	s2,a3,91b4 <matrix_test+0x338>
    91ec:	01081513          	slli	a0,a6,0x10
    91f0:	00158593          	addi	a1,a1,1
    91f4:	41055513          	srai	a0,a0,0x10
    91f8:	00000693          	li	a3,0
    91fc:	00460613          	addi	a2,a2,4
    9200:	fc85e4e3          	bltu	a1,s0,91c8 <matrix_test+0x34c>
    9204:	00188893          	addi	a7,a7,1
    9208:	00830333          	add	t1,t1,s0
    920c:	f888eae3          	bltu	a7,s0,91a0 <matrix_test+0x324>
    9210:	01c12583          	lw	a1,28(sp)
    9214:	27d010ef          	jal	ra,ac90 <crc16>
    9218:	00412783          	lw	a5,4(sp)
    921c:	01012c83          	lw	s9,16(sp)
    9220:	00a12e23          	sw	a0,28(sp)
    9224:	00f12623          	sw	a5,12(sp)
    9228:	00012a23          	sw	zero,20(sp)
    922c:	00812a83          	lw	s5,8(sp)
    9230:	00c12a03          	lw	s4,12(sp)
    9234:	00000993          	li	s3,0
    9238:	000a8b93          	mv	s7,s5
    923c:	000c8c13          	mv	s8,s9
    9240:	00000d13          	li	s10,0
    9244:	00000d93          	li	s11,0
    9248:	000b9583          	lh	a1,0(s7)
    924c:	000c1503          	lh	a0,0(s8)
    9250:	001d8d93          	addi	s11,s11,1
    9254:	002c0c13          	addi	s8,s8,2
    9258:	1b9030ef          	jal	ra,cc10 <__mulsi3>
    925c:	40255813          	srai	a6,a0,0x2
    9260:	40555593          	srai	a1,a0,0x5
    9264:	07f5f593          	andi	a1,a1,127
    9268:	00f87513          	andi	a0,a6,15
    926c:	1a5030ef          	jal	ra,cc10 <__mulsi3>
    9270:	00ad0d33          	add	s10,s10,a0
    9274:	009b8bb3          	add	s7,s7,s1
    9278:	fc8de8e3          	bltu	s11,s0,9248 <matrix_test+0x3cc>
    927c:	01aa2023          	sw	s10,0(s4)
    9280:	00198993          	addi	s3,s3,1
    9284:	004a0a13          	addi	s4,s4,4
    9288:	002a8a93          	addi	s5,s5,2
    928c:	fa89e6e3          	bltu	s3,s0,9238 <matrix_test+0x3bc>
    9290:	01412783          	lw	a5,20(sp)
    9294:	00c12703          	lw	a4,12(sp)
    9298:	01812683          	lw	a3,24(sp)
    929c:	00178793          	addi	a5,a5,1
    92a0:	00f12a23          	sw	a5,20(sp)
    92a4:	00d70733          	add	a4,a4,a3
    92a8:	00e12623          	sw	a4,12(sp)
    92ac:	009c8cb3          	add	s9,s9,s1
    92b0:	f687eee3          	bltu	a5,s0,922c <matrix_test+0x3b0>
    92b4:	00000313          	li	t1,0
    92b8:	00000513          	li	a0,0
    92bc:	00000793          	li	a5,0
    92c0:	00000693          	li	a3,0
    92c4:	00000893          	li	a7,0
    92c8:	00412703          	lw	a4,4(sp)
    92cc:	00231613          	slli	a2,t1,0x2
    92d0:	00000593          	li	a1,0
    92d4:	00c70633          	add	a2,a4,a2
    92d8:	0180006f          	j	92f0 <matrix_test+0x474>
    92dc:	01051513          	slli	a0,a0,0x10
    92e0:	00158593          	addi	a1,a1,1
    92e4:	41055513          	srai	a0,a0,0x10
    92e8:	00460613          	addi	a2,a2,4
    92ec:	0485f063          	bgeu	a1,s0,932c <matrix_test+0x4b0>
    92f0:	00078713          	mv	a4,a5
    92f4:	00062783          	lw	a5,0(a2)
    92f8:	01051513          	slli	a0,a0,0x10
    92fc:	01055513          	srli	a0,a0,0x10
    9300:	00f72733          	slt	a4,a4,a5
    9304:	00f686b3          	add	a3,a3,a5
    9308:	00a50813          	addi	a6,a0,10
    930c:	00e50533          	add	a0,a0,a4
    9310:	fcd956e3          	bge	s2,a3,92dc <matrix_test+0x460>
    9314:	01081513          	slli	a0,a6,0x10
    9318:	00158593          	addi	a1,a1,1
    931c:	41055513          	srai	a0,a0,0x10
    9320:	00000693          	li	a3,0
    9324:	00460613          	addi	a2,a2,4
    9328:	fc85e4e3          	bltu	a1,s0,92f0 <matrix_test+0x474>
    932c:	00188893          	addi	a7,a7,1
    9330:	00830333          	add	t1,t1,s0
    9334:	f888eae3          	bltu	a7,s0,92c8 <matrix_test+0x44c>
    9338:	01c12583          	lw	a1,28(sp)
    933c:	155010ef          	jal	ra,ac90 <crc16>
    9340:	00000593          	li	a1,0
    9344:	00000613          	li	a2,0
    9348:	01012703          	lw	a4,16(sp)
    934c:	00159793          	slli	a5,a1,0x1
    9350:	00000693          	li	a3,0
    9354:	00f707b3          	add	a5,a4,a5
    9358:	0007d703          	lhu	a4,0(a5)
    935c:	00278793          	addi	a5,a5,2
    9360:	00168693          	addi	a3,a3,1
    9364:	41670733          	sub	a4,a4,s6
    9368:	fee79f23          	sh	a4,-2(a5)
    936c:	fe86e6e3          	bltu	a3,s0,9358 <matrix_test+0x4dc>
    9370:	00160613          	addi	a2,a2,1
    9374:	008585b3          	add	a1,a1,s0
    9378:	fc8668e3          	bltu	a2,s0,9348 <matrix_test+0x4cc>
    937c:	05c12083          	lw	ra,92(sp)
    9380:	05812403          	lw	s0,88(sp)
    9384:	01051513          	slli	a0,a0,0x10
    9388:	05412483          	lw	s1,84(sp)
    938c:	05012903          	lw	s2,80(sp)
    9390:	04c12983          	lw	s3,76(sp)
    9394:	04812a03          	lw	s4,72(sp)
    9398:	04412a83          	lw	s5,68(sp)
    939c:	04012b03          	lw	s6,64(sp)
    93a0:	03c12b83          	lw	s7,60(sp)
    93a4:	03812c03          	lw	s8,56(sp)
    93a8:	03412c83          	lw	s9,52(sp)
    93ac:	03012d03          	lw	s10,48(sp)
    93b0:	02c12d83          	lw	s11,44(sp)
    93b4:	41055513          	srai	a0,a0,0x10
    93b8:	06010113          	addi	sp,sp,96
    93bc:	00008067          	ret
    93c0:	00000593          	li	a1,0
    93c4:	0cd010ef          	jal	ra,ac90 <crc16>
    93c8:	00050593          	mv	a1,a0
    93cc:	00000513          	li	a0,0
    93d0:	0c1010ef          	jal	ra,ac90 <crc16>
    93d4:	00050593          	mv	a1,a0
    93d8:	00000513          	li	a0,0
    93dc:	0b5010ef          	jal	ra,ac90 <crc16>
    93e0:	00050593          	mv	a1,a0
    93e4:	00000513          	li	a0,0
    93e8:	0a9010ef          	jal	ra,ac90 <crc16>
    93ec:	f91ff06f          	j	937c <matrix_test+0x500>

000093f0 <core_bench_matrix>:
    93f0:	ff010113          	addi	sp,sp,-16
    93f4:	00812423          	sw	s0,8(sp)
    93f8:	00852683          	lw	a3,8(a0)
    93fc:	00060413          	mv	s0,a2
    9400:	00058713          	mv	a4,a1
    9404:	00452603          	lw	a2,4(a0)
    9408:	00c52583          	lw	a1,12(a0)
    940c:	00052503          	lw	a0,0(a0)
    9410:	00112623          	sw	ra,12(sp)
    9414:	a69ff0ef          	jal	ra,8e7c <matrix_test>
    9418:	00040593          	mv	a1,s0
    941c:	00812403          	lw	s0,8(sp)
    9420:	00c12083          	lw	ra,12(sp)
    9424:	01010113          	addi	sp,sp,16
    9428:	0690106f          	j	ac90 <crc16>

0000942c <core_init_matrix>:
    942c:	fb010113          	addi	sp,sp,-80
    9430:	05212023          	sw	s2,64(sp)
    9434:	01b12e23          	sw	s11,28(sp)
    9438:	04112623          	sw	ra,76(sp)
    943c:	04812423          	sw	s0,72(sp)
    9440:	04912223          	sw	s1,68(sp)
    9444:	03312e23          	sw	s3,60(sp)
    9448:	03412c23          	sw	s4,56(sp)
    944c:	03512a23          	sw	s5,52(sp)
    9450:	03612823          	sw	s6,48(sp)
    9454:	03712623          	sw	s7,44(sp)
    9458:	03812423          	sw	s8,40(sp)
    945c:	03912223          	sw	s9,36(sp)
    9460:	03a12023          	sw	s10,32(sp)
    9464:	00d12623          	sw	a3,12(sp)
    9468:	00050913          	mv	s2,a0
    946c:	00100d93          	li	s11,1
    9470:	00060463          	beqz	a2,9478 <core_init_matrix+0x4c>
    9474:	00060d93          	mv	s11,a2
    9478:	fff58593          	addi	a1,a1,-1
    947c:	ffc5fb13          	andi	s6,a1,-4
    9480:	004b0793          	addi	a5,s6,4
    9484:	00f12023          	sw	a5,0(sp)
    9488:	00000493          	li	s1,0
    948c:	14090e63          	beqz	s2,95e8 <core_init_matrix+0x1bc>
    9490:	00048413          	mv	s0,s1
    9494:	00148493          	addi	s1,s1,1
    9498:	00048593          	mv	a1,s1
    949c:	00048513          	mv	a0,s1
    94a0:	770030ef          	jal	ra,cc10 <__mulsi3>
    94a4:	00351513          	slli	a0,a0,0x3
    94a8:	ff2564e3          	bltu	a0,s2,9490 <core_init_matrix+0x64>
    94ac:	00040593          	mv	a1,s0
    94b0:	00040513          	mv	a0,s0
    94b4:	75c030ef          	jal	ra,cc10 <__mulsi3>
    94b8:	00012703          	lw	a4,0(sp)
    94bc:	00151793          	slli	a5,a0,0x1
    94c0:	00f12223          	sw	a5,4(sp)
    94c4:	00812423          	sw	s0,8(sp)
    94c8:	00f70b33          	add	s6,a4,a5
    94cc:	0a040663          	beqz	s0,9578 <core_init_matrix+0x14c>
    94d0:	00012783          	lw	a5,0(sp)
    94d4:	000104b7          	lui	s1,0x10
    94d8:	00000a93          	li	s5,0
    94dc:	00000a13          	li	s4,0
    94e0:	00100993          	li	s3,1
    94e4:	41678933          	sub	s2,a5,s6
    94e8:	fff48493          	addi	s1,s1,-1 # ffff <main+0x3317>
    94ec:	fff40c93          	addi	s9,s0,-1
    94f0:	001a9693          	slli	a3,s5,0x1
    94f4:	01668c33          	add	s8,a3,s6
    94f8:	00098d13          	mv	s10,s3
    94fc:	00000b93          	li	s7,0
    9500:	000d0593          	mv	a1,s10
    9504:	000d8513          	mv	a0,s11
    9508:	708030ef          	jal	ra,cc10 <__mulsi3>
    950c:	41f55613          	srai	a2,a0,0x1f
    9510:	01065713          	srli	a4,a2,0x10
    9514:	00e50633          	add	a2,a0,a4
    9518:	010d1793          	slli	a5,s10,0x10
    951c:	00967633          	and	a2,a2,s1
    9520:	0107d793          	srli	a5,a5,0x10
    9524:	40e60db3          	sub	s11,a2,a4
    9528:	01b78733          	add	a4,a5,s11
    952c:	01071713          	slli	a4,a4,0x10
    9530:	01075713          	srli	a4,a4,0x10
    9534:	00f707b3          	add	a5,a4,a5
    9538:	00ec1023          	sh	a4,0(s8)
    953c:	0ff7f793          	andi	a5,a5,255
    9540:	01890733          	add	a4,s2,s8
    9544:	00f71023          	sh	a5,0(a4)
    9548:	001b8b93          	addi	s7,s7,1
    954c:	001d0d13          	addi	s10,s10,1
    9550:	002c0c13          	addi	s8,s8,2
    9554:	fa8be6e3          	bltu	s7,s0,9500 <core_init_matrix+0xd4>
    9558:	00198993          	addi	s3,s3,1
    955c:	00000793          	li	a5,0
    9560:	00040463          	beqz	s0,9568 <core_init_matrix+0x13c>
    9564:	000c8793          	mv	a5,s9
    9568:	001a0a13          	addi	s4,s4,1
    956c:	013789b3          	add	s3,a5,s3
    9570:	008a8ab3          	add	s5,s5,s0
    9574:	f68a6ee3          	bltu	s4,s0,94f0 <core_init_matrix+0xc4>
    9578:	00412783          	lw	a5,4(sp)
    957c:	00c12703          	lw	a4,12(sp)
    9580:	00012683          	lw	a3,0(sp)
    9584:	00fb07b3          	add	a5,s6,a5
    9588:	fff78793          	addi	a5,a5,-1
    958c:	ffc7f793          	andi	a5,a5,-4
    9590:	00478793          	addi	a5,a5,4
    9594:	00f72623          	sw	a5,12(a4)
    9598:	00812783          	lw	a5,8(sp)
    959c:	04c12083          	lw	ra,76(sp)
    95a0:	00040513          	mv	a0,s0
    95a4:	04812403          	lw	s0,72(sp)
    95a8:	01672423          	sw	s6,8(a4)
    95ac:	00d72223          	sw	a3,4(a4)
    95b0:	00f72023          	sw	a5,0(a4)
    95b4:	04412483          	lw	s1,68(sp)
    95b8:	04012903          	lw	s2,64(sp)
    95bc:	03c12983          	lw	s3,60(sp)
    95c0:	03812a03          	lw	s4,56(sp)
    95c4:	03412a83          	lw	s5,52(sp)
    95c8:	03012b03          	lw	s6,48(sp)
    95cc:	02c12b83          	lw	s7,44(sp)
    95d0:	02812c03          	lw	s8,40(sp)
    95d4:	02412c83          	lw	s9,36(sp)
    95d8:	02012d03          	lw	s10,32(sp)
    95dc:	01c12d83          	lw	s11,28(sp)
    95e0:	05010113          	addi	sp,sp,80
    95e4:	00008067          	ret
    95e8:	fff00793          	li	a5,-1
    95ec:	00f12423          	sw	a5,8(sp)
    95f0:	00200793          	li	a5,2
    95f4:	006b0b13          	addi	s6,s6,6
    95f8:	fff00413          	li	s0,-1
    95fc:	00f12223          	sw	a5,4(sp)
    9600:	ed1ff06f          	j	94d0 <core_init_matrix+0xa4>

00009604 <matrix_sum>:
    9604:	00050e93          	mv	t4,a0
    9608:	08050663          	beqz	a0,9694 <matrix_sum+0x90>
    960c:	40a00f33          	neg	t5,a0
    9610:	00251893          	slli	a7,a0,0x2
    9614:	011588b3          	add	a7,a1,a7
    9618:	002f1f93          	slli	t6,t5,0x2
    961c:	00000313          	li	t1,0
    9620:	00000513          	li	a0,0
    9624:	00000713          	li	a4,0
    9628:	00000593          	li	a1,0
    962c:	003f1f13          	slli	t5,t5,0x3
    9630:	011f8e33          	add	t3,t6,a7
    9634:	000e0793          	mv	a5,t3
    9638:	0140006f          	j	964c <matrix_sum+0x48>
    963c:	01051513          	slli	a0,a0,0x10
    9640:	00478793          	addi	a5,a5,4
    9644:	41055513          	srai	a0,a0,0x10
    9648:	02f88e63          	beq	a7,a5,9684 <matrix_sum+0x80>
    964c:	00070693          	mv	a3,a4
    9650:	0007a703          	lw	a4,0(a5)
    9654:	01051513          	slli	a0,a0,0x10
    9658:	01055513          	srli	a0,a0,0x10
    965c:	00e6a6b3          	slt	a3,a3,a4
    9660:	00e585b3          	add	a1,a1,a4
    9664:	00a50813          	addi	a6,a0,10
    9668:	00d50533          	add	a0,a0,a3
    966c:	fcb658e3          	bge	a2,a1,963c <matrix_sum+0x38>
    9670:	01081513          	slli	a0,a6,0x10
    9674:	00478793          	addi	a5,a5,4
    9678:	41055513          	srai	a0,a0,0x10
    967c:	00000593          	li	a1,0
    9680:	fcf896e3          	bne	a7,a5,964c <matrix_sum+0x48>
    9684:	00130313          	addi	t1,t1,1
    9688:	41ee08b3          	sub	a7,t3,t5
    968c:	fa6e92e3          	bne	t4,t1,9630 <matrix_sum+0x2c>
    9690:	00008067          	ret
    9694:	00000513          	li	a0,0
    9698:	00008067          	ret

0000969c <matrix_mul_const>:
    969c:	0c050a63          	beqz	a0,9770 <matrix_mul_const+0xd4>
    96a0:	fd010113          	addi	sp,sp,-48
    96a4:	03212023          	sw	s2,32(sp)
    96a8:	01712623          	sw	s7,12(sp)
    96ac:	00151913          	slli	s2,a0,0x1
    96b0:	40a00bb3          	neg	s7,a0
    96b4:	01312e23          	sw	s3,28(sp)
    96b8:	01412c23          	sw	s4,24(sp)
    96bc:	01612823          	sw	s6,16(sp)
    96c0:	01812423          	sw	s8,8(sp)
    96c4:	01912223          	sw	s9,4(sp)
    96c8:	01a12023          	sw	s10,0(sp)
    96cc:	001b9c93          	slli	s9,s7,0x1
    96d0:	02112623          	sw	ra,44(sp)
    96d4:	02812423          	sw	s0,40(sp)
    96d8:	02912223          	sw	s1,36(sp)
    96dc:	01512a23          	sw	s5,20(sp)
    96e0:	00050b13          	mv	s6,a0
    96e4:	00058c13          	mv	s8,a1
    96e8:	00068d13          	mv	s10,a3
    96ec:	01260933          	add	s2,a2,s2
    96f0:	00000a13          	li	s4,0
    96f4:	00000993          	li	s3,0
    96f8:	002b9b93          	slli	s7,s7,0x2
    96fc:	012c8ab3          	add	s5,s9,s2
    9700:	002a1493          	slli	s1,s4,0x2
    9704:	009c04b3          	add	s1,s8,s1
    9708:	000a8413          	mv	s0,s5
    970c:	00041503          	lh	a0,0(s0)
    9710:	000d0593          	mv	a1,s10
    9714:	00240413          	addi	s0,s0,2
    9718:	4f8030ef          	jal	ra,cc10 <__mulsi3>
    971c:	00a4a023          	sw	a0,0(s1)
    9720:	00448493          	addi	s1,s1,4
    9724:	fe8914e3          	bne	s2,s0,970c <matrix_mul_const+0x70>
    9728:	00198993          	addi	s3,s3,1
    972c:	016a0a33          	add	s4,s4,s6
    9730:	417a8933          	sub	s2,s5,s7
    9734:	fd3b14e3          	bne	s6,s3,96fc <matrix_mul_const+0x60>
    9738:	02c12083          	lw	ra,44(sp)
    973c:	02812403          	lw	s0,40(sp)
    9740:	02412483          	lw	s1,36(sp)
    9744:	02012903          	lw	s2,32(sp)
    9748:	01c12983          	lw	s3,28(sp)
    974c:	01812a03          	lw	s4,24(sp)
    9750:	01412a83          	lw	s5,20(sp)
    9754:	01012b03          	lw	s6,16(sp)
    9758:	00c12b83          	lw	s7,12(sp)
    975c:	00812c03          	lw	s8,8(sp)
    9760:	00412c83          	lw	s9,4(sp)
    9764:	00012d03          	lw	s10,0(sp)
    9768:	03010113          	addi	sp,sp,48
    976c:	00008067          	ret
    9770:	00008067          	ret

00009774 <matrix_add_const>:
    9774:	04050663          	beqz	a0,97c0 <matrix_add_const+0x4c>
    9778:	40a008b3          	neg	a7,a0
    977c:	00151693          	slli	a3,a0,0x1
    9780:	01061613          	slli	a2,a2,0x10
    9784:	00d586b3          	add	a3,a1,a3
    9788:	00189313          	slli	t1,a7,0x1
    978c:	01065613          	srli	a2,a2,0x10
    9790:	00000593          	li	a1,0
    9794:	00289893          	slli	a7,a7,0x2
    9798:	00d30833          	add	a6,t1,a3
    979c:	00080793          	mv	a5,a6
    97a0:	0007d703          	lhu	a4,0(a5)
    97a4:	00278793          	addi	a5,a5,2
    97a8:	00e60733          	add	a4,a2,a4
    97ac:	fee79f23          	sh	a4,-2(a5)
    97b0:	fed798e3          	bne	a5,a3,97a0 <matrix_add_const+0x2c>
    97b4:	00158593          	addi	a1,a1,1
    97b8:	411806b3          	sub	a3,a6,a7
    97bc:	fcb51ee3          	bne	a0,a1,9798 <matrix_add_const+0x24>
    97c0:	00008067          	ret

000097c4 <matrix_mul_vect>:
    97c4:	0c050463          	beqz	a0,988c <matrix_mul_vect+0xc8>
    97c8:	fd010113          	addi	sp,sp,-48
    97cc:	01312e23          	sw	s3,28(sp)
    97d0:	01612823          	sw	s6,16(sp)
    97d4:	00151993          	slli	s3,a0,0x1
    97d8:	00251b13          	slli	s6,a0,0x2
    97dc:	01412c23          	sw	s4,24(sp)
    97e0:	01512a23          	sw	s5,20(sp)
    97e4:	01712623          	sw	s7,12(sp)
    97e8:	01812423          	sw	s8,8(sp)
    97ec:	01912223          	sw	s9,4(sp)
    97f0:	02112623          	sw	ra,44(sp)
    97f4:	02812423          	sw	s0,40(sp)
    97f8:	02912223          	sw	s1,36(sp)
    97fc:	03212023          	sw	s2,32(sp)
    9800:	00050a93          	mv	s5,a0
    9804:	00060c13          	mv	s8,a2
    9808:	00068b93          	mv	s7,a3
    980c:	00058a13          	mv	s4,a1
    9810:	01658b33          	add	s6,a1,s6
    9814:	013689b3          	add	s3,a3,s3
    9818:	00000c93          	li	s9,0
    981c:	001c9493          	slli	s1,s9,0x1
    9820:	009c04b3          	add	s1,s8,s1
    9824:	000b8413          	mv	s0,s7
    9828:	00000913          	li	s2,0
    982c:	00041583          	lh	a1,0(s0)
    9830:	00049503          	lh	a0,0(s1)
    9834:	00240413          	addi	s0,s0,2
    9838:	00248493          	addi	s1,s1,2
    983c:	3d4030ef          	jal	ra,cc10 <__mulsi3>
    9840:	00a90933          	add	s2,s2,a0
    9844:	fe8994e3          	bne	s3,s0,982c <matrix_mul_vect+0x68>
    9848:	012a2023          	sw	s2,0(s4)
    984c:	004a0a13          	addi	s4,s4,4
    9850:	015c8cb3          	add	s9,s9,s5
    9854:	fd4b14e3          	bne	s6,s4,981c <matrix_mul_vect+0x58>
    9858:	02c12083          	lw	ra,44(sp)
    985c:	02812403          	lw	s0,40(sp)
    9860:	02412483          	lw	s1,36(sp)
    9864:	02012903          	lw	s2,32(sp)
    9868:	01c12983          	lw	s3,28(sp)
    986c:	01812a03          	lw	s4,24(sp)
    9870:	01412a83          	lw	s5,20(sp)
    9874:	01012b03          	lw	s6,16(sp)
    9878:	00c12b83          	lw	s7,12(sp)
    987c:	00812c03          	lw	s8,8(sp)
    9880:	00412c83          	lw	s9,4(sp)
    9884:	03010113          	addi	sp,sp,48
    9888:	00008067          	ret
    988c:	00008067          	ret

00009890 <matrix_mul_matrix>:
    9890:	fb010113          	addi	sp,sp,-80
    9894:	04112623          	sw	ra,76(sp)
    9898:	04812423          	sw	s0,72(sp)
    989c:	04912223          	sw	s1,68(sp)
    98a0:	05212023          	sw	s2,64(sp)
    98a4:	03312e23          	sw	s3,60(sp)
    98a8:	03412c23          	sw	s4,56(sp)
    98ac:	03512a23          	sw	s5,52(sp)
    98b0:	03612823          	sw	s6,48(sp)
    98b4:	03712623          	sw	s7,44(sp)
    98b8:	03812423          	sw	s8,40(sp)
    98bc:	03912223          	sw	s9,36(sp)
    98c0:	03a12023          	sw	s10,32(sp)
    98c4:	01b12e23          	sw	s11,28(sp)
    98c8:	00b12423          	sw	a1,8(sp)
    98cc:	00d12623          	sw	a3,12(sp)
    98d0:	08050863          	beqz	a0,9960 <matrix_mul_matrix+0xd0>
    98d4:	00151493          	slli	s1,a0,0x1
    98d8:	00050b93          	mv	s7,a0
    98dc:	00060b13          	mv	s6,a2
    98e0:	00960933          	add	s2,a2,s1
    98e4:	00000c13          	li	s8,0
    98e8:	00000c93          	li	s9,0
    98ec:	00812783          	lw	a5,8(sp)
    98f0:	00c12a03          	lw	s4,12(sp)
    98f4:	002c1993          	slli	s3,s8,0x2
    98f8:	013789b3          	add	s3,a5,s3
    98fc:	00000a93          	li	s5,0
    9900:	000a0d93          	mv	s11,s4
    9904:	000b0413          	mv	s0,s6
    9908:	00000d13          	li	s10,0
    990c:	000d9583          	lh	a1,0(s11)
    9910:	00041503          	lh	a0,0(s0)
    9914:	00240413          	addi	s0,s0,2
    9918:	009d8db3          	add	s11,s11,s1
    991c:	2f4030ef          	jal	ra,cc10 <__mulsi3>
    9920:	00ad0d33          	add	s10,s10,a0
    9924:	fe8914e3          	bne	s2,s0,990c <matrix_mul_matrix+0x7c>
    9928:	01a9a023          	sw	s10,0(s3)
    992c:	001a8793          	addi	a5,s5,1
    9930:	00498993          	addi	s3,s3,4
    9934:	002a0a13          	addi	s4,s4,2
    9938:	00fb8663          	beq	s7,a5,9944 <matrix_mul_matrix+0xb4>
    993c:	00078a93          	mv	s5,a5
    9940:	fc1ff06f          	j	9900 <matrix_mul_matrix+0x70>
    9944:	001c8793          	addi	a5,s9,1
    9948:	009b0b33          	add	s6,s6,s1
    994c:	017c0c33          	add	s8,s8,s7
    9950:	00990933          	add	s2,s2,s1
    9954:	015c8663          	beq	s9,s5,9960 <matrix_mul_matrix+0xd0>
    9958:	00078c93          	mv	s9,a5
    995c:	f91ff06f          	j	98ec <matrix_mul_matrix+0x5c>
    9960:	04c12083          	lw	ra,76(sp)
    9964:	04812403          	lw	s0,72(sp)
    9968:	04412483          	lw	s1,68(sp)
    996c:	04012903          	lw	s2,64(sp)
    9970:	03c12983          	lw	s3,60(sp)
    9974:	03812a03          	lw	s4,56(sp)
    9978:	03412a83          	lw	s5,52(sp)
    997c:	03012b03          	lw	s6,48(sp)
    9980:	02c12b83          	lw	s7,44(sp)
    9984:	02812c03          	lw	s8,40(sp)
    9988:	02412c83          	lw	s9,36(sp)
    998c:	02012d03          	lw	s10,32(sp)
    9990:	01c12d83          	lw	s11,28(sp)
    9994:	05010113          	addi	sp,sp,80
    9998:	00008067          	ret

0000999c <matrix_mul_matrix_bitextract>:
    999c:	fb010113          	addi	sp,sp,-80
    99a0:	04112623          	sw	ra,76(sp)
    99a4:	04812423          	sw	s0,72(sp)
    99a8:	04912223          	sw	s1,68(sp)
    99ac:	05212023          	sw	s2,64(sp)
    99b0:	03312e23          	sw	s3,60(sp)
    99b4:	03412c23          	sw	s4,56(sp)
    99b8:	03512a23          	sw	s5,52(sp)
    99bc:	03612823          	sw	s6,48(sp)
    99c0:	03712623          	sw	s7,44(sp)
    99c4:	03812423          	sw	s8,40(sp)
    99c8:	03912223          	sw	s9,36(sp)
    99cc:	03a12023          	sw	s10,32(sp)
    99d0:	01b12e23          	sw	s11,28(sp)
    99d4:	00b12423          	sw	a1,8(sp)
    99d8:	00d12623          	sw	a3,12(sp)
    99dc:	0a050263          	beqz	a0,9a80 <matrix_mul_matrix_bitextract+0xe4>
    99e0:	00151413          	slli	s0,a0,0x1
    99e4:	00050b13          	mv	s6,a0
    99e8:	00060a93          	mv	s5,a2
    99ec:	008604b3          	add	s1,a2,s0
    99f0:	00000b93          	li	s7,0
    99f4:	00000c13          	li	s8,0
    99f8:	00812783          	lw	a5,8(sp)
    99fc:	00c12983          	lw	s3,12(sp)
    9a00:	002b9913          	slli	s2,s7,0x2
    9a04:	01278933          	add	s2,a5,s2
    9a08:	00000a13          	li	s4,0
    9a0c:	00098d13          	mv	s10,s3
    9a10:	000a8d93          	mv	s11,s5
    9a14:	00000c93          	li	s9,0
    9a18:	000d1583          	lh	a1,0(s10)
    9a1c:	000d9503          	lh	a0,0(s11)
    9a20:	002d8d93          	addi	s11,s11,2
    9a24:	008d0d33          	add	s10,s10,s0
    9a28:	1e8030ef          	jal	ra,cc10 <__mulsi3>
    9a2c:	40255693          	srai	a3,a0,0x2
    9a30:	40555593          	srai	a1,a0,0x5
    9a34:	07f5f593          	andi	a1,a1,127
    9a38:	00f6f513          	andi	a0,a3,15
    9a3c:	1d4030ef          	jal	ra,cc10 <__mulsi3>
    9a40:	00ac8cb3          	add	s9,s9,a0
    9a44:	fdb49ae3          	bne	s1,s11,9a18 <matrix_mul_matrix_bitextract+0x7c>
    9a48:	01992023          	sw	s9,0(s2) # fffff000 <stack_top+0xfffdf000>
    9a4c:	001a0793          	addi	a5,s4,1
    9a50:	00490913          	addi	s2,s2,4
    9a54:	00298993          	addi	s3,s3,2
    9a58:	00fb0663          	beq	s6,a5,9a64 <matrix_mul_matrix_bitextract+0xc8>
    9a5c:	00078a13          	mv	s4,a5
    9a60:	fadff06f          	j	9a0c <matrix_mul_matrix_bitextract+0x70>
    9a64:	001c0793          	addi	a5,s8,1
    9a68:	008a8ab3          	add	s5,s5,s0
    9a6c:	016b8bb3          	add	s7,s7,s6
    9a70:	008484b3          	add	s1,s1,s0
    9a74:	014c0663          	beq	s8,s4,9a80 <matrix_mul_matrix_bitextract+0xe4>
    9a78:	00078c13          	mv	s8,a5
    9a7c:	f7dff06f          	j	99f8 <matrix_mul_matrix_bitextract+0x5c>
    9a80:	04c12083          	lw	ra,76(sp)
    9a84:	04812403          	lw	s0,72(sp)
    9a88:	04412483          	lw	s1,68(sp)
    9a8c:	04012903          	lw	s2,64(sp)
    9a90:	03c12983          	lw	s3,60(sp)
    9a94:	03812a03          	lw	s4,56(sp)
    9a98:	03412a83          	lw	s5,52(sp)
    9a9c:	03012b03          	lw	s6,48(sp)
    9aa0:	02c12b83          	lw	s7,44(sp)
    9aa4:	02812c03          	lw	s8,40(sp)
    9aa8:	02412c83          	lw	s9,36(sp)
    9aac:	02012d03          	lw	s10,32(sp)
    9ab0:	01c12d83          	lw	s11,28(sp)
    9ab4:	05010113          	addi	sp,sp,80
    9ab8:	00008067          	ret

00009abc <core_init_state>:
    9abc:	fff50893          	addi	a7,a0,-1
    9ac0:	00100793          	li	a5,1
    9ac4:	2917f663          	bgeu	a5,a7,9d50 <core_init_state+0x294>
    9ac8:	00158593          	addi	a1,a1,1
    9acc:	01059693          	slli	a3,a1,0x10
    9ad0:	0106d693          	srli	a3,a3,0x10
    9ad4:	00010337          	lui	t1,0x10
    9ad8:	0036d793          	srli	a5,a3,0x3
    9adc:	00700e93          	li	t4,7
    9ae0:	0076f713          	andi	a4,a3,7
    9ae4:	00000593          	li	a1,0
    9ae8:	00030313          	mv	t1,t1
    9aec:	00800f93          	li	t6,8
    9af0:	00400813          	li	a6,4
    9af4:	00100e13          	li	t3,1
    9af8:	02c00f13          	li	t5,44
    9afc:	0037f793          	andi	a5,a5,3
    9b00:	23d70c63          	beq	a4,t4,9d38 <core_init_state+0x27c>
    9b04:	20e86e63          	bltu	a6,a4,9d20 <core_init_state+0x264>
    9b08:	ffd70713          	addi	a4,a4,-3
    9b0c:	01071713          	slli	a4,a4,0x10
    9b10:	00279793          	slli	a5,a5,0x2
    9b14:	01075713          	srli	a4,a4,0x10
    9b18:	00f307b3          	add	a5,t1,a5
    9b1c:	1eee6a63          	bltu	t3,a4,9d10 <core_init_state+0x254>
    9b20:	0107a703          	lw	a4,16(a5)
    9b24:	00900393          	li	t2,9
    9b28:	00800293          	li	t0,8
    9b2c:	007583b3          	add	t2,a1,t2
    9b30:	3113f063          	bgeu	t2,a7,9e30 <core_init_state+0x374>
    9b34:	ff010113          	addi	sp,sp,-16
    9b38:	00812623          	sw	s0,12(sp)
    9b3c:	0340006f          	j	9b70 <core_init_state+0xb4>
    9b40:	1ae86c63          	bltu	a6,a4,9cf8 <core_init_state+0x23c>
    9b44:	ffd70713          	addi	a4,a4,-3
    9b48:	01071713          	slli	a4,a4,0x10
    9b4c:	00279793          	slli	a5,a5,0x2
    9b50:	01075713          	srli	a4,a4,0x10
    9b54:	00f307b3          	add	a5,t1,a5
    9b58:	18ee6863          	bltu	t3,a4,9ce8 <core_init_state+0x22c>
    9b5c:	0107a703          	lw	a4,16(a5)
    9b60:	00900393          	li	t2,9
    9b64:	00800293          	li	t0,8
    9b68:	007583b3          	add	t2,a1,t2
    9b6c:	0913fa63          	bgeu	t2,a7,9c00 <core_init_state+0x144>
    9b70:	00074403          	lbu	s0,0(a4)
    9b74:	00b607b3          	add	a5,a2,a1
    9b78:	00878023          	sb	s0,0(a5)
    9b7c:	00174583          	lbu	a1,1(a4)
    9b80:	00b780a3          	sb	a1,1(a5)
    9b84:	00274583          	lbu	a1,2(a4)
    9b88:	00b78123          	sb	a1,2(a5)
    9b8c:	00374583          	lbu	a1,3(a4)
    9b90:	00b781a3          	sb	a1,3(a5)
    9b94:	03028463          	beq	t0,a6,9bbc <core_init_state+0x100>
    9b98:	00474583          	lbu	a1,4(a4)
    9b9c:	00b78223          	sb	a1,4(a5)
    9ba0:	00574583          	lbu	a1,5(a4)
    9ba4:	00b782a3          	sb	a1,5(a5)
    9ba8:	00674583          	lbu	a1,6(a4)
    9bac:	00b78323          	sb	a1,6(a5)
    9bb0:	01f29663          	bne	t0,t6,9bbc <core_init_state+0x100>
    9bb4:	00774703          	lbu	a4,7(a4)
    9bb8:	00e783a3          	sb	a4,7(a5)
    9bbc:	00168693          	addi	a3,a3,1
    9bc0:	01069693          	slli	a3,a3,0x10
    9bc4:	005787b3          	add	a5,a5,t0
    9bc8:	0106d693          	srli	a3,a3,0x10
    9bcc:	01e78023          	sb	t5,0(a5)
    9bd0:	0076f713          	andi	a4,a3,7
    9bd4:	0036d793          	srli	a5,a3,0x3
    9bd8:	00038593          	mv	a1,t2
    9bdc:	0037f793          	andi	a5,a5,3
    9be0:	f7d710e3          	bne	a4,t4,9b40 <core_init_state+0x84>
    9be4:	00279793          	slli	a5,a5,0x2
    9be8:	00900393          	li	t2,9
    9bec:	00f307b3          	add	a5,t1,a5
    9bf0:	007583b3          	add	t2,a1,t2
    9bf4:	0307a703          	lw	a4,48(a5)
    9bf8:	00800293          	li	t0,8
    9bfc:	f713eae3          	bltu	t2,a7,9b70 <core_init_state+0xb4>
    9c00:	0ca5fe63          	bgeu	a1,a0,9cdc <core_init_state+0x220>
    9c04:	00b607b3          	add	a5,a2,a1
    9c08:	40f00733          	neg	a4,a5
    9c0c:	40b888b3          	sub	a7,a7,a1
    9c10:	00500813          	li	a6,5
    9c14:	40b506b3          	sub	a3,a0,a1
    9c18:	00377713          	andi	a4,a4,3
    9c1c:	07187663          	bgeu	a6,a7,9c88 <core_init_state+0x1cc>
    9c20:	00058813          	mv	a6,a1
    9c24:	02070a63          	beqz	a4,9c58 <core_init_state+0x19c>
    9c28:	00078023          	sb	zero,0(a5)
    9c2c:	00100793          	li	a5,1
    9c30:	00158813          	addi	a6,a1,1
    9c34:	02f70263          	beq	a4,a5,9c58 <core_init_state+0x19c>
    9c38:	01060833          	add	a6,a2,a6
    9c3c:	00080023          	sb	zero,0(a6)
    9c40:	00300793          	li	a5,3
    9c44:	00258813          	addi	a6,a1,2
    9c48:	00f71863          	bne	a4,a5,9c58 <core_init_state+0x19c>
    9c4c:	01060833          	add	a6,a2,a6
    9c50:	00080023          	sb	zero,0(a6)
    9c54:	00358813          	addi	a6,a1,3
    9c58:	40e686b3          	sub	a3,a3,a4
    9c5c:	00b705b3          	add	a1,a4,a1
    9c60:	00b605b3          	add	a1,a2,a1
    9c64:	ffc6f793          	andi	a5,a3,-4
    9c68:	00b787b3          	add	a5,a5,a1
    9c6c:	0005a023          	sw	zero,0(a1)
    9c70:	00458593          	addi	a1,a1,4
    9c74:	fef59ce3          	bne	a1,a5,9c6c <core_init_state+0x1b0>
    9c78:	ffc6f793          	andi	a5,a3,-4
    9c7c:	010785b3          	add	a1,a5,a6
    9c80:	04d78e63          	beq	a5,a3,9cdc <core_init_state+0x220>
    9c84:	00b607b3          	add	a5,a2,a1
    9c88:	00078023          	sb	zero,0(a5)
    9c8c:	00158793          	addi	a5,a1,1
    9c90:	04a7f663          	bgeu	a5,a0,9cdc <core_init_state+0x220>
    9c94:	00f607b3          	add	a5,a2,a5
    9c98:	00078023          	sb	zero,0(a5)
    9c9c:	00258793          	addi	a5,a1,2
    9ca0:	02a7fe63          	bgeu	a5,a0,9cdc <core_init_state+0x220>
    9ca4:	00f607b3          	add	a5,a2,a5
    9ca8:	00078023          	sb	zero,0(a5)
    9cac:	00358793          	addi	a5,a1,3
    9cb0:	02a7f663          	bgeu	a5,a0,9cdc <core_init_state+0x220>
    9cb4:	00f607b3          	add	a5,a2,a5
    9cb8:	00078023          	sb	zero,0(a5)
    9cbc:	00458793          	addi	a5,a1,4
    9cc0:	00a7fe63          	bgeu	a5,a0,9cdc <core_init_state+0x220>
    9cc4:	00f607b3          	add	a5,a2,a5
    9cc8:	00078023          	sb	zero,0(a5)
    9ccc:	00558593          	addi	a1,a1,5
    9cd0:	00a5f663          	bgeu	a1,a0,9cdc <core_init_state+0x220>
    9cd4:	00b605b3          	add	a1,a2,a1
    9cd8:	00058023          	sb	zero,0(a1)
    9cdc:	00c12403          	lw	s0,12(sp)
    9ce0:	01010113          	addi	sp,sp,16
    9ce4:	00008067          	ret
    9ce8:	0007a703          	lw	a4,0(a5)
    9cec:	00500393          	li	t2,5
    9cf0:	00400293          	li	t0,4
    9cf4:	e75ff06f          	j	9b68 <core_init_state+0xac>
    9cf8:	00279793          	slli	a5,a5,0x2
    9cfc:	00f307b3          	add	a5,t1,a5
    9d00:	0207a703          	lw	a4,32(a5)
    9d04:	00900393          	li	t2,9
    9d08:	00800293          	li	t0,8
    9d0c:	e5dff06f          	j	9b68 <core_init_state+0xac>
    9d10:	0007a703          	lw	a4,0(a5)
    9d14:	00500393          	li	t2,5
    9d18:	00400293          	li	t0,4
    9d1c:	e11ff06f          	j	9b2c <core_init_state+0x70>
    9d20:	00279793          	slli	a5,a5,0x2
    9d24:	00f307b3          	add	a5,t1,a5
    9d28:	0207a703          	lw	a4,32(a5)
    9d2c:	00900393          	li	t2,9
    9d30:	00800293          	li	t0,8
    9d34:	df9ff06f          	j	9b2c <core_init_state+0x70>
    9d38:	00279793          	slli	a5,a5,0x2
    9d3c:	00f307b3          	add	a5,t1,a5
    9d40:	0307a703          	lw	a4,48(a5)
    9d44:	00900393          	li	t2,9
    9d48:	00800293          	li	t0,8
    9d4c:	de1ff06f          	j	9b2c <core_init_state+0x70>
    9d50:	00000593          	li	a1,0
    9d54:	00b607b3          	add	a5,a2,a1
    9d58:	40f00733          	neg	a4,a5
    9d5c:	40b888b3          	sub	a7,a7,a1
    9d60:	00500813          	li	a6,5
    9d64:	40b506b3          	sub	a3,a0,a1
    9d68:	00377713          	andi	a4,a4,3
    9d6c:	07187663          	bgeu	a6,a7,9dd8 <core_init_state+0x31c>
    9d70:	00058813          	mv	a6,a1
    9d74:	02070a63          	beqz	a4,9da8 <core_init_state+0x2ec>
    9d78:	00078023          	sb	zero,0(a5)
    9d7c:	00100793          	li	a5,1
    9d80:	00158813          	addi	a6,a1,1
    9d84:	02f70263          	beq	a4,a5,9da8 <core_init_state+0x2ec>
    9d88:	01060833          	add	a6,a2,a6
    9d8c:	00080023          	sb	zero,0(a6)
    9d90:	00300793          	li	a5,3
    9d94:	00258813          	addi	a6,a1,2
    9d98:	00f71863          	bne	a4,a5,9da8 <core_init_state+0x2ec>
    9d9c:	01060833          	add	a6,a2,a6
    9da0:	00080023          	sb	zero,0(a6)
    9da4:	00358813          	addi	a6,a1,3
    9da8:	40e686b3          	sub	a3,a3,a4
    9dac:	00b705b3          	add	a1,a4,a1
    9db0:	00b605b3          	add	a1,a2,a1
    9db4:	ffc6f793          	andi	a5,a3,-4
    9db8:	00b787b3          	add	a5,a5,a1
    9dbc:	0005a023          	sw	zero,0(a1)
    9dc0:	00458593          	addi	a1,a1,4
    9dc4:	fef59ce3          	bne	a1,a5,9dbc <core_init_state+0x300>
    9dc8:	ffc6f793          	andi	a5,a3,-4
    9dcc:	010785b3          	add	a1,a5,a6
    9dd0:	06d78263          	beq	a5,a3,9e34 <core_init_state+0x378>
    9dd4:	00b607b3          	add	a5,a2,a1
    9dd8:	00078023          	sb	zero,0(a5)
    9ddc:	00158793          	addi	a5,a1,1
    9de0:	04a7fa63          	bgeu	a5,a0,9e34 <core_init_state+0x378>
    9de4:	00f607b3          	add	a5,a2,a5
    9de8:	00078023          	sb	zero,0(a5)
    9dec:	00258793          	addi	a5,a1,2
    9df0:	04a7f263          	bgeu	a5,a0,9e34 <core_init_state+0x378>
    9df4:	00f607b3          	add	a5,a2,a5
    9df8:	00078023          	sb	zero,0(a5)
    9dfc:	00358793          	addi	a5,a1,3
    9e00:	02a7fa63          	bgeu	a5,a0,9e34 <core_init_state+0x378>
    9e04:	00f607b3          	add	a5,a2,a5
    9e08:	00078023          	sb	zero,0(a5)
    9e0c:	00458793          	addi	a5,a1,4
    9e10:	02a7f263          	bgeu	a5,a0,9e34 <core_init_state+0x378>
    9e14:	00f607b3          	add	a5,a2,a5
    9e18:	00078023          	sb	zero,0(a5)
    9e1c:	00558593          	addi	a1,a1,5
    9e20:	00a5fa63          	bgeu	a1,a0,9e34 <core_init_state+0x378>
    9e24:	00b605b3          	add	a1,a2,a1
    9e28:	00058023          	sb	zero,0(a1)
    9e2c:	00008067          	ret
    9e30:	f2a5e2e3          	bltu	a1,a0,9d54 <core_init_state+0x298>
    9e34:	00008067          	ret

00009e38 <core_state_transition>:
    9e38:	00052783          	lw	a5,0(a0)
    9e3c:	00050813          	mv	a6,a0
    9e40:	00000513          	li	a0,0
    9e44:	0007c683          	lbu	a3,0(a5)
    9e48:	00078713          	mv	a4,a5
    9e4c:	0c068c63          	beqz	a3,9f24 <core_state_transition+0xec>
    9e50:	02c00513          	li	a0,44
    9e54:	00178713          	addi	a4,a5,1
    9e58:	2aa68863          	beq	a3,a0,a108 <core_state_transition+0x2d0>
    9e5c:	0005a883          	lw	a7,0(a1)
    9e60:	fd068613          	addi	a2,a3,-48
    9e64:	0ff67613          	andi	a2,a2,255
    9e68:	00900313          	li	t1,9
    9e6c:	00188893          	addi	a7,a7,1
    9e70:	0ac36e63          	bltu	t1,a2,9f2c <core_state_transition+0xf4>
    9e74:	0115a023          	sw	a7,0(a1)
    9e78:	0017c683          	lbu	a3,1(a5)
    9e7c:	16068063          	beqz	a3,9fdc <core_state_transition+0x1a4>
    9e80:	00278793          	addi	a5,a5,2
    9e84:	14a68a63          	beq	a3,a0,9fd8 <core_state_transition+0x1a0>
    9e88:	fd068613          	addi	a2,a3,-48
    9e8c:	02e00513          	li	a0,46
    9e90:	00900893          	li	a7,9
    9e94:	02c00313          	li	t1,44
    9e98:	0ff67613          	andi	a2,a2,255
    9e9c:	02a68663          	beq	a3,a0,9ec8 <core_state_transition+0x90>
    9ea0:	0cc8e063          	bltu	a7,a2,9f60 <core_state_transition+0x128>
    9ea4:	00174683          	lbu	a3,1(a4)
    9ea8:	00178613          	addi	a2,a5,1
    9eac:	00078713          	mv	a4,a5
    9eb0:	12068463          	beqz	a3,9fd8 <core_state_transition+0x1a0>
    9eb4:	28668863          	beq	a3,t1,a144 <core_state_transition+0x30c>
    9eb8:	00060793          	mv	a5,a2
    9ebc:	fd068613          	addi	a2,a3,-48
    9ec0:	0ff67613          	andi	a2,a2,255
    9ec4:	fca69ee3          	bne	a3,a0,9ea0 <core_state_transition+0x68>
    9ec8:	0105a683          	lw	a3,16(a1)
    9ecc:	00500513          	li	a0,5
    9ed0:	00168693          	addi	a3,a3,1
    9ed4:	00d5a823          	sw	a3,16(a1)
    9ed8:	00174683          	lbu	a3,1(a4)
    9edc:	00078713          	mv	a4,a5
    9ee0:	04068263          	beqz	a3,9f24 <core_state_transition+0xec>
    9ee4:	02c00713          	li	a4,44
    9ee8:	00178613          	addi	a2,a5,1
    9eec:	20e68863          	beq	a3,a4,a0fc <core_state_transition+0x2c4>
    9ef0:	04500513          	li	a0,69
    9ef4:	00900893          	li	a7,9
    9ef8:	02c00313          	li	t1,44
    9efc:	fd068713          	addi	a4,a3,-48
    9f00:	0df6f693          	andi	a3,a3,223
    9f04:	0ff77713          	andi	a4,a4,255
    9f08:	0ca68e63          	beq	a3,a0,9fe4 <core_state_transition+0x1ac>
    9f0c:	1ae8f063          	bgeu	a7,a4,a0ac <core_state_transition+0x274>
    9f10:	0145a783          	lw	a5,20(a1)
    9f14:	00060713          	mv	a4,a2
    9f18:	00100513          	li	a0,1
    9f1c:	00178793          	addi	a5,a5,1
    9f20:	00f5aa23          	sw	a5,20(a1)
    9f24:	00e82023          	sw	a4,0(a6)
    9f28:	00008067          	ret
    9f2c:	02b00613          	li	a2,43
    9f30:	04c68663          	beq	a3,a2,9f7c <core_state_transition+0x144>
    9f34:	02d00613          	li	a2,45
    9f38:	04c68263          	beq	a3,a2,9f7c <core_state_transition+0x144>
    9f3c:	02e00613          	li	a2,46
    9f40:	18c68463          	beq	a3,a2,a0c8 <core_state_transition+0x290>
    9f44:	0045a783          	lw	a5,4(a1)
    9f48:	0115a023          	sw	a7,0(a1)
    9f4c:	00100513          	li	a0,1
    9f50:	00178793          	addi	a5,a5,1
    9f54:	00f5a223          	sw	a5,4(a1)
    9f58:	00e82023          	sw	a4,0(a6)
    9f5c:	00008067          	ret
    9f60:	0105a683          	lw	a3,16(a1)
    9f64:	00078713          	mv	a4,a5
    9f68:	00100513          	li	a0,1
    9f6c:	00168793          	addi	a5,a3,1
    9f70:	00f5a823          	sw	a5,16(a1)
    9f74:	00e82023          	sw	a4,0(a6)
    9f78:	00008067          	ret
    9f7c:	0115a023          	sw	a7,0(a1)
    9f80:	0017c883          	lbu	a7,1(a5)
    9f84:	1a088663          	beqz	a7,a130 <core_state_transition+0x2f8>
    9f88:	00278713          	addi	a4,a5,2
    9f8c:	1aa88263          	beq	a7,a0,a130 <core_state_transition+0x2f8>
    9f90:	0085a603          	lw	a2,8(a1)
    9f94:	fd088693          	addi	a3,a7,-48
    9f98:	0ff6f693          	andi	a3,a3,255
    9f9c:	00900513          	li	a0,9
    9fa0:	00160613          	addi	a2,a2,1
    9fa4:	00d57e63          	bgeu	a0,a3,9fc0 <core_state_transition+0x188>
    9fa8:	02e00693          	li	a3,46
    9fac:	12d88c63          	beq	a7,a3,a0e4 <core_state_transition+0x2ac>
    9fb0:	00c5a423          	sw	a2,8(a1)
    9fb4:	00100513          	li	a0,1
    9fb8:	00e82023          	sw	a4,0(a6)
    9fbc:	00008067          	ret
    9fc0:	00c5a423          	sw	a2,8(a1)
    9fc4:	0027c683          	lbu	a3,2(a5)
    9fc8:	00068a63          	beqz	a3,9fdc <core_state_transition+0x1a4>
    9fcc:	02c00613          	li	a2,44
    9fd0:	00170793          	addi	a5,a4,1
    9fd4:	eac69ae3          	bne	a3,a2,9e88 <core_state_transition+0x50>
    9fd8:	00078713          	mv	a4,a5
    9fdc:	00400513          	li	a0,4
    9fe0:	f45ff06f          	j	9f24 <core_state_transition+0xec>
    9fe4:	0145a703          	lw	a4,20(a1)
    9fe8:	00170713          	addi	a4,a4,1
    9fec:	00e5aa23          	sw	a4,20(a1)
    9ff0:	0017c783          	lbu	a5,1(a5)
    9ff4:	12078463          	beqz	a5,a11c <core_state_transition+0x2e4>
    9ff8:	02c00513          	li	a0,44
    9ffc:	00160713          	addi	a4,a2,1
    a000:	12a78063          	beq	a5,a0,a120 <core_state_transition+0x2e8>
    a004:	00c5a683          	lw	a3,12(a1)
    a008:	fd578793          	addi	a5,a5,-43
    a00c:	0fd7f793          	andi	a5,a5,253
    a010:	00168693          	addi	a3,a3,1
    a014:	00d5a623          	sw	a3,12(a1)
    a018:	00078863          	beqz	a5,a028 <core_state_transition+0x1f0>
    a01c:	00100513          	li	a0,1
    a020:	00e82023          	sw	a4,0(a6)
    a024:	00008067          	ret
    a028:	00164783          	lbu	a5,1(a2)
    a02c:	0e078e63          	beqz	a5,a128 <core_state_transition+0x2f0>
    a030:	00260713          	addi	a4,a2,2
    a034:	0ea78a63          	beq	a5,a0,a128 <core_state_transition+0x2f0>
    a038:	0185a683          	lw	a3,24(a1)
    a03c:	fd078793          	addi	a5,a5,-48
    a040:	0ff7f793          	andi	a5,a5,255
    a044:	00168693          	addi	a3,a3,1
    a048:	00900893          	li	a7,9
    a04c:	00d5ac23          	sw	a3,24(a1)
    a050:	fcf8e6e3          	bltu	a7,a5,a01c <core_state_transition+0x1e4>
    a054:	00264683          	lbu	a3,2(a2)
    a058:	0a068e63          	beqz	a3,a114 <core_state_transition+0x2dc>
    a05c:	00360793          	addi	a5,a2,3
    a060:	0aa68863          	beq	a3,a0,a110 <core_state_transition+0x2d8>
    a064:	00900613          	li	a2,9
    a068:	02c00893          	li	a7,44
    a06c:	fd068693          	addi	a3,a3,-48
    a070:	0ff6f693          	andi	a3,a3,255
    a074:	00d67e63          	bgeu	a2,a3,a090 <core_state_transition+0x258>
    a078:	0045a683          	lw	a3,4(a1)
    a07c:	00078713          	mv	a4,a5
    a080:	00100513          	li	a0,1
    a084:	00168793          	addi	a5,a3,1
    a088:	00f5a223          	sw	a5,4(a1)
    a08c:	e99ff06f          	j	9f24 <core_state_transition+0xec>
    a090:	00174683          	lbu	a3,1(a4)
    a094:	00178513          	addi	a0,a5,1
    a098:	00078713          	mv	a4,a5
    a09c:	06068a63          	beqz	a3,a110 <core_state_transition+0x2d8>
    a0a0:	09168c63          	beq	a3,a7,a138 <core_state_transition+0x300>
    a0a4:	00050793          	mv	a5,a0
    a0a8:	fc5ff06f          	j	a06c <core_state_transition+0x234>
    a0ac:	0017c683          	lbu	a3,1(a5)
    a0b0:	00160713          	addi	a4,a2,1
    a0b4:	00060793          	mv	a5,a2
    a0b8:	04068263          	beqz	a3,a0fc <core_state_transition+0x2c4>
    a0bc:	04668263          	beq	a3,t1,a100 <core_state_transition+0x2c8>
    a0c0:	00070613          	mv	a2,a4
    a0c4:	e39ff06f          	j	9efc <core_state_transition+0xc4>
    a0c8:	0115a023          	sw	a7,0(a1)
    a0cc:	0017c683          	lbu	a3,1(a5)
    a0d0:	02068863          	beqz	a3,a100 <core_state_transition+0x2c8>
    a0d4:	00278613          	addi	a2,a5,2
    a0d8:	02a68263          	beq	a3,a0,a0fc <core_state_transition+0x2c4>
    a0dc:	00070793          	mv	a5,a4
    a0e0:	e11ff06f          	j	9ef0 <core_state_transition+0xb8>
    a0e4:	00c5a423          	sw	a2,8(a1)
    a0e8:	0027c683          	lbu	a3,2(a5)
    a0ec:	00068a63          	beqz	a3,a100 <core_state_transition+0x2c8>
    a0f0:	02c00793          	li	a5,44
    a0f4:	00170613          	addi	a2,a4,1
    a0f8:	fef692e3          	bne	a3,a5,a0dc <core_state_transition+0x2a4>
    a0fc:	00060713          	mv	a4,a2
    a100:	00500513          	li	a0,5
    a104:	e21ff06f          	j	9f24 <core_state_transition+0xec>
    a108:	00000513          	li	a0,0
    a10c:	e19ff06f          	j	9f24 <core_state_transition+0xec>
    a110:	00078713          	mv	a4,a5
    a114:	00700513          	li	a0,7
    a118:	e0dff06f          	j	9f24 <core_state_transition+0xec>
    a11c:	00060713          	mv	a4,a2
    a120:	00300513          	li	a0,3
    a124:	e01ff06f          	j	9f24 <core_state_transition+0xec>
    a128:	00600513          	li	a0,6
    a12c:	df9ff06f          	j	9f24 <core_state_transition+0xec>
    a130:	00200513          	li	a0,2
    a134:	df1ff06f          	j	9f24 <core_state_transition+0xec>
    a138:	00050713          	mv	a4,a0
    a13c:	00700513          	li	a0,7
    a140:	de5ff06f          	j	9f24 <core_state_transition+0xec>
    a144:	00060713          	mv	a4,a2
    a148:	00400513          	li	a0,4
    a14c:	dd9ff06f          	j	9f24 <core_state_transition+0xec>

0000a150 <core_bench_state>:
    a150:	f8010113          	addi	sp,sp,-128
    a154:	06812c23          	sw	s0,120(sp)
    a158:	06912a23          	sw	s1,116(sp)
    a15c:	07312623          	sw	s3,108(sp)
    a160:	07412423          	sw	s4,104(sp)
    a164:	07512223          	sw	s5,100(sp)
    a168:	07612023          	sw	s6,96(sp)
    a16c:	06112e23          	sw	ra,124(sp)
    a170:	07212823          	sw	s2,112(sp)
    a174:	05712e23          	sw	s7,92(sp)
    a178:	00058413          	mv	s0,a1
    a17c:	0005c583          	lbu	a1,0(a1)
    a180:	00812623          	sw	s0,12(sp)
    a184:	02012823          	sw	zero,48(sp)
    a188:	00012823          	sw	zero,16(sp)
    a18c:	02012a23          	sw	zero,52(sp)
    a190:	00012a23          	sw	zero,20(sp)
    a194:	02012c23          	sw	zero,56(sp)
    a198:	00012c23          	sw	zero,24(sp)
    a19c:	02012e23          	sw	zero,60(sp)
    a1a0:	00012e23          	sw	zero,28(sp)
    a1a4:	04012023          	sw	zero,64(sp)
    a1a8:	02012023          	sw	zero,32(sp)
    a1ac:	04012223          	sw	zero,68(sp)
    a1b0:	02012223          	sw	zero,36(sp)
    a1b4:	04012423          	sw	zero,72(sp)
    a1b8:	02012423          	sw	zero,40(sp)
    a1bc:	04012623          	sw	zero,76(sp)
    a1c0:	02012623          	sw	zero,44(sp)
    a1c4:	00050b13          	mv	s6,a0
    a1c8:	00060a93          	mv	s5,a2
    a1cc:	00068a13          	mv	s4,a3
    a1d0:	00070993          	mv	s3,a4
    a1d4:	00078493          	mv	s1,a5
    a1d8:	16058063          	beqz	a1,a338 <core_bench_state+0x1e8>
    a1dc:	03010913          	addi	s2,sp,48
    a1e0:	00c10b93          	addi	s7,sp,12
    a1e4:	00090593          	mv	a1,s2
    a1e8:	000b8513          	mv	a0,s7
    a1ec:	c4dff0ef          	jal	ra,9e38 <core_state_transition>
    a1f0:	05010793          	addi	a5,sp,80
    a1f4:	00251813          	slli	a6,a0,0x2
    a1f8:	01078833          	add	a6,a5,a6
    a1fc:	00c12703          	lw	a4,12(sp)
    a200:	fc082783          	lw	a5,-64(a6)
    a204:	00074703          	lbu	a4,0(a4)
    a208:	00178793          	addi	a5,a5,1
    a20c:	fcf82023          	sw	a5,-64(a6)
    a210:	fc071ae3          	bnez	a4,a1e4 <core_bench_state+0x94>
    a214:	00812623          	sw	s0,12(sp)
    a218:	01640b33          	add	s6,s0,s6
    a21c:	00044583          	lbu	a1,0(s0)
    a220:	13647463          	bgeu	s0,s6,a348 <core_bench_state+0x1f8>
    a224:	02c00713          	li	a4,44
    a228:	00040813          	mv	a6,s0
    a22c:	0155c7b3          	xor	a5,a1,s5
    a230:	02e58263          	beq	a1,a4,a254 <core_bench_state+0x104>
    a234:	00f80023          	sb	a5,0(a6)
    a238:	00c12803          	lw	a6,12(sp)
    a23c:	01380833          	add	a6,a6,s3
    a240:	01012623          	sw	a6,12(sp)
    a244:	01687e63          	bgeu	a6,s6,a260 <core_bench_state+0x110>
    a248:	00084583          	lbu	a1,0(a6)
    a24c:	0155c7b3          	xor	a5,a1,s5
    a250:	fee592e3          	bne	a1,a4,a234 <core_bench_state+0xe4>
    a254:	01380833          	add	a6,a6,s3
    a258:	01012623          	sw	a6,12(sp)
    a25c:	ff6866e3          	bltu	a6,s6,a248 <core_bench_state+0xf8>
    a260:	00044783          	lbu	a5,0(s0)
    a264:	00812623          	sw	s0,12(sp)
    a268:	00c10b93          	addi	s7,sp,12
    a26c:	02078e63          	beqz	a5,a2a8 <core_bench_state+0x158>
    a270:	00090593          	mv	a1,s2
    a274:	000b8513          	mv	a0,s7
    a278:	bc1ff0ef          	jal	ra,9e38 <core_state_transition>
    a27c:	05010793          	addi	a5,sp,80
    a280:	00251613          	slli	a2,a0,0x2
    a284:	00c78633          	add	a2,a5,a2
    a288:	00c12703          	lw	a4,12(sp)
    a28c:	fc062783          	lw	a5,-64(a2)
    a290:	00074703          	lbu	a4,0(a4)
    a294:	00178793          	addi	a5,a5,1
    a298:	fcf62023          	sw	a5,-64(a2)
    a29c:	fc071ae3          	bnez	a4,a270 <core_bench_state+0x120>
    a2a0:	00812623          	sw	s0,12(sp)
    a2a4:	03647463          	bgeu	s0,s6,a2cc <core_bench_state+0x17c>
    a2a8:	02c00693          	li	a3,44
    a2ac:	00044783          	lbu	a5,0(s0)
    a2b0:	0147c733          	xor	a4,a5,s4
    a2b4:	06d78a63          	beq	a5,a3,a328 <core_bench_state+0x1d8>
    a2b8:	00e40023          	sb	a4,0(s0)
    a2bc:	00c12403          	lw	s0,12(sp)
    a2c0:	01340433          	add	s0,s0,s3
    a2c4:	00812623          	sw	s0,12(sp)
    a2c8:	ff6462e3          	bltu	s0,s6,a2ac <core_bench_state+0x15c>
    a2cc:	01010413          	addi	s0,sp,16
    a2d0:	00090993          	mv	s3,s2
    a2d4:	00042503          	lw	a0,0(s0)
    a2d8:	00048593          	mv	a1,s1
    a2dc:	00440413          	addi	s0,s0,4
    a2e0:	494000ef          	jal	ra,a774 <crcu32>
    a2e4:	00050593          	mv	a1,a0
    a2e8:	0009a503          	lw	a0,0(s3)
    a2ec:	00498993          	addi	s3,s3,4
    a2f0:	484000ef          	jal	ra,a774 <crcu32>
    a2f4:	00050493          	mv	s1,a0
    a2f8:	fd241ee3          	bne	s0,s2,a2d4 <core_bench_state+0x184>
    a2fc:	07c12083          	lw	ra,124(sp)
    a300:	07812403          	lw	s0,120(sp)
    a304:	07412483          	lw	s1,116(sp)
    a308:	07012903          	lw	s2,112(sp)
    a30c:	06c12983          	lw	s3,108(sp)
    a310:	06812a03          	lw	s4,104(sp)
    a314:	06412a83          	lw	s5,100(sp)
    a318:	06012b03          	lw	s6,96(sp)
    a31c:	05c12b83          	lw	s7,92(sp)
    a320:	08010113          	addi	sp,sp,128
    a324:	00008067          	ret
    a328:	01340433          	add	s0,s0,s3
    a32c:	00812623          	sw	s0,12(sp)
    a330:	f7646ee3          	bltu	s0,s6,a2ac <core_bench_state+0x15c>
    a334:	f99ff06f          	j	a2cc <core_bench_state+0x17c>
    a338:	00a40b33          	add	s6,s0,a0
    a33c:	03010913          	addi	s2,sp,48
    a340:	ef6462e3          	bltu	s0,s6,a224 <core_bench_state+0xd4>
    a344:	f89ff06f          	j	a2cc <core_bench_state+0x17c>
    a348:	f20594e3          	bnez	a1,a270 <core_bench_state+0x120>
    a34c:	f81ff06f          	j	a2cc <core_bench_state+0x17c>

0000a350 <get_seed_32>:
    a350:	00500793          	li	a5,5
    a354:	04a7ec63          	bltu	a5,a0,a3ac <get_seed_32+0x5c>
    a358:	000107b7          	lui	a5,0x10
    a35c:	04078793          	addi	a5,a5,64 # 10040 <errpat+0x10>
    a360:	00251513          	slli	a0,a0,0x2
    a364:	00f50533          	add	a0,a0,a5
    a368:	00052783          	lw	a5,0(a0)
    a36c:	00078067          	jr	a5
    a370:	000107b7          	lui	a5,0x10
    a374:	7707a503          	lw	a0,1904(a5) # 10770 <seed5_volatile>
    a378:	00008067          	ret
    a37c:	000107b7          	lui	a5,0x10
    a380:	7807a503          	lw	a0,1920(a5) # 10780 <seed1_volatile>
    a384:	00008067          	ret
    a388:	000107b7          	lui	a5,0x10
    a38c:	77c7a503          	lw	a0,1916(a5) # 1077c <seed2_volatile>
    a390:	00008067          	ret
    a394:	000107b7          	lui	a5,0x10
    a398:	7787a503          	lw	a0,1912(a5) # 10778 <seed3_volatile>
    a39c:	00008067          	ret
    a3a0:	000107b7          	lui	a5,0x10
    a3a4:	7747a503          	lw	a0,1908(a5) # 10774 <seed4_volatile>
    a3a8:	00008067          	ret
    a3ac:	00000513          	li	a0,0
    a3b0:	00008067          	ret

0000a3b4 <crcu8>:
    a3b4:	00b546b3          	xor	a3,a0,a1
    a3b8:	0016f693          	andi	a3,a3,1
    a3bc:	00155713          	srli	a4,a0,0x1
    a3c0:	0015d793          	srli	a5,a1,0x1
    a3c4:	00068c63          	beqz	a3,a3dc <crcu8+0x28>
    a3c8:	ffffa6b7          	lui	a3,0xffffa
    a3cc:	00168693          	addi	a3,a3,1 # ffffa001 <stack_top+0xfffda001>
    a3d0:	00d7c7b3          	xor	a5,a5,a3
    a3d4:	01079793          	slli	a5,a5,0x10
    a3d8:	0107d793          	srli	a5,a5,0x10
    a3dc:	00e7c733          	xor	a4,a5,a4
    a3e0:	00177713          	andi	a4,a4,1
    a3e4:	00255693          	srli	a3,a0,0x2
    a3e8:	0017d793          	srli	a5,a5,0x1
    a3ec:	00070c63          	beqz	a4,a404 <crcu8+0x50>
    a3f0:	ffffa737          	lui	a4,0xffffa
    a3f4:	00170713          	addi	a4,a4,1 # ffffa001 <stack_top+0xfffda001>
    a3f8:	00e7c7b3          	xor	a5,a5,a4
    a3fc:	01079793          	slli	a5,a5,0x10
    a400:	0107d793          	srli	a5,a5,0x10
    a404:	00d7c6b3          	xor	a3,a5,a3
    a408:	0016f693          	andi	a3,a3,1
    a40c:	00355713          	srli	a4,a0,0x3
    a410:	0017d793          	srli	a5,a5,0x1
    a414:	00068c63          	beqz	a3,a42c <crcu8+0x78>
    a418:	ffffa6b7          	lui	a3,0xffffa
    a41c:	00168693          	addi	a3,a3,1 # ffffa001 <stack_top+0xfffda001>
    a420:	00d7c7b3          	xor	a5,a5,a3
    a424:	01079793          	slli	a5,a5,0x10
    a428:	0107d793          	srli	a5,a5,0x10
    a42c:	00e7c733          	xor	a4,a5,a4
    a430:	00177713          	andi	a4,a4,1
    a434:	00455693          	srli	a3,a0,0x4
    a438:	0017d793          	srli	a5,a5,0x1
    a43c:	00070c63          	beqz	a4,a454 <crcu8+0xa0>
    a440:	ffffa737          	lui	a4,0xffffa
    a444:	00170713          	addi	a4,a4,1 # ffffa001 <stack_top+0xfffda001>
    a448:	00e7c7b3          	xor	a5,a5,a4
    a44c:	01079793          	slli	a5,a5,0x10
    a450:	0107d793          	srli	a5,a5,0x10
    a454:	00d7c6b3          	xor	a3,a5,a3
    a458:	0016f693          	andi	a3,a3,1
    a45c:	00555713          	srli	a4,a0,0x5
    a460:	0017d793          	srli	a5,a5,0x1
    a464:	00068c63          	beqz	a3,a47c <crcu8+0xc8>
    a468:	ffffa6b7          	lui	a3,0xffffa
    a46c:	00168693          	addi	a3,a3,1 # ffffa001 <stack_top+0xfffda001>
    a470:	00d7c7b3          	xor	a5,a5,a3
    a474:	01079793          	slli	a5,a5,0x10
    a478:	0107d793          	srli	a5,a5,0x10
    a47c:	00e7c733          	xor	a4,a5,a4
    a480:	00177713          	andi	a4,a4,1
    a484:	00655693          	srli	a3,a0,0x6
    a488:	0017d793          	srli	a5,a5,0x1
    a48c:	00070c63          	beqz	a4,a4a4 <crcu8+0xf0>
    a490:	ffffa737          	lui	a4,0xffffa
    a494:	00170713          	addi	a4,a4,1 # ffffa001 <stack_top+0xfffda001>
    a498:	00e7c7b3          	xor	a5,a5,a4
    a49c:	01079793          	slli	a5,a5,0x10
    a4a0:	0107d793          	srli	a5,a5,0x10
    a4a4:	00d7c6b3          	xor	a3,a5,a3
    a4a8:	0016f693          	andi	a3,a3,1
    a4ac:	00755713          	srli	a4,a0,0x7
    a4b0:	0017d513          	srli	a0,a5,0x1
    a4b4:	00068c63          	beqz	a3,a4cc <crcu8+0x118>
    a4b8:	ffffa7b7          	lui	a5,0xffffa
    a4bc:	00178793          	addi	a5,a5,1 # ffffa001 <stack_top+0xfffda001>
    a4c0:	00f54533          	xor	a0,a0,a5
    a4c4:	01051513          	slli	a0,a0,0x10
    a4c8:	01055513          	srli	a0,a0,0x10
    a4cc:	00157793          	andi	a5,a0,1
    a4d0:	00155513          	srli	a0,a0,0x1
    a4d4:	00e78c63          	beq	a5,a4,a4ec <crcu8+0x138>
    a4d8:	ffffa7b7          	lui	a5,0xffffa
    a4dc:	00178793          	addi	a5,a5,1 # ffffa001 <stack_top+0xfffda001>
    a4e0:	00f54533          	xor	a0,a0,a5
    a4e4:	01051513          	slli	a0,a0,0x10
    a4e8:	01055513          	srli	a0,a0,0x10
    a4ec:	00008067          	ret

0000a4f0 <crcu16>:
    a4f0:	00a5c6b3          	xor	a3,a1,a0
    a4f4:	0ff57713          	andi	a4,a0,255
    a4f8:	0016f693          	andi	a3,a3,1
    a4fc:	00050793          	mv	a5,a0
    a500:	00175613          	srli	a2,a4,0x1
    a504:	0015d513          	srli	a0,a1,0x1
    a508:	00068c63          	beqz	a3,a520 <crcu16+0x30>
    a50c:	ffffa6b7          	lui	a3,0xffffa
    a510:	00168693          	addi	a3,a3,1 # ffffa001 <stack_top+0xfffda001>
    a514:	00d54533          	xor	a0,a0,a3
    a518:	01051513          	slli	a0,a0,0x10
    a51c:	01055513          	srli	a0,a0,0x10
    a520:	00c54633          	xor	a2,a0,a2
    a524:	00167613          	andi	a2,a2,1
    a528:	00275693          	srli	a3,a4,0x2
    a52c:	00155513          	srli	a0,a0,0x1
    a530:	00060c63          	beqz	a2,a548 <crcu16+0x58>
    a534:	ffffa637          	lui	a2,0xffffa
    a538:	00160613          	addi	a2,a2,1 # ffffa001 <stack_top+0xfffda001>
    a53c:	00c54533          	xor	a0,a0,a2
    a540:	01051513          	slli	a0,a0,0x10
    a544:	01055513          	srli	a0,a0,0x10
    a548:	00d546b3          	xor	a3,a0,a3
    a54c:	0016f693          	andi	a3,a3,1
    a550:	00375613          	srli	a2,a4,0x3
    a554:	00155513          	srli	a0,a0,0x1
    a558:	00068c63          	beqz	a3,a570 <crcu16+0x80>
    a55c:	ffffa6b7          	lui	a3,0xffffa
    a560:	00168693          	addi	a3,a3,1 # ffffa001 <stack_top+0xfffda001>
    a564:	00d54533          	xor	a0,a0,a3
    a568:	01051513          	slli	a0,a0,0x10
    a56c:	01055513          	srli	a0,a0,0x10
    a570:	00c54633          	xor	a2,a0,a2
    a574:	00167613          	andi	a2,a2,1
    a578:	00475693          	srli	a3,a4,0x4
    a57c:	00155513          	srli	a0,a0,0x1
    a580:	00060c63          	beqz	a2,a598 <crcu16+0xa8>
    a584:	ffffa637          	lui	a2,0xffffa
    a588:	00160613          	addi	a2,a2,1 # ffffa001 <stack_top+0xfffda001>
    a58c:	00c54533          	xor	a0,a0,a2
    a590:	01051513          	slli	a0,a0,0x10
    a594:	01055513          	srli	a0,a0,0x10
    a598:	00d546b3          	xor	a3,a0,a3
    a59c:	0016f693          	andi	a3,a3,1
    a5a0:	00575613          	srli	a2,a4,0x5
    a5a4:	00155513          	srli	a0,a0,0x1
    a5a8:	00068c63          	beqz	a3,a5c0 <crcu16+0xd0>
    a5ac:	ffffa6b7          	lui	a3,0xffffa
    a5b0:	00168693          	addi	a3,a3,1 # ffffa001 <stack_top+0xfffda001>
    a5b4:	00d54533          	xor	a0,a0,a3
    a5b8:	01051513          	slli	a0,a0,0x10
    a5bc:	01055513          	srli	a0,a0,0x10
    a5c0:	00c54633          	xor	a2,a0,a2
    a5c4:	00167613          	andi	a2,a2,1
    a5c8:	00675693          	srli	a3,a4,0x6
    a5cc:	00155513          	srli	a0,a0,0x1
    a5d0:	00060c63          	beqz	a2,a5e8 <crcu16+0xf8>
    a5d4:	ffffa637          	lui	a2,0xffffa
    a5d8:	00160613          	addi	a2,a2,1 # ffffa001 <stack_top+0xfffda001>
    a5dc:	00c54533          	xor	a0,a0,a2
    a5e0:	01051513          	slli	a0,a0,0x10
    a5e4:	01055513          	srli	a0,a0,0x10
    a5e8:	00d546b3          	xor	a3,a0,a3
    a5ec:	0016f693          	andi	a3,a3,1
    a5f0:	00775713          	srli	a4,a4,0x7
    a5f4:	00155513          	srli	a0,a0,0x1
    a5f8:	00068c63          	beqz	a3,a610 <crcu16+0x120>
    a5fc:	ffffa6b7          	lui	a3,0xffffa
    a600:	00168693          	addi	a3,a3,1 # ffffa001 <stack_top+0xfffda001>
    a604:	00d54533          	xor	a0,a0,a3
    a608:	01051513          	slli	a0,a0,0x10
    a60c:	01055513          	srli	a0,a0,0x10
    a610:	00157693          	andi	a3,a0,1
    a614:	00155513          	srli	a0,a0,0x1
    a618:	00e68c63          	beq	a3,a4,a630 <crcu16+0x140>
    a61c:	ffffa737          	lui	a4,0xffffa
    a620:	00170713          	addi	a4,a4,1 # ffffa001 <stack_top+0xfffda001>
    a624:	00e54533          	xor	a0,a0,a4
    a628:	01051513          	slli	a0,a0,0x10
    a62c:	01055513          	srli	a0,a0,0x10
    a630:	0087d693          	srli	a3,a5,0x8
    a634:	00a6c6b3          	xor	a3,a3,a0
    a638:	0016f693          	andi	a3,a3,1
    a63c:	0087d713          	srli	a4,a5,0x8
    a640:	00155513          	srli	a0,a0,0x1
    a644:	0097d793          	srli	a5,a5,0x9
    a648:	00068c63          	beqz	a3,a660 <crcu16+0x170>
    a64c:	ffffa6b7          	lui	a3,0xffffa
    a650:	00168693          	addi	a3,a3,1 # ffffa001 <stack_top+0xfffda001>
    a654:	00d54533          	xor	a0,a0,a3
    a658:	01051513          	slli	a0,a0,0x10
    a65c:	01055513          	srli	a0,a0,0x10
    a660:	00a7c7b3          	xor	a5,a5,a0
    a664:	0017f793          	andi	a5,a5,1
    a668:	00275693          	srli	a3,a4,0x2
    a66c:	00155513          	srli	a0,a0,0x1
    a670:	00078c63          	beqz	a5,a688 <crcu16+0x198>
    a674:	ffffa7b7          	lui	a5,0xffffa
    a678:	00178793          	addi	a5,a5,1 # ffffa001 <stack_top+0xfffda001>
    a67c:	00f54533          	xor	a0,a0,a5
    a680:	01051513          	slli	a0,a0,0x10
    a684:	01055513          	srli	a0,a0,0x10
    a688:	00d547b3          	xor	a5,a0,a3
    a68c:	0017f793          	andi	a5,a5,1
    a690:	00375693          	srli	a3,a4,0x3
    a694:	00155513          	srli	a0,a0,0x1
    a698:	00078c63          	beqz	a5,a6b0 <crcu16+0x1c0>
    a69c:	ffffa7b7          	lui	a5,0xffffa
    a6a0:	00178793          	addi	a5,a5,1 # ffffa001 <stack_top+0xfffda001>
    a6a4:	00f54533          	xor	a0,a0,a5
    a6a8:	01051513          	slli	a0,a0,0x10
    a6ac:	01055513          	srli	a0,a0,0x10
    a6b0:	00d546b3          	xor	a3,a0,a3
    a6b4:	0016f693          	andi	a3,a3,1
    a6b8:	00475793          	srli	a5,a4,0x4
    a6bc:	00155513          	srli	a0,a0,0x1
    a6c0:	00068c63          	beqz	a3,a6d8 <crcu16+0x1e8>
    a6c4:	ffffa6b7          	lui	a3,0xffffa
    a6c8:	00168693          	addi	a3,a3,1 # ffffa001 <stack_top+0xfffda001>
    a6cc:	00d54533          	xor	a0,a0,a3
    a6d0:	01051513          	slli	a0,a0,0x10
    a6d4:	01055513          	srli	a0,a0,0x10
    a6d8:	00f547b3          	xor	a5,a0,a5
    a6dc:	0017f793          	andi	a5,a5,1
    a6e0:	00575693          	srli	a3,a4,0x5
    a6e4:	00155513          	srli	a0,a0,0x1
    a6e8:	00078c63          	beqz	a5,a700 <crcu16+0x210>
    a6ec:	ffffa7b7          	lui	a5,0xffffa
    a6f0:	00178793          	addi	a5,a5,1 # ffffa001 <stack_top+0xfffda001>
    a6f4:	00f54533          	xor	a0,a0,a5
    a6f8:	01051513          	slli	a0,a0,0x10
    a6fc:	01055513          	srli	a0,a0,0x10
    a700:	00d546b3          	xor	a3,a0,a3
    a704:	0016f693          	andi	a3,a3,1
    a708:	00675793          	srli	a5,a4,0x6
    a70c:	00155513          	srli	a0,a0,0x1
    a710:	00068c63          	beqz	a3,a728 <crcu16+0x238>
    a714:	ffffa6b7          	lui	a3,0xffffa
    a718:	00168693          	addi	a3,a3,1 # ffffa001 <stack_top+0xfffda001>
    a71c:	00d54533          	xor	a0,a0,a3
    a720:	01051513          	slli	a0,a0,0x10
    a724:	01055513          	srli	a0,a0,0x10
    a728:	00f547b3          	xor	a5,a0,a5
    a72c:	0017f793          	andi	a5,a5,1
    a730:	00775713          	srli	a4,a4,0x7
    a734:	00155513          	srli	a0,a0,0x1
    a738:	00078c63          	beqz	a5,a750 <crcu16+0x260>
    a73c:	ffffa7b7          	lui	a5,0xffffa
    a740:	00178793          	addi	a5,a5,1 # ffffa001 <stack_top+0xfffda001>
    a744:	00f54533          	xor	a0,a0,a5
    a748:	01051513          	slli	a0,a0,0x10
    a74c:	01055513          	srli	a0,a0,0x10
    a750:	00157793          	andi	a5,a0,1
    a754:	00155513          	srli	a0,a0,0x1
    a758:	00e78c63          	beq	a5,a4,a770 <crcu16+0x280>
    a75c:	ffffa7b7          	lui	a5,0xffffa
    a760:	00178793          	addi	a5,a5,1 # ffffa001 <stack_top+0xfffda001>
    a764:	00f54533          	xor	a0,a0,a5
    a768:	01051513          	slli	a0,a0,0x10
    a76c:	01055513          	srli	a0,a0,0x10
    a770:	00008067          	ret

0000a774 <crcu32>:
    a774:	00a5c833          	xor	a6,a1,a0
    a778:	0ff57693          	andi	a3,a0,255
    a77c:	01051713          	slli	a4,a0,0x10
    a780:	00187813          	andi	a6,a6,1
    a784:	00050793          	mv	a5,a0
    a788:	01075713          	srli	a4,a4,0x10
    a78c:	0016d613          	srli	a2,a3,0x1
    a790:	0015d513          	srli	a0,a1,0x1
    a794:	00080c63          	beqz	a6,a7ac <crcu32+0x38>
    a798:	ffffa5b7          	lui	a1,0xffffa
    a79c:	00158593          	addi	a1,a1,1 # ffffa001 <stack_top+0xfffda001>
    a7a0:	00b54533          	xor	a0,a0,a1
    a7a4:	01051513          	slli	a0,a0,0x10
    a7a8:	01055513          	srli	a0,a0,0x10
    a7ac:	00c545b3          	xor	a1,a0,a2
    a7b0:	0015f593          	andi	a1,a1,1
    a7b4:	0026d613          	srli	a2,a3,0x2
    a7b8:	00155513          	srli	a0,a0,0x1
    a7bc:	00058c63          	beqz	a1,a7d4 <crcu32+0x60>
    a7c0:	ffffa5b7          	lui	a1,0xffffa
    a7c4:	00158593          	addi	a1,a1,1 # ffffa001 <stack_top+0xfffda001>
    a7c8:	00b54533          	xor	a0,a0,a1
    a7cc:	01051513          	slli	a0,a0,0x10
    a7d0:	01055513          	srli	a0,a0,0x10
    a7d4:	00c54633          	xor	a2,a0,a2
    a7d8:	00167613          	andi	a2,a2,1
    a7dc:	0036d593          	srli	a1,a3,0x3
    a7e0:	00155513          	srli	a0,a0,0x1
    a7e4:	00060c63          	beqz	a2,a7fc <crcu32+0x88>
    a7e8:	ffffa637          	lui	a2,0xffffa
    a7ec:	00160613          	addi	a2,a2,1 # ffffa001 <stack_top+0xfffda001>
    a7f0:	00c54533          	xor	a0,a0,a2
    a7f4:	01051513          	slli	a0,a0,0x10
    a7f8:	01055513          	srli	a0,a0,0x10
    a7fc:	00b545b3          	xor	a1,a0,a1
    a800:	0015f593          	andi	a1,a1,1
    a804:	0046d613          	srli	a2,a3,0x4
    a808:	00155513          	srli	a0,a0,0x1
    a80c:	00058c63          	beqz	a1,a824 <crcu32+0xb0>
    a810:	ffffa5b7          	lui	a1,0xffffa
    a814:	00158593          	addi	a1,a1,1 # ffffa001 <stack_top+0xfffda001>
    a818:	00b54533          	xor	a0,a0,a1
    a81c:	01051513          	slli	a0,a0,0x10
    a820:	01055513          	srli	a0,a0,0x10
    a824:	00c54633          	xor	a2,a0,a2
    a828:	00167613          	andi	a2,a2,1
    a82c:	0056d593          	srli	a1,a3,0x5
    a830:	00155513          	srli	a0,a0,0x1
    a834:	00060c63          	beqz	a2,a84c <crcu32+0xd8>
    a838:	ffffa637          	lui	a2,0xffffa
    a83c:	00160613          	addi	a2,a2,1 # ffffa001 <stack_top+0xfffda001>
    a840:	00c54533          	xor	a0,a0,a2
    a844:	01051513          	slli	a0,a0,0x10
    a848:	01055513          	srli	a0,a0,0x10
    a84c:	00b545b3          	xor	a1,a0,a1
    a850:	0015f593          	andi	a1,a1,1
    a854:	0066d613          	srli	a2,a3,0x6
    a858:	00155513          	srli	a0,a0,0x1
    a85c:	00058c63          	beqz	a1,a874 <crcu32+0x100>
    a860:	ffffa5b7          	lui	a1,0xffffa
    a864:	00158593          	addi	a1,a1,1 # ffffa001 <stack_top+0xfffda001>
    a868:	00b54533          	xor	a0,a0,a1
    a86c:	01051513          	slli	a0,a0,0x10
    a870:	01055513          	srli	a0,a0,0x10
    a874:	00c54633          	xor	a2,a0,a2
    a878:	00167613          	andi	a2,a2,1
    a87c:	0076d693          	srli	a3,a3,0x7
    a880:	00155513          	srli	a0,a0,0x1
    a884:	00060c63          	beqz	a2,a89c <crcu32+0x128>
    a888:	ffffa637          	lui	a2,0xffffa
    a88c:	00160613          	addi	a2,a2,1 # ffffa001 <stack_top+0xfffda001>
    a890:	00c54533          	xor	a0,a0,a2
    a894:	01051513          	slli	a0,a0,0x10
    a898:	01055513          	srli	a0,a0,0x10
    a89c:	00157613          	andi	a2,a0,1
    a8a0:	00155513          	srli	a0,a0,0x1
    a8a4:	3cd61a63          	bne	a2,a3,ac78 <crcu32+0x504>
    a8a8:	00875613          	srli	a2,a4,0x8
    a8ac:	00c54633          	xor	a2,a0,a2
    a8b0:	00167613          	andi	a2,a2,1
    a8b4:	00875693          	srli	a3,a4,0x8
    a8b8:	00155513          	srli	a0,a0,0x1
    a8bc:	00975713          	srli	a4,a4,0x9
    a8c0:	00060c63          	beqz	a2,a8d8 <crcu32+0x164>
    a8c4:	ffffa637          	lui	a2,0xffffa
    a8c8:	00160613          	addi	a2,a2,1 # ffffa001 <stack_top+0xfffda001>
    a8cc:	00c54533          	xor	a0,a0,a2
    a8d0:	01051513          	slli	a0,a0,0x10
    a8d4:	01055513          	srli	a0,a0,0x10
    a8d8:	00e54733          	xor	a4,a0,a4
    a8dc:	00177713          	andi	a4,a4,1
    a8e0:	0026d613          	srli	a2,a3,0x2
    a8e4:	00155513          	srli	a0,a0,0x1
    a8e8:	00070c63          	beqz	a4,a900 <crcu32+0x18c>
    a8ec:	ffffa737          	lui	a4,0xffffa
    a8f0:	00170713          	addi	a4,a4,1 # ffffa001 <stack_top+0xfffda001>
    a8f4:	00e54533          	xor	a0,a0,a4
    a8f8:	01051513          	slli	a0,a0,0x10
    a8fc:	01055513          	srli	a0,a0,0x10
    a900:	00c54733          	xor	a4,a0,a2
    a904:	00177713          	andi	a4,a4,1
    a908:	0036d613          	srli	a2,a3,0x3
    a90c:	00155513          	srli	a0,a0,0x1
    a910:	00070c63          	beqz	a4,a928 <crcu32+0x1b4>
    a914:	ffffa737          	lui	a4,0xffffa
    a918:	00170713          	addi	a4,a4,1 # ffffa001 <stack_top+0xfffda001>
    a91c:	00e54533          	xor	a0,a0,a4
    a920:	01051513          	slli	a0,a0,0x10
    a924:	01055513          	srli	a0,a0,0x10
    a928:	00c54633          	xor	a2,a0,a2
    a92c:	00167613          	andi	a2,a2,1
    a930:	0046d713          	srli	a4,a3,0x4
    a934:	00155513          	srli	a0,a0,0x1
    a938:	00060c63          	beqz	a2,a950 <crcu32+0x1dc>
    a93c:	ffffa637          	lui	a2,0xffffa
    a940:	00160613          	addi	a2,a2,1 # ffffa001 <stack_top+0xfffda001>
    a944:	00c54533          	xor	a0,a0,a2
    a948:	01051513          	slli	a0,a0,0x10
    a94c:	01055513          	srli	a0,a0,0x10
    a950:	00e54733          	xor	a4,a0,a4
    a954:	00177713          	andi	a4,a4,1
    a958:	0056d613          	srli	a2,a3,0x5
    a95c:	00155513          	srli	a0,a0,0x1
    a960:	00070c63          	beqz	a4,a978 <crcu32+0x204>
    a964:	ffffa737          	lui	a4,0xffffa
    a968:	00170713          	addi	a4,a4,1 # ffffa001 <stack_top+0xfffda001>
    a96c:	00e54533          	xor	a0,a0,a4
    a970:	01051513          	slli	a0,a0,0x10
    a974:	01055513          	srli	a0,a0,0x10
    a978:	00c54633          	xor	a2,a0,a2
    a97c:	00167613          	andi	a2,a2,1
    a980:	0066d713          	srli	a4,a3,0x6
    a984:	00155513          	srli	a0,a0,0x1
    a988:	00060c63          	beqz	a2,a9a0 <crcu32+0x22c>
    a98c:	ffffa637          	lui	a2,0xffffa
    a990:	00160613          	addi	a2,a2,1 # ffffa001 <stack_top+0xfffda001>
    a994:	00c54533          	xor	a0,a0,a2
    a998:	01051513          	slli	a0,a0,0x10
    a99c:	01055513          	srli	a0,a0,0x10
    a9a0:	00e54733          	xor	a4,a0,a4
    a9a4:	00177713          	andi	a4,a4,1
    a9a8:	0076d693          	srli	a3,a3,0x7
    a9ac:	00155513          	srli	a0,a0,0x1
    a9b0:	00070c63          	beqz	a4,a9c8 <crcu32+0x254>
    a9b4:	ffffa737          	lui	a4,0xffffa
    a9b8:	00170713          	addi	a4,a4,1 # ffffa001 <stack_top+0xfffda001>
    a9bc:	00e54533          	xor	a0,a0,a4
    a9c0:	01051513          	slli	a0,a0,0x10
    a9c4:	01055513          	srli	a0,a0,0x10
    a9c8:	00157713          	andi	a4,a0,1
    a9cc:	00155513          	srli	a0,a0,0x1
    a9d0:	28d71863          	bne	a4,a3,ac60 <crcu32+0x4ec>
    a9d4:	0107d713          	srli	a4,a5,0x10
    a9d8:	00e546b3          	xor	a3,a0,a4
    a9dc:	0016f693          	andi	a3,a3,1
    a9e0:	0ff77713          	andi	a4,a4,255
    a9e4:	0107d793          	srli	a5,a5,0x10
    a9e8:	00175613          	srli	a2,a4,0x1
    a9ec:	00155513          	srli	a0,a0,0x1
    a9f0:	00068c63          	beqz	a3,aa08 <crcu32+0x294>
    a9f4:	ffffa6b7          	lui	a3,0xffffa
    a9f8:	00168693          	addi	a3,a3,1 # ffffa001 <stack_top+0xfffda001>
    a9fc:	00d54533          	xor	a0,a0,a3
    aa00:	01051513          	slli	a0,a0,0x10
    aa04:	01055513          	srli	a0,a0,0x10
    aa08:	00c54633          	xor	a2,a0,a2
    aa0c:	00167613          	andi	a2,a2,1
    aa10:	00275693          	srli	a3,a4,0x2
    aa14:	00155513          	srli	a0,a0,0x1
    aa18:	00060c63          	beqz	a2,aa30 <crcu32+0x2bc>
    aa1c:	ffffa637          	lui	a2,0xffffa
    aa20:	00160613          	addi	a2,a2,1 # ffffa001 <stack_top+0xfffda001>
    aa24:	00c54533          	xor	a0,a0,a2
    aa28:	01051513          	slli	a0,a0,0x10
    aa2c:	01055513          	srli	a0,a0,0x10
    aa30:	00d546b3          	xor	a3,a0,a3
    aa34:	0016f693          	andi	a3,a3,1
    aa38:	00375613          	srli	a2,a4,0x3
    aa3c:	00155513          	srli	a0,a0,0x1
    aa40:	00068c63          	beqz	a3,aa58 <crcu32+0x2e4>
    aa44:	ffffa6b7          	lui	a3,0xffffa
    aa48:	00168693          	addi	a3,a3,1 # ffffa001 <stack_top+0xfffda001>
    aa4c:	00d54533          	xor	a0,a0,a3
    aa50:	01051513          	slli	a0,a0,0x10
    aa54:	01055513          	srli	a0,a0,0x10
    aa58:	00c54633          	xor	a2,a0,a2
    aa5c:	00167613          	andi	a2,a2,1
    aa60:	00475693          	srli	a3,a4,0x4
    aa64:	00155513          	srli	a0,a0,0x1
    aa68:	00060c63          	beqz	a2,aa80 <crcu32+0x30c>
    aa6c:	ffffa637          	lui	a2,0xffffa
    aa70:	00160613          	addi	a2,a2,1 # ffffa001 <stack_top+0xfffda001>
    aa74:	00c54533          	xor	a0,a0,a2
    aa78:	01051513          	slli	a0,a0,0x10
    aa7c:	01055513          	srli	a0,a0,0x10
    aa80:	00d546b3          	xor	a3,a0,a3
    aa84:	0016f693          	andi	a3,a3,1
    aa88:	00575613          	srli	a2,a4,0x5
    aa8c:	00155513          	srli	a0,a0,0x1
    aa90:	00068c63          	beqz	a3,aaa8 <crcu32+0x334>
    aa94:	ffffa6b7          	lui	a3,0xffffa
    aa98:	00168693          	addi	a3,a3,1 # ffffa001 <stack_top+0xfffda001>
    aa9c:	00d54533          	xor	a0,a0,a3
    aaa0:	01051513          	slli	a0,a0,0x10
    aaa4:	01055513          	srli	a0,a0,0x10
    aaa8:	00c54633          	xor	a2,a0,a2
    aaac:	00167613          	andi	a2,a2,1
    aab0:	00675693          	srli	a3,a4,0x6
    aab4:	00155513          	srli	a0,a0,0x1
    aab8:	00060c63          	beqz	a2,aad0 <crcu32+0x35c>
    aabc:	ffffa637          	lui	a2,0xffffa
    aac0:	00160613          	addi	a2,a2,1 # ffffa001 <stack_top+0xfffda001>
    aac4:	00c54533          	xor	a0,a0,a2
    aac8:	01051513          	slli	a0,a0,0x10
    aacc:	01055513          	srli	a0,a0,0x10
    aad0:	00d546b3          	xor	a3,a0,a3
    aad4:	0016f693          	andi	a3,a3,1
    aad8:	00775713          	srli	a4,a4,0x7
    aadc:	00155513          	srli	a0,a0,0x1
    aae0:	00068c63          	beqz	a3,aaf8 <crcu32+0x384>
    aae4:	ffffa6b7          	lui	a3,0xffffa
    aae8:	00168693          	addi	a3,a3,1 # ffffa001 <stack_top+0xfffda001>
    aaec:	00d54533          	xor	a0,a0,a3
    aaf0:	01051513          	slli	a0,a0,0x10
    aaf4:	01055513          	srli	a0,a0,0x10
    aaf8:	00157693          	andi	a3,a0,1
    aafc:	00155513          	srli	a0,a0,0x1
    ab00:	14e69463          	bne	a3,a4,ac48 <crcu32+0x4d4>
    ab04:	0087d693          	srli	a3,a5,0x8
    ab08:	00a6c6b3          	xor	a3,a3,a0
    ab0c:	0016f693          	andi	a3,a3,1
    ab10:	0087d713          	srli	a4,a5,0x8
    ab14:	00155513          	srli	a0,a0,0x1
    ab18:	0097d793          	srli	a5,a5,0x9
    ab1c:	00068c63          	beqz	a3,ab34 <crcu32+0x3c0>
    ab20:	ffffa6b7          	lui	a3,0xffffa
    ab24:	00168693          	addi	a3,a3,1 # ffffa001 <stack_top+0xfffda001>
    ab28:	00d54533          	xor	a0,a0,a3
    ab2c:	01051513          	slli	a0,a0,0x10
    ab30:	01055513          	srli	a0,a0,0x10
    ab34:	00f547b3          	xor	a5,a0,a5
    ab38:	0017f793          	andi	a5,a5,1
    ab3c:	00275693          	srli	a3,a4,0x2
    ab40:	00155513          	srli	a0,a0,0x1
    ab44:	00078c63          	beqz	a5,ab5c <crcu32+0x3e8>
    ab48:	ffffa7b7          	lui	a5,0xffffa
    ab4c:	00178793          	addi	a5,a5,1 # ffffa001 <stack_top+0xfffda001>
    ab50:	00f54533          	xor	a0,a0,a5
    ab54:	01051513          	slli	a0,a0,0x10
    ab58:	01055513          	srli	a0,a0,0x10
    ab5c:	00a6c7b3          	xor	a5,a3,a0
    ab60:	0017f793          	andi	a5,a5,1
    ab64:	00375693          	srli	a3,a4,0x3
    ab68:	00155513          	srli	a0,a0,0x1
    ab6c:	00078c63          	beqz	a5,ab84 <crcu32+0x410>
    ab70:	ffffa7b7          	lui	a5,0xffffa
    ab74:	00178793          	addi	a5,a5,1 # ffffa001 <stack_top+0xfffda001>
    ab78:	00f54533          	xor	a0,a0,a5
    ab7c:	01051513          	slli	a0,a0,0x10
    ab80:	01055513          	srli	a0,a0,0x10
    ab84:	00a6c6b3          	xor	a3,a3,a0
    ab88:	0016f693          	andi	a3,a3,1
    ab8c:	00475793          	srli	a5,a4,0x4
    ab90:	00155513          	srli	a0,a0,0x1
    ab94:	00068c63          	beqz	a3,abac <crcu32+0x438>
    ab98:	ffffa6b7          	lui	a3,0xffffa
    ab9c:	00168693          	addi	a3,a3,1 # ffffa001 <stack_top+0xfffda001>
    aba0:	00d54533          	xor	a0,a0,a3
    aba4:	01051513          	slli	a0,a0,0x10
    aba8:	01055513          	srli	a0,a0,0x10
    abac:	00f547b3          	xor	a5,a0,a5
    abb0:	0017f793          	andi	a5,a5,1
    abb4:	00575693          	srli	a3,a4,0x5
    abb8:	00155513          	srli	a0,a0,0x1
    abbc:	00078c63          	beqz	a5,abd4 <crcu32+0x460>
    abc0:	ffffa7b7          	lui	a5,0xffffa
    abc4:	00178793          	addi	a5,a5,1 # ffffa001 <stack_top+0xfffda001>
    abc8:	00f54533          	xor	a0,a0,a5
    abcc:	01051513          	slli	a0,a0,0x10
    abd0:	01055513          	srli	a0,a0,0x10
    abd4:	00d546b3          	xor	a3,a0,a3
    abd8:	0016f693          	andi	a3,a3,1
    abdc:	00675793          	srli	a5,a4,0x6
    abe0:	00155513          	srli	a0,a0,0x1
    abe4:	00068c63          	beqz	a3,abfc <crcu32+0x488>
    abe8:	ffffa6b7          	lui	a3,0xffffa
    abec:	00168693          	addi	a3,a3,1 # ffffa001 <stack_top+0xfffda001>
    abf0:	00d54533          	xor	a0,a0,a3
    abf4:	01051513          	slli	a0,a0,0x10
    abf8:	01055513          	srli	a0,a0,0x10
    abfc:	00f547b3          	xor	a5,a0,a5
    ac00:	0017f793          	andi	a5,a5,1
    ac04:	00775713          	srli	a4,a4,0x7
    ac08:	00155513          	srli	a0,a0,0x1
    ac0c:	00078c63          	beqz	a5,ac24 <crcu32+0x4b0>
    ac10:	ffffa7b7          	lui	a5,0xffffa
    ac14:	00178793          	addi	a5,a5,1 # ffffa001 <stack_top+0xfffda001>
    ac18:	00f54533          	xor	a0,a0,a5
    ac1c:	01051513          	slli	a0,a0,0x10
    ac20:	01055513          	srli	a0,a0,0x10
    ac24:	00157793          	andi	a5,a0,1
    ac28:	00155513          	srli	a0,a0,0x1
    ac2c:	00e78c63          	beq	a5,a4,ac44 <crcu32+0x4d0>
    ac30:	ffffa7b7          	lui	a5,0xffffa
    ac34:	00178793          	addi	a5,a5,1 # ffffa001 <stack_top+0xfffda001>
    ac38:	00f54533          	xor	a0,a0,a5
    ac3c:	01051513          	slli	a0,a0,0x10
    ac40:	01055513          	srli	a0,a0,0x10
    ac44:	00008067          	ret
    ac48:	ffffa737          	lui	a4,0xffffa
    ac4c:	00170713          	addi	a4,a4,1 # ffffa001 <stack_top+0xfffda001>
    ac50:	00e54533          	xor	a0,a0,a4
    ac54:	01051513          	slli	a0,a0,0x10
    ac58:	01055513          	srli	a0,a0,0x10
    ac5c:	ea9ff06f          	j	ab04 <crcu32+0x390>
    ac60:	ffffa737          	lui	a4,0xffffa
    ac64:	00170713          	addi	a4,a4,1 # ffffa001 <stack_top+0xfffda001>
    ac68:	00e54533          	xor	a0,a0,a4
    ac6c:	01051513          	slli	a0,a0,0x10
    ac70:	01055513          	srli	a0,a0,0x10
    ac74:	d61ff06f          	j	a9d4 <crcu32+0x260>
    ac78:	ffffa6b7          	lui	a3,0xffffa
    ac7c:	00168693          	addi	a3,a3,1 # ffffa001 <stack_top+0xfffda001>
    ac80:	00d54533          	xor	a0,a0,a3
    ac84:	01051513          	slli	a0,a0,0x10
    ac88:	01055513          	srli	a0,a0,0x10
    ac8c:	c1dff06f          	j	a8a8 <crcu32+0x134>

0000ac90 <crc16>:
    ac90:	00a5c6b3          	xor	a3,a1,a0
    ac94:	0ff57713          	andi	a4,a0,255
    ac98:	01051793          	slli	a5,a0,0x10
    ac9c:	0016f693          	andi	a3,a3,1
    aca0:	0107d793          	srli	a5,a5,0x10
    aca4:	00175613          	srli	a2,a4,0x1
    aca8:	0015d513          	srli	a0,a1,0x1
    acac:	00068c63          	beqz	a3,acc4 <crc16+0x34>
    acb0:	ffffa6b7          	lui	a3,0xffffa
    acb4:	00168693          	addi	a3,a3,1 # ffffa001 <stack_top+0xfffda001>
    acb8:	00d54533          	xor	a0,a0,a3
    acbc:	01051513          	slli	a0,a0,0x10
    acc0:	01055513          	srli	a0,a0,0x10
    acc4:	00c54633          	xor	a2,a0,a2
    acc8:	00167613          	andi	a2,a2,1
    accc:	00275693          	srli	a3,a4,0x2
    acd0:	00155513          	srli	a0,a0,0x1
    acd4:	00060c63          	beqz	a2,acec <crc16+0x5c>
    acd8:	ffffa637          	lui	a2,0xffffa
    acdc:	00160613          	addi	a2,a2,1 # ffffa001 <stack_top+0xfffda001>
    ace0:	00c54533          	xor	a0,a0,a2
    ace4:	01051513          	slli	a0,a0,0x10
    ace8:	01055513          	srli	a0,a0,0x10
    acec:	00d546b3          	xor	a3,a0,a3
    acf0:	0016f693          	andi	a3,a3,1
    acf4:	00375613          	srli	a2,a4,0x3
    acf8:	00155513          	srli	a0,a0,0x1
    acfc:	00068c63          	beqz	a3,ad14 <crc16+0x84>
    ad00:	ffffa6b7          	lui	a3,0xffffa
    ad04:	00168693          	addi	a3,a3,1 # ffffa001 <stack_top+0xfffda001>
    ad08:	00d54533          	xor	a0,a0,a3
    ad0c:	01051513          	slli	a0,a0,0x10
    ad10:	01055513          	srli	a0,a0,0x10
    ad14:	00c54633          	xor	a2,a0,a2
    ad18:	00167613          	andi	a2,a2,1
    ad1c:	00475693          	srli	a3,a4,0x4
    ad20:	00155513          	srli	a0,a0,0x1
    ad24:	00060c63          	beqz	a2,ad3c <crc16+0xac>
    ad28:	ffffa637          	lui	a2,0xffffa
    ad2c:	00160613          	addi	a2,a2,1 # ffffa001 <stack_top+0xfffda001>
    ad30:	00c54533          	xor	a0,a0,a2
    ad34:	01051513          	slli	a0,a0,0x10
    ad38:	01055513          	srli	a0,a0,0x10
    ad3c:	00d546b3          	xor	a3,a0,a3
    ad40:	0016f693          	andi	a3,a3,1
    ad44:	00575613          	srli	a2,a4,0x5
    ad48:	00155513          	srli	a0,a0,0x1
    ad4c:	00068c63          	beqz	a3,ad64 <crc16+0xd4>
    ad50:	ffffa6b7          	lui	a3,0xffffa
    ad54:	00168693          	addi	a3,a3,1 # ffffa001 <stack_top+0xfffda001>
    ad58:	00d54533          	xor	a0,a0,a3
    ad5c:	01051513          	slli	a0,a0,0x10
    ad60:	01055513          	srli	a0,a0,0x10
    ad64:	00c54633          	xor	a2,a0,a2
    ad68:	00167613          	andi	a2,a2,1
    ad6c:	00675693          	srli	a3,a4,0x6
    ad70:	00155513          	srli	a0,a0,0x1
    ad74:	00060c63          	beqz	a2,ad8c <crc16+0xfc>
    ad78:	ffffa637          	lui	a2,0xffffa
    ad7c:	00160613          	addi	a2,a2,1 # ffffa001 <stack_top+0xfffda001>
    ad80:	00c54533          	xor	a0,a0,a2
    ad84:	01051513          	slli	a0,a0,0x10
    ad88:	01055513          	srli	a0,a0,0x10
    ad8c:	00d546b3          	xor	a3,a0,a3
    ad90:	0016f693          	andi	a3,a3,1
    ad94:	00775713          	srli	a4,a4,0x7
    ad98:	00155513          	srli	a0,a0,0x1
    ad9c:	00068c63          	beqz	a3,adb4 <crc16+0x124>
    ada0:	ffffa6b7          	lui	a3,0xffffa
    ada4:	00168693          	addi	a3,a3,1 # ffffa001 <stack_top+0xfffda001>
    ada8:	00d54533          	xor	a0,a0,a3
    adac:	01051513          	slli	a0,a0,0x10
    adb0:	01055513          	srli	a0,a0,0x10
    adb4:	00157693          	andi	a3,a0,1
    adb8:	00155513          	srli	a0,a0,0x1
    adbc:	14e69463          	bne	a3,a4,af04 <crc16+0x274>
    adc0:	0087d693          	srli	a3,a5,0x8
    adc4:	00a6c6b3          	xor	a3,a3,a0
    adc8:	0016f693          	andi	a3,a3,1
    adcc:	0087d713          	srli	a4,a5,0x8
    add0:	00155513          	srli	a0,a0,0x1
    add4:	0097d793          	srli	a5,a5,0x9
    add8:	00068c63          	beqz	a3,adf0 <crc16+0x160>
    addc:	ffffa6b7          	lui	a3,0xffffa
    ade0:	00168693          	addi	a3,a3,1 # ffffa001 <stack_top+0xfffda001>
    ade4:	00d54533          	xor	a0,a0,a3
    ade8:	01051513          	slli	a0,a0,0x10
    adec:	01055513          	srli	a0,a0,0x10
    adf0:	00a7c7b3          	xor	a5,a5,a0
    adf4:	0017f793          	andi	a5,a5,1
    adf8:	00275693          	srli	a3,a4,0x2
    adfc:	00155513          	srli	a0,a0,0x1
    ae00:	00078c63          	beqz	a5,ae18 <crc16+0x188>
    ae04:	ffffa7b7          	lui	a5,0xffffa
    ae08:	00178793          	addi	a5,a5,1 # ffffa001 <stack_top+0xfffda001>
    ae0c:	00f54533          	xor	a0,a0,a5
    ae10:	01051513          	slli	a0,a0,0x10
    ae14:	01055513          	srli	a0,a0,0x10
    ae18:	00d547b3          	xor	a5,a0,a3
    ae1c:	0017f793          	andi	a5,a5,1
    ae20:	00375693          	srli	a3,a4,0x3
    ae24:	00155513          	srli	a0,a0,0x1
    ae28:	00078c63          	beqz	a5,ae40 <crc16+0x1b0>
    ae2c:	ffffa7b7          	lui	a5,0xffffa
    ae30:	00178793          	addi	a5,a5,1 # ffffa001 <stack_top+0xfffda001>
    ae34:	00f54533          	xor	a0,a0,a5
    ae38:	01051513          	slli	a0,a0,0x10
    ae3c:	01055513          	srli	a0,a0,0x10
    ae40:	00d546b3          	xor	a3,a0,a3
    ae44:	0016f693          	andi	a3,a3,1
    ae48:	00475793          	srli	a5,a4,0x4
    ae4c:	00155513          	srli	a0,a0,0x1
    ae50:	00068c63          	beqz	a3,ae68 <crc16+0x1d8>
    ae54:	ffffa6b7          	lui	a3,0xffffa
    ae58:	00168693          	addi	a3,a3,1 # ffffa001 <stack_top+0xfffda001>
    ae5c:	00d54533          	xor	a0,a0,a3
    ae60:	01051513          	slli	a0,a0,0x10
    ae64:	01055513          	srli	a0,a0,0x10
    ae68:	00f547b3          	xor	a5,a0,a5
    ae6c:	0017f793          	andi	a5,a5,1
    ae70:	00575693          	srli	a3,a4,0x5
    ae74:	00155513          	srli	a0,a0,0x1
    ae78:	00078c63          	beqz	a5,ae90 <crc16+0x200>
    ae7c:	ffffa7b7          	lui	a5,0xffffa
    ae80:	00178793          	addi	a5,a5,1 # ffffa001 <stack_top+0xfffda001>
    ae84:	00f54533          	xor	a0,a0,a5
    ae88:	01051513          	slli	a0,a0,0x10
    ae8c:	01055513          	srli	a0,a0,0x10
    ae90:	00d546b3          	xor	a3,a0,a3
    ae94:	0016f693          	andi	a3,a3,1
    ae98:	00675793          	srli	a5,a4,0x6
    ae9c:	00155513          	srli	a0,a0,0x1
    aea0:	00068c63          	beqz	a3,aeb8 <crc16+0x228>
    aea4:	ffffa6b7          	lui	a3,0xffffa
    aea8:	00168693          	addi	a3,a3,1 # ffffa001 <stack_top+0xfffda001>
    aeac:	00d54533          	xor	a0,a0,a3
    aeb0:	01051513          	slli	a0,a0,0x10
    aeb4:	01055513          	srli	a0,a0,0x10
    aeb8:	00f547b3          	xor	a5,a0,a5
    aebc:	0017f793          	andi	a5,a5,1
    aec0:	00775713          	srli	a4,a4,0x7
    aec4:	00155513          	srli	a0,a0,0x1
    aec8:	00078c63          	beqz	a5,aee0 <crc16+0x250>
    aecc:	ffffa7b7          	lui	a5,0xffffa
    aed0:	00178793          	addi	a5,a5,1 # ffffa001 <stack_top+0xfffda001>
    aed4:	00f54533          	xor	a0,a0,a5
    aed8:	01051513          	slli	a0,a0,0x10
    aedc:	01055513          	srli	a0,a0,0x10
    aee0:	00157793          	andi	a5,a0,1
    aee4:	00155513          	srli	a0,a0,0x1
    aee8:	00e78c63          	beq	a5,a4,af00 <crc16+0x270>
    aeec:	ffffa7b7          	lui	a5,0xffffa
    aef0:	00178793          	addi	a5,a5,1 # ffffa001 <stack_top+0xfffda001>
    aef4:	00f54533          	xor	a0,a0,a5
    aef8:	01051513          	slli	a0,a0,0x10
    aefc:	01055513          	srli	a0,a0,0x10
    af00:	00008067          	ret
    af04:	ffffa737          	lui	a4,0xffffa
    af08:	00170713          	addi	a4,a4,1 # ffffa001 <stack_top+0xfffda001>
    af0c:	00e54533          	xor	a0,a0,a4
    af10:	01051513          	slli	a0,a0,0x10
    af14:	01055513          	srli	a0,a0,0x10
    af18:	ea9ff06f          	j	adc0 <crc16+0x130>

0000af1c <check_data_types>:
    af1c:	00000513          	li	a0,0
    af20:	00008067          	ret

0000af24 <barebones_clock>:
    af24:	ff010113          	addi	sp,sp,-16
    af28:	00012623          	sw	zero,12(sp)
    af2c:	00c12783          	lw	a5,12(sp)
    af30:	00f12623          	sw	a5,12(sp)
    af34:	00c12783          	lw	a5,12(sp)
    af38:	00178793          	addi	a5,a5,1
    af3c:	00f12623          	sw	a5,12(sp)
    af40:	00c12783          	lw	a5,12(sp)
    af44:	00278793          	addi	a5,a5,2
    af48:	00f12623          	sw	a5,12(sp)
    af4c:	00c12783          	lw	a5,12(sp)
    af50:	00378793          	addi	a5,a5,3
    af54:	00f12623          	sw	a5,12(sp)
    af58:	00c12783          	lw	a5,12(sp)
    af5c:	00478793          	addi	a5,a5,4
    af60:	00f12623          	sw	a5,12(sp)
    af64:	00c12783          	lw	a5,12(sp)
    af68:	00578793          	addi	a5,a5,5
    af6c:	00f12623          	sw	a5,12(sp)
    af70:	00c12783          	lw	a5,12(sp)
    af74:	00678793          	addi	a5,a5,6
    af78:	00f12623          	sw	a5,12(sp)
    af7c:	00c12783          	lw	a5,12(sp)
    af80:	00778793          	addi	a5,a5,7
    af84:	00f12623          	sw	a5,12(sp)
    af88:	00c12783          	lw	a5,12(sp)
    af8c:	00878793          	addi	a5,a5,8
    af90:	00f12623          	sw	a5,12(sp)
    af94:	00c12783          	lw	a5,12(sp)
    af98:	00978793          	addi	a5,a5,9
    af9c:	00f12623          	sw	a5,12(sp)
    afa0:	f0002503          	lw	a0,-256(zero) # ffffff00 <stack_top+0xfffdff00>
    afa4:	01010113          	addi	sp,sp,16
    afa8:	00008067          	ret

0000afac <start_time>:
    afac:	000107b7          	lui	a5,0x10
    afb0:	7807a423          	sw	zero,1928(a5) # 10788 <start_time_val>
    afb4:	00008067          	ret

0000afb8 <stop_time>:
    afb8:	000107b7          	lui	a5,0x10
    afbc:	00a00713          	li	a4,10
    afc0:	78e7a223          	sw	a4,1924(a5) # 10784 <stop_time_val>
    afc4:	00008067          	ret

0000afc8 <get_time>:
    afc8:	000107b7          	lui	a5,0x10
    afcc:	7847a503          	lw	a0,1924(a5) # 10784 <stop_time_val>
    afd0:	000107b7          	lui	a5,0x10
    afd4:	7887a783          	lw	a5,1928(a5) # 10788 <start_time_val>
    afd8:	40f50533          	sub	a0,a0,a5
    afdc:	00008067          	ret

0000afe0 <time_in_secs>:
    afe0:	00008067          	ret

0000afe4 <portable_init>:
    afe4:	00100793          	li	a5,1
    afe8:	00f50023          	sb	a5,0(a0)
    afec:	00008067          	ret

0000aff0 <portable_fini>:
    aff0:	00050023          	sb	zero,0(a0)
    aff4:	00008067          	ret

0000aff8 <number>:
    aff8:	f6010113          	addi	sp,sp,-160
    affc:	08912a23          	sw	s1,148(sp)
    b000:	09212823          	sw	s2,144(sp)
    b004:	09412423          	sw	s4,136(sp)
    b008:	07b12623          	sw	s11,108(sp)
    b00c:	08112e23          	sw	ra,156(sp)
    b010:	08812c23          	sw	s0,152(sp)
    b014:	09312623          	sw	s3,140(sp)
    b018:	09512223          	sw	s5,132(sp)
    b01c:	09612023          	sw	s6,128(sp)
    b020:	07712e23          	sw	s7,124(sp)
    b024:	07812c23          	sw	s8,120(sp)
    b028:	07912a23          	sw	s9,116(sp)
    b02c:	07a12823          	sw	s10,112(sp)
    b030:	0407f813          	andi	a6,a5,64
    b034:	00e12223          	sw	a4,4(sp)
    b038:	00050493          	mv	s1,a0
    b03c:	00058913          	mv	s2,a1
    b040:	00060d93          	mv	s11,a2
    b044:	00068a13          	mv	s4,a3
    b048:	4c080863          	beqz	a6,b518 <number+0x520>
    b04c:	00010ab7          	lui	s5,0x10
    b050:	730a8a93          	addi	s5,s5,1840 # 10730 <errpat+0x700>
    b054:	0107fc13          	andi	s8,a5,16
    b058:	480c0e63          	beqz	s8,b4f4 <number+0x4fc>
    b05c:	ffe7f793          	andi	a5,a5,-2
    b060:	01812423          	sw	s8,8(sp)
    b064:	0027f713          	andi	a4,a5,2
    b068:	02000b93          	li	s7,32
    b06c:	0207fc93          	andi	s9,a5,32
    b070:	4a070a63          	beqz	a4,b524 <number+0x52c>
    b074:	4a094c63          	bltz	s2,b52c <number+0x534>
    b078:	0047f713          	andi	a4,a5,4
    b07c:	50071663          	bnez	a4,b588 <number+0x590>
    b080:	0087f793          	andi	a5,a5,8
    b084:	00012623          	sw	zero,12(sp)
    b088:	00078863          	beqz	a5,b098 <number+0xa0>
    b08c:	02000793          	li	a5,32
    b090:	fffa0a13          	addi	s4,s4,-1
    b094:	00f12623          	sw	a5,12(sp)
    b098:	000c8c63          	beqz	s9,b0b0 <number+0xb8>
    b09c:	01000793          	li	a5,16
    b0a0:	50fd8e63          	beq	s11,a5,b5bc <number+0x5c4>
    b0a4:	ff8d8793          	addi	a5,s11,-8
    b0a8:	0017b793          	seqz	a5,a5
    b0ac:	40fa0a33          	sub	s4,s4,a5
    b0b0:	48091863          	bnez	s2,b540 <number+0x548>
    b0b4:	03000793          	li	a5,48
    b0b8:	00f10e23          	sb	a5,28(sp)
    b0bc:	00000d13          	li	s10,0
    b0c0:	00100993          	li	s3,1
    b0c4:	01c10413          	addi	s0,sp,28
    b0c8:	00412783          	lw	a5,4(sp)
    b0cc:	00098693          	mv	a3,s3
    b0d0:	00f9d463          	bge	s3,a5,b0d8 <number+0xe0>
    b0d4:	00078693          	mv	a3,a5
    b0d8:	00812783          	lw	a5,8(sp)
    b0dc:	40da0a33          	sub	s4,s4,a3
    b0e0:	fffa0893          	addi	a7,s4,-1
    b0e4:	0c079c63          	bnez	a5,b1bc <number+0x1c4>
    b0e8:	51405c63          	blez	s4,b600 <number+0x608>
    b0ec:	409007b3          	neg	a5,s1
    b0f0:	00500713          	li	a4,5
    b0f4:	0037f793          	andi	a5,a5,3
    b0f8:	53177263          	bgeu	a4,a7,b61c <number+0x624>
    b0fc:	00048513          	mv	a0,s1
    b100:	02078e63          	beqz	a5,b13c <number+0x144>
    b104:	02000713          	li	a4,32
    b108:	00e48023          	sb	a4,0(s1)
    b10c:	00100613          	li	a2,1
    b110:	00148513          	addi	a0,s1,1
    b114:	ffea0893          	addi	a7,s4,-2
    b118:	02c78263          	beq	a5,a2,b13c <number+0x144>
    b11c:	00e480a3          	sb	a4,1(s1)
    b120:	00300613          	li	a2,3
    b124:	00248513          	addi	a0,s1,2
    b128:	ffda0893          	addi	a7,s4,-3
    b12c:	00c79863          	bne	a5,a2,b13c <number+0x144>
    b130:	00348513          	addi	a0,s1,3
    b134:	00e48123          	sb	a4,2(s1)
    b138:	ffca0893          	addi	a7,s4,-4
    b13c:	40fa0333          	sub	t1,s4,a5
    b140:	ffc37613          	andi	a2,t1,-4
    b144:	00f487b3          	add	a5,s1,a5
    b148:	20202737          	lui	a4,0x20202
    b14c:	00f60633          	add	a2,a2,a5
    b150:	02070713          	addi	a4,a4,32 # 20202020 <stack_top+0x201e2020>
    b154:	00e7a023          	sw	a4,0(a5)
    b158:	00478793          	addi	a5,a5,4
    b15c:	fec79ce3          	bne	a5,a2,b154 <number+0x15c>
    b160:	ffc37713          	andi	a4,t1,-4
    b164:	00e507b3          	add	a5,a0,a4
    b168:	40e888b3          	sub	a7,a7,a4
    b16c:	04e30263          	beq	t1,a4,b1b0 <number+0x1b8>
    b170:	02000713          	li	a4,32
    b174:	00e78023          	sb	a4,0(a5)
    b178:	03105c63          	blez	a7,b1b0 <number+0x1b8>
    b17c:	00e780a3          	sb	a4,1(a5)
    b180:	00100613          	li	a2,1
    b184:	03165663          	bge	a2,a7,b1b0 <number+0x1b8>
    b188:	00e78123          	sb	a4,2(a5)
    b18c:	00200613          	li	a2,2
    b190:	03165063          	bge	a2,a7,b1b0 <number+0x1b8>
    b194:	00e781a3          	sb	a4,3(a5)
    b198:	00300613          	li	a2,3
    b19c:	01165a63          	bge	a2,a7,b1b0 <number+0x1b8>
    b1a0:	00e78223          	sb	a4,4(a5)
    b1a4:	00400613          	li	a2,4
    b1a8:	01165463          	bge	a2,a7,b1b0 <number+0x1b8>
    b1ac:	00e782a3          	sb	a4,5(a5)
    b1b0:	014484b3          	add	s1,s1,s4
    b1b4:	ffe00893          	li	a7,-2
    b1b8:	fff00a13          	li	s4,-1
    b1bc:	00c12783          	lw	a5,12(sp)
    b1c0:	00078663          	beqz	a5,b1cc <number+0x1d4>
    b1c4:	00f48023          	sb	a5,0(s1)
    b1c8:	00148493          	addi	s1,s1,1
    b1cc:	000c8a63          	beqz	s9,b1e0 <number+0x1e8>
    b1d0:	00800793          	li	a5,8
    b1d4:	3efd8863          	beq	s11,a5,b5c4 <number+0x5cc>
    b1d8:	01000793          	li	a5,16
    b1dc:	3afd8e63          	beq	s11,a5,b598 <number+0x5a0>
    b1e0:	0e0c1863          	bnez	s8,b2d0 <number+0x2d8>
    b1e4:	41405863          	blez	s4,b5f4 <number+0x5fc>
    b1e8:	fff8ca13          	not	s4,a7
    b1ec:	41fa5a13          	srai	s4,s4,0x1f
    b1f0:	0148f333          	and	t1,a7,s4
    b1f4:	409007b3          	neg	a5,s1
    b1f8:	00500713          	li	a4,5
    b1fc:	00130f13          	addi	t5,t1,1 # 10001 <intpat+0x1>
    b200:	0037f793          	andi	a5,a5,3
    b204:	41175663          	bge	a4,a7,b610 <number+0x618>
    b208:	3c078663          	beqz	a5,b5d4 <number+0x5dc>
    b20c:	fff88a13          	addi	s4,a7,-1
    b210:	01748023          	sb	s7,0(s1)
    b214:	00100713          	li	a4,1
    b218:	00148513          	addi	a0,s1,1
    b21c:	000a0e13          	mv	t3,s4
    b220:	02e78263          	beq	a5,a4,b244 <number+0x24c>
    b224:	017480a3          	sb	s7,1(s1)
    b228:	00300713          	li	a4,3
    b22c:	00248513          	addi	a0,s1,2
    b230:	ffe88e13          	addi	t3,a7,-2
    b234:	00e79863          	bne	a5,a4,b244 <number+0x24c>
    b238:	00348513          	addi	a0,s1,3
    b23c:	01748123          	sb	s7,2(s1)
    b240:	ffd88e13          	addi	t3,a7,-3
    b244:	008b9593          	slli	a1,s7,0x8
    b248:	40ff0eb3          	sub	t4,t5,a5
    b24c:	00bbe5b3          	or	a1,s7,a1
    b250:	010b9613          	slli	a2,s7,0x10
    b254:	00c5e633          	or	a2,a1,a2
    b258:	018b9713          	slli	a4,s7,0x18
    b25c:	00f487b3          	add	a5,s1,a5
    b260:	ffcef593          	andi	a1,t4,-4
    b264:	00e66733          	or	a4,a2,a4
    b268:	00f58633          	add	a2,a1,a5
    b26c:	00e7a023          	sw	a4,0(a5)
    b270:	00478793          	addi	a5,a5,4
    b274:	fec79ce3          	bne	a5,a2,b26c <number+0x274>
    b278:	ffcef713          	andi	a4,t4,-4
    b27c:	00e507b3          	add	a5,a0,a4
    b280:	40ee08b3          	sub	a7,t3,a4
    b284:	04ee8063          	beq	t4,a4,b2c4 <number+0x2cc>
    b288:	01778023          	sb	s7,0(a5)
    b28c:	03105c63          	blez	a7,b2c4 <number+0x2cc>
    b290:	017780a3          	sb	s7,1(a5)
    b294:	00100713          	li	a4,1
    b298:	03175663          	bge	a4,a7,b2c4 <number+0x2cc>
    b29c:	01778123          	sb	s7,2(a5)
    b2a0:	00200713          	li	a4,2
    b2a4:	03175063          	bge	a4,a7,b2c4 <number+0x2cc>
    b2a8:	017781a3          	sb	s7,3(a5)
    b2ac:	00300713          	li	a4,3
    b2b0:	01175a63          	bge	a4,a7,b2c4 <number+0x2cc>
    b2b4:	01778223          	sb	s7,4(a5)
    b2b8:	00400713          	li	a4,4
    b2bc:	01175463          	bge	a4,a7,b2c4 <number+0x2cc>
    b2c0:	017782a3          	sb	s7,5(a5)
    b2c4:	406a0a33          	sub	s4,s4,t1
    b2c8:	01e484b3          	add	s1,s1,t5
    b2cc:	fffa0893          	addi	a7,s4,-1
    b2d0:	fff68593          	addi	a1,a3,-1
    b2d4:	0cd9da63          	bge	s3,a3,b3a8 <number+0x3b0>
    b2d8:	41368533          	sub	a0,a3,s3
    b2dc:	40900733          	neg	a4,s1
    b2e0:	fff50613          	addi	a2,a0,-1
    b2e4:	00500793          	li	a5,5
    b2e8:	00377713          	andi	a4,a4,3
    b2ec:	30c7f063          	bgeu	a5,a2,b5ec <number+0x5f4>
    b2f0:	00048613          	mv	a2,s1
    b2f4:	02070e63          	beqz	a4,b330 <number+0x338>
    b2f8:	03000793          	li	a5,48
    b2fc:	00f48023          	sb	a5,0(s1)
    b300:	00100313          	li	t1,1
    b304:	00148613          	addi	a2,s1,1
    b308:	ffe68593          	addi	a1,a3,-2
    b30c:	02670263          	beq	a4,t1,b330 <number+0x338>
    b310:	00f480a3          	sb	a5,1(s1)
    b314:	00300313          	li	t1,3
    b318:	00248613          	addi	a2,s1,2
    b31c:	ffd68593          	addi	a1,a3,-3
    b320:	00671863          	bne	a4,t1,b330 <number+0x338>
    b324:	00348613          	addi	a2,s1,3
    b328:	00f48123          	sb	a5,2(s1)
    b32c:	ffc68593          	addi	a1,a3,-4
    b330:	40e50333          	sub	t1,a0,a4
    b334:	ffc37693          	andi	a3,t1,-4
    b338:	00e48733          	add	a4,s1,a4
    b33c:	303037b7          	lui	a5,0x30303
    b340:	00e686b3          	add	a3,a3,a4
    b344:	03078793          	addi	a5,a5,48 # 30303030 <stack_top+0x302e3030>
    b348:	00f72023          	sw	a5,0(a4)
    b34c:	00470713          	addi	a4,a4,4
    b350:	fed71ce3          	bne	a4,a3,b348 <number+0x350>
    b354:	ffc37713          	andi	a4,t1,-4
    b358:	00e607b3          	add	a5,a2,a4
    b35c:	40e585b3          	sub	a1,a1,a4
    b360:	04e30263          	beq	t1,a4,b3a4 <number+0x3ac>
    b364:	03000713          	li	a4,48
    b368:	00e78023          	sb	a4,0(a5)
    b36c:	fff58693          	addi	a3,a1,-1
    b370:	02b9da63          	bge	s3,a1,b3a4 <number+0x3ac>
    b374:	00e780a3          	sb	a4,1(a5)
    b378:	ffe58613          	addi	a2,a1,-2
    b37c:	02d9d463          	bge	s3,a3,b3a4 <number+0x3ac>
    b380:	00e78123          	sb	a4,2(a5)
    b384:	ffd58693          	addi	a3,a1,-3
    b388:	00c9de63          	bge	s3,a2,b3a4 <number+0x3ac>
    b38c:	00e781a3          	sb	a4,3(a5)
    b390:	ffc58593          	addi	a1,a1,-4
    b394:	00d9d863          	bge	s3,a3,b3a4 <number+0x3ac>
    b398:	00e78223          	sb	a4,4(a5)
    b39c:	00b9d463          	bge	s3,a1,b3a4 <number+0x3ac>
    b3a0:	00e782a3          	sb	a4,5(a5)
    b3a4:	00a484b3          	add	s1,s1,a0
    b3a8:	01a406b3          	add	a3,s0,s10
    b3ac:	00048713          	mv	a4,s1
    b3b0:	00100593          	li	a1,1
    b3b4:	0006c603          	lbu	a2,0(a3)
    b3b8:	00170713          	addi	a4,a4,1
    b3bc:	40e587b3          	sub	a5,a1,a4
    b3c0:	01a787b3          	add	a5,a5,s10
    b3c4:	00f487b3          	add	a5,s1,a5
    b3c8:	fec70fa3          	sb	a2,-1(a4)
    b3cc:	fff68693          	addi	a3,a3,-1
    b3d0:	fef042e3          	bgtz	a5,b3b4 <number+0x3bc>
    b3d4:	001d0813          	addi	a6,s10,1
    b3d8:	01048533          	add	a0,s1,a6
    b3dc:	0d405e63          	blez	s4,b4b8 <number+0x4c0>
    b3e0:	fff8c713          	not	a4,a7
    b3e4:	41f75713          	srai	a4,a4,0x1f
    b3e8:	00e8f733          	and	a4,a7,a4
    b3ec:	40a007b3          	neg	a5,a0
    b3f0:	00500693          	li	a3,5
    b3f4:	00170713          	addi	a4,a4,1
    b3f8:	0037f793          	andi	a5,a5,3
    b3fc:	1f16d463          	bge	a3,a7,b5e4 <number+0x5ec>
    b400:	1a078863          	beqz	a5,b5b0 <number+0x5b8>
    b404:	02000693          	li	a3,32
    b408:	00d50023          	sb	a3,0(a0)
    b40c:	00100593          	li	a1,1
    b410:	00150613          	addi	a2,a0,1
    b414:	fff88313          	addi	t1,a7,-1
    b418:	02b78263          	beq	a5,a1,b43c <number+0x444>
    b41c:	00d500a3          	sb	a3,1(a0)
    b420:	00300593          	li	a1,3
    b424:	00250613          	addi	a2,a0,2
    b428:	ffe88313          	addi	t1,a7,-2
    b42c:	00b79863          	bne	a5,a1,b43c <number+0x444>
    b430:	00350613          	addi	a2,a0,3
    b434:	00d50123          	sb	a3,2(a0)
    b438:	ffd88313          	addi	t1,a7,-3
    b43c:	40f705b3          	sub	a1,a4,a5
    b440:	010787b3          	add	a5,a5,a6
    b444:	00f484b3          	add	s1,s1,a5
    b448:	ffc5f693          	andi	a3,a1,-4
    b44c:	202027b7          	lui	a5,0x20202
    b450:	009686b3          	add	a3,a3,s1
    b454:	02078793          	addi	a5,a5,32 # 20202020 <stack_top+0x201e2020>
    b458:	00f4a023          	sw	a5,0(s1)
    b45c:	00448493          	addi	s1,s1,4
    b460:	fe969ce3          	bne	a3,s1,b458 <number+0x460>
    b464:	ffc5f693          	andi	a3,a1,-4
    b468:	00d607b3          	add	a5,a2,a3
    b46c:	40d308b3          	sub	a7,t1,a3
    b470:	04b68263          	beq	a3,a1,b4b4 <number+0x4bc>
    b474:	02000693          	li	a3,32
    b478:	00d78023          	sb	a3,0(a5)
    b47c:	03105c63          	blez	a7,b4b4 <number+0x4bc>
    b480:	00d780a3          	sb	a3,1(a5)
    b484:	00100613          	li	a2,1
    b488:	03165663          	bge	a2,a7,b4b4 <number+0x4bc>
    b48c:	00d78123          	sb	a3,2(a5)
    b490:	00200613          	li	a2,2
    b494:	03165063          	bge	a2,a7,b4b4 <number+0x4bc>
    b498:	00d781a3          	sb	a3,3(a5)
    b49c:	00300613          	li	a2,3
    b4a0:	01165a63          	bge	a2,a7,b4b4 <number+0x4bc>
    b4a4:	00d78223          	sb	a3,4(a5)
    b4a8:	00400613          	li	a2,4
    b4ac:	01165463          	bge	a2,a7,b4b4 <number+0x4bc>
    b4b0:	00d782a3          	sb	a3,5(a5)
    b4b4:	00e50533          	add	a0,a0,a4
    b4b8:	09c12083          	lw	ra,156(sp)
    b4bc:	09812403          	lw	s0,152(sp)
    b4c0:	09412483          	lw	s1,148(sp)
    b4c4:	09012903          	lw	s2,144(sp)
    b4c8:	08c12983          	lw	s3,140(sp)
    b4cc:	08812a03          	lw	s4,136(sp)
    b4d0:	08412a83          	lw	s5,132(sp)
    b4d4:	08012b03          	lw	s6,128(sp)
    b4d8:	07c12b83          	lw	s7,124(sp)
    b4dc:	07812c03          	lw	s8,120(sp)
    b4e0:	07412c83          	lw	s9,116(sp)
    b4e4:	07012d03          	lw	s10,112(sp)
    b4e8:	06c12d83          	lw	s11,108(sp)
    b4ec:	0a010113          	addi	sp,sp,160
    b4f0:	00008067          	ret
    b4f4:	0117f693          	andi	a3,a5,17
    b4f8:	0017f713          	andi	a4,a5,1
    b4fc:	00d12423          	sw	a3,8(sp)
    b500:	03000b93          	li	s7,48
    b504:	b60700e3          	beqz	a4,b064 <number+0x6c>
    b508:	0027f713          	andi	a4,a5,2
    b50c:	0207fc93          	andi	s9,a5,32
    b510:	00070a63          	beqz	a4,b524 <number+0x52c>
    b514:	b61ff06f          	j	b074 <number+0x7c>
    b518:	00010ab7          	lui	s5,0x10
    b51c:	708a8a93          	addi	s5,s5,1800 # 10708 <errpat+0x6d8>
    b520:	b35ff06f          	j	b054 <number+0x5c>
    b524:	00012623          	sw	zero,12(sp)
    b528:	b71ff06f          	j	b098 <number+0xa0>
    b52c:	02d00793          	li	a5,45
    b530:	00f12623          	sw	a5,12(sp)
    b534:	41200933          	neg	s2,s2
    b538:	fffa0a13          	addi	s4,s4,-1
    b53c:	b60c90e3          	bnez	s9,b09c <number+0xa4>
    b540:	00000993          	li	s3,0
    b544:	01c10413          	addi	s0,sp,28
    b548:	000d8593          	mv	a1,s11
    b54c:	00090513          	mv	a0,s2
    b550:	734010ef          	jal	ra,cc84 <__umodsi3>
    b554:	00aa8533          	add	a0,s5,a0
    b558:	00054683          	lbu	a3,0(a0)
    b55c:	00098d13          	mv	s10,s3
    b560:	00198993          	addi	s3,s3,1
    b564:	01340733          	add	a4,s0,s3
    b568:	00090513          	mv	a0,s2
    b56c:	000d8593          	mv	a1,s11
    b570:	fed70fa3          	sb	a3,-1(a4)
    b574:	00090b13          	mv	s6,s2
    b578:	6c4010ef          	jal	ra,cc3c <__udivsi3>
    b57c:	00050913          	mv	s2,a0
    b580:	fdbb74e3          	bgeu	s6,s11,b548 <number+0x550>
    b584:	b45ff06f          	j	b0c8 <number+0xd0>
    b588:	02b00793          	li	a5,43
    b58c:	fffa0a13          	addi	s4,s4,-1
    b590:	00f12623          	sw	a5,12(sp)
    b594:	b05ff06f          	j	b098 <number+0xa0>
    b598:	03000793          	li	a5,48
    b59c:	00f48023          	sb	a5,0(s1)
    b5a0:	07800793          	li	a5,120
    b5a4:	00f480a3          	sb	a5,1(s1)
    b5a8:	00248493          	addi	s1,s1,2
    b5ac:	c35ff06f          	j	b1e0 <number+0x1e8>
    b5b0:	00088313          	mv	t1,a7
    b5b4:	00050613          	mv	a2,a0
    b5b8:	e85ff06f          	j	b43c <number+0x444>
    b5bc:	ffea0a13          	addi	s4,s4,-2
    b5c0:	af1ff06f          	j	b0b0 <number+0xb8>
    b5c4:	03000793          	li	a5,48
    b5c8:	00f48023          	sb	a5,0(s1)
    b5cc:	00148493          	addi	s1,s1,1
    b5d0:	c11ff06f          	j	b1e0 <number+0x1e8>
    b5d4:	00088e13          	mv	t3,a7
    b5d8:	00048513          	mv	a0,s1
    b5dc:	fff88a13          	addi	s4,a7,-1
    b5e0:	c65ff06f          	j	b244 <number+0x24c>
    b5e4:	00050793          	mv	a5,a0
    b5e8:	e8dff06f          	j	b474 <number+0x47c>
    b5ec:	00048793          	mv	a5,s1
    b5f0:	d75ff06f          	j	b364 <number+0x36c>
    b5f4:	00088a13          	mv	s4,a7
    b5f8:	fff88893          	addi	a7,a7,-1
    b5fc:	cd5ff06f          	j	b2d0 <number+0x2d8>
    b600:	ffea0793          	addi	a5,s4,-2
    b604:	00088a13          	mv	s4,a7
    b608:	00078893          	mv	a7,a5
    b60c:	bb1ff06f          	j	b1bc <number+0x1c4>
    b610:	00048793          	mv	a5,s1
    b614:	fff88a13          	addi	s4,a7,-1
    b618:	c71ff06f          	j	b288 <number+0x290>
    b61c:	00048793          	mv	a5,s1
    b620:	b51ff06f          	j	b170 <number+0x178>

0000b624 <uart_send_char>:
    b624:	ff010113          	addi	sp,sp,-16
    b628:	00012623          	sw	zero,12(sp)
    b62c:	00c12783          	lw	a5,12(sp)
    b630:	00f12623          	sw	a5,12(sp)
    b634:	00c12783          	lw	a5,12(sp)
    b638:	00178793          	addi	a5,a5,1
    b63c:	00f12623          	sw	a5,12(sp)
    b640:	00c12783          	lw	a5,12(sp)
    b644:	00278793          	addi	a5,a5,2
    b648:	00f12623          	sw	a5,12(sp)
    b64c:	00c12783          	lw	a5,12(sp)
    b650:	00378793          	addi	a5,a5,3
    b654:	00f12623          	sw	a5,12(sp)
    b658:	00c12783          	lw	a5,12(sp)
    b65c:	00478793          	addi	a5,a5,4
    b660:	00f12623          	sw	a5,12(sp)
    b664:	00c12783          	lw	a5,12(sp)
    b668:	00578793          	addi	a5,a5,5
    b66c:	00f12623          	sw	a5,12(sp)
    b670:	00c12783          	lw	a5,12(sp)
    b674:	00678793          	addi	a5,a5,6
    b678:	00f12623          	sw	a5,12(sp)
    b67c:	00c12783          	lw	a5,12(sp)
    b680:	00778793          	addi	a5,a5,7
    b684:	00f12623          	sw	a5,12(sp)
    b688:	00c12783          	lw	a5,12(sp)
    b68c:	00878793          	addi	a5,a5,8
    b690:	00f12623          	sw	a5,12(sp)
    b694:	00c12783          	lw	a5,12(sp)
    b698:	00978793          	addi	a5,a5,9
    b69c:	00f12623          	sw	a5,12(sp)
    b6a0:	f6fff7b7          	lui	a5,0xf6fff
    b6a4:	06a78823          	sb	a0,112(a5) # f6fff070 <stack_top+0xf6fdf070>
    b6a8:	01010113          	addi	sp,sp,16
    b6ac:	00008067          	ret

0000b6b0 <ee_printf>:
    b6b0:	e7010113          	addi	sp,sp,-400
    b6b4:	16812423          	sw	s0,360(sp)
    b6b8:	16912223          	sw	s1,356(sp)
    b6bc:	15612823          	sw	s6,336(sp)
    b6c0:	16112623          	sw	ra,364(sp)
    b6c4:	17212023          	sw	s2,352(sp)
    b6c8:	15312e23          	sw	s3,348(sp)
    b6cc:	15412c23          	sw	s4,344(sp)
    b6d0:	15512a23          	sw	s5,340(sp)
    b6d4:	15712623          	sw	s7,332(sp)
    b6d8:	15812423          	sw	s8,328(sp)
    b6dc:	15912223          	sw	s9,324(sp)
    b6e0:	15a12023          	sw	s10,320(sp)
    b6e4:	13b12e23          	sw	s11,316(sp)
    b6e8:	16b12a23          	sw	a1,372(sp)
    b6ec:	16c12c23          	sw	a2,376(sp)
    b6f0:	16d12e23          	sw	a3,380(sp)
    b6f4:	18e12023          	sw	a4,384(sp)
    b6f8:	18f12223          	sw	a5,388(sp)
    b6fc:	19012423          	sw	a6,392(sp)
    b700:	19112623          	sw	a7,396(sp)
    b704:	00054783          	lbu	a5,0(a0)
    b708:	17410b13          	addi	s6,sp,372
    b70c:	03010493          	addi	s1,sp,48
    b710:	01612a23          	sw	s6,20(sp)
    b714:	00048413          	mv	s0,s1
    b718:	02078c63          	beqz	a5,b750 <ee_printf+0xa0>
    b71c:	00010bb7          	lui	s7,0x10
    b720:	000109b7          	lui	s3,0x10
    b724:	00010937          	lui	s2,0x10
    b728:	058b8b93          	addi	s7,s7,88 # 10058 <errpat+0x28>
    b72c:	09c98993          	addi	s3,s3,156 # 1009c <errpat+0x6c>
    b730:	70890913          	addi	s2,s2,1800 # 10708 <errpat+0x6d8>
    b734:	02500713          	li	a4,37
    b738:	0ee78c63          	beq	a5,a4,b830 <ee_printf+0x180>
    b73c:	00f40023          	sb	a5,0(s0)
    b740:	00154783          	lbu	a5,1(a0)
    b744:	00140413          	addi	s0,s0,1
    b748:	00150513          	addi	a0,a0,1
    b74c:	fe0794e3          	bnez	a5,b734 <ee_printf+0x84>
    b750:	00040023          	sb	zero,0(s0)
    b754:	03014703          	lbu	a4,48(sp)
    b758:	1c070263          	beqz	a4,b91c <ee_printf+0x26c>
    b75c:	00100693          	li	a3,1
    b760:	f6fff637          	lui	a2,0xf6fff
    b764:	409686b3          	sub	a3,a3,s1
    b768:	00012c23          	sw	zero,24(sp)
    b76c:	01812783          	lw	a5,24(sp)
    b770:	00d48533          	add	a0,s1,a3
    b774:	00148493          	addi	s1,s1,1
    b778:	00f12c23          	sw	a5,24(sp)
    b77c:	01812783          	lw	a5,24(sp)
    b780:	00178793          	addi	a5,a5,1
    b784:	00f12c23          	sw	a5,24(sp)
    b788:	01812783          	lw	a5,24(sp)
    b78c:	00278793          	addi	a5,a5,2
    b790:	00f12c23          	sw	a5,24(sp)
    b794:	01812783          	lw	a5,24(sp)
    b798:	00378793          	addi	a5,a5,3
    b79c:	00f12c23          	sw	a5,24(sp)
    b7a0:	01812783          	lw	a5,24(sp)
    b7a4:	00478793          	addi	a5,a5,4
    b7a8:	00f12c23          	sw	a5,24(sp)
    b7ac:	01812783          	lw	a5,24(sp)
    b7b0:	00578793          	addi	a5,a5,5
    b7b4:	00f12c23          	sw	a5,24(sp)
    b7b8:	01812783          	lw	a5,24(sp)
    b7bc:	00678793          	addi	a5,a5,6
    b7c0:	00f12c23          	sw	a5,24(sp)
    b7c4:	01812783          	lw	a5,24(sp)
    b7c8:	00778793          	addi	a5,a5,7
    b7cc:	00f12c23          	sw	a5,24(sp)
    b7d0:	01812783          	lw	a5,24(sp)
    b7d4:	00878793          	addi	a5,a5,8
    b7d8:	00f12c23          	sw	a5,24(sp)
    b7dc:	01812783          	lw	a5,24(sp)
    b7e0:	00978793          	addi	a5,a5,9
    b7e4:	00f12c23          	sw	a5,24(sp)
    b7e8:	06e60823          	sb	a4,112(a2) # f6fff070 <stack_top+0xf6fdf070>
    b7ec:	0004c703          	lbu	a4,0(s1)
    b7f0:	f6071ce3          	bnez	a4,b768 <ee_printf+0xb8>
    b7f4:	16c12083          	lw	ra,364(sp)
    b7f8:	16812403          	lw	s0,360(sp)
    b7fc:	16412483          	lw	s1,356(sp)
    b800:	16012903          	lw	s2,352(sp)
    b804:	15c12983          	lw	s3,348(sp)
    b808:	15812a03          	lw	s4,344(sp)
    b80c:	15412a83          	lw	s5,340(sp)
    b810:	15012b03          	lw	s6,336(sp)
    b814:	14c12b83          	lw	s7,332(sp)
    b818:	14812c03          	lw	s8,328(sp)
    b81c:	14412c83          	lw	s9,324(sp)
    b820:	14012d03          	lw	s10,320(sp)
    b824:	13c12d83          	lw	s11,316(sp)
    b828:	19010113          	addi	sp,sp,400
    b82c:	00008067          	ret
    b830:	00000a93          	li	s5,0
    b834:	01000693          	li	a3,16
    b838:	00154583          	lbu	a1,1(a0)
    b83c:	00150613          	addi	a2,a0,1
    b840:	fe058713          	addi	a4,a1,-32
    b844:	0ff77713          	andi	a4,a4,255
    b848:	00e6ea63          	bltu	a3,a4,b85c <ee_printf+0x1ac>
    b84c:	00271713          	slli	a4,a4,0x2
    b850:	01770733          	add	a4,a4,s7
    b854:	00072783          	lw	a5,0(a4)
    b858:	00078067          	jr	a5
    b85c:	fd058793          	addi	a5,a1,-48
    b860:	0ff7f793          	andi	a5,a5,255
    b864:	00900713          	li	a4,9
    b868:	10f77c63          	bgeu	a4,a5,b980 <ee_printf+0x2d0>
    b86c:	02a00793          	li	a5,42
    b870:	fff00693          	li	a3,-1
    b874:	14f58063          	beq	a1,a5,b9b4 <ee_printf+0x304>
    b878:	02e00793          	li	a5,46
    b87c:	fff00713          	li	a4,-1
    b880:	0cf58a63          	beq	a1,a5,b954 <ee_printf+0x2a4>
    b884:	0df5f793          	andi	a5,a1,223
    b888:	04c00513          	li	a0,76
    b88c:	08a78c63          	beq	a5,a0,b924 <ee_printf+0x274>
    b890:	fbf58793          	addi	a5,a1,-65
    b894:	0ff7f793          	andi	a5,a5,255
    b898:	03700513          	li	a0,55
    b89c:	04f56863          	bltu	a0,a5,b8ec <ee_printf+0x23c>
    b8a0:	00279793          	slli	a5,a5,0x2
    b8a4:	013787b3          	add	a5,a5,s3
    b8a8:	0007a783          	lw	a5,0(a5)
    b8ac:	00078067          	jr	a5
    b8b0:	001aea93          	ori	s5,s5,1
    b8b4:	00060513          	mv	a0,a2
    b8b8:	f81ff06f          	j	b838 <ee_printf+0x188>
    b8bc:	010aea93          	ori	s5,s5,16
    b8c0:	00060513          	mv	a0,a2
    b8c4:	f75ff06f          	j	b838 <ee_printf+0x188>
    b8c8:	004aea93          	ori	s5,s5,4
    b8cc:	00060513          	mv	a0,a2
    b8d0:	f69ff06f          	j	b838 <ee_printf+0x188>
    b8d4:	020aea93          	ori	s5,s5,32
    b8d8:	00060513          	mv	a0,a2
    b8dc:	f5dff06f          	j	b838 <ee_printf+0x188>
    b8e0:	008aea93          	ori	s5,s5,8
    b8e4:	00060513          	mv	a0,a2
    b8e8:	f51ff06f          	j	b838 <ee_printf+0x188>
    b8ec:	00058513          	mv	a0,a1
    b8f0:	00060c13          	mv	s8,a2
    b8f4:	02500793          	li	a5,37
    b8f8:	00140713          	addi	a4,s0,1
    b8fc:	4cf504e3          	beq	a0,a5,c5c4 <ee_printf+0xf14>
    b900:	00f40023          	sb	a5,0(s0)
    b904:	000c4503          	lbu	a0,0(s8)
    b908:	4a0518e3          	bnez	a0,c5b8 <ee_printf+0xf08>
    b90c:	00070413          	mv	s0,a4
    b910:	00040023          	sb	zero,0(s0)
    b914:	03014703          	lbu	a4,48(sp)
    b918:	e40712e3          	bnez	a4,b75c <ee_printf+0xac>
    b91c:	00000513          	li	a0,0
    b920:	ed5ff06f          	j	b7f4 <ee_printf+0x144>
    b924:	00164503          	lbu	a0,1(a2)
    b928:	03700813          	li	a6,55
    b92c:	00160c13          	addi	s8,a2,1
    b930:	fbf50793          	addi	a5,a0,-65
    b934:	0ff7f793          	andi	a5,a5,255
    b938:	faf86ee3          	bltu	a6,a5,b8f4 <ee_printf+0x244>
    b93c:	00010837          	lui	a6,0x10
    b940:	00279793          	slli	a5,a5,0x2
    b944:	17c80813          	addi	a6,a6,380 # 1017c <errpat+0x14c>
    b948:	010787b3          	add	a5,a5,a6
    b94c:	0007a783          	lw	a5,0(a5)
    b950:	00078067          	jr	a5
    b954:	00164583          	lbu	a1,1(a2)
    b958:	00900713          	li	a4,9
    b95c:	00160513          	addi	a0,a2,1
    b960:	fd058793          	addi	a5,a1,-48
    b964:	0ff7f793          	andi	a5,a5,255
    b968:	7cf77863          	bgeu	a4,a5,c138 <ee_printf+0xa88>
    b96c:	02a00793          	li	a5,42
    b970:	00f580e3          	beq	a1,a5,c170 <ee_printf+0xac0>
    b974:	00050613          	mv	a2,a0
    b978:	00000713          	li	a4,0
    b97c:	f09ff06f          	j	b884 <ee_printf+0x1d4>
    b980:	00000693          	li	a3,0
    b984:	00900513          	li	a0,9
    b988:	00269713          	slli	a4,a3,0x2
    b98c:	00d706b3          	add	a3,a4,a3
    b990:	00160613          	addi	a2,a2,1
    b994:	00169693          	slli	a3,a3,0x1
    b998:	00b686b3          	add	a3,a3,a1
    b99c:	00064583          	lbu	a1,0(a2)
    b9a0:	fd068693          	addi	a3,a3,-48
    b9a4:	fd058793          	addi	a5,a1,-48
    b9a8:	0ff7f793          	andi	a5,a5,255
    b9ac:	fcf57ee3          	bgeu	a0,a5,b988 <ee_printf+0x2d8>
    b9b0:	ec9ff06f          	j	b878 <ee_printf+0x1c8>
    b9b4:	000b2683          	lw	a3,0(s6)
    b9b8:	00254583          	lbu	a1,2(a0)
    b9bc:	00250613          	addi	a2,a0,2
    b9c0:	004b0b13          	addi	s6,s6,4
    b9c4:	ea06dae3          	bgez	a3,b878 <ee_printf+0x1c8>
    b9c8:	40d006b3          	neg	a3,a3
    b9cc:	010aea93          	ori	s5,s5,16
    b9d0:	ea9ff06f          	j	b878 <ee_printf+0x1c8>
    b9d4:	040aea93          	ori	s5,s5,64
    b9d8:	06c00793          	li	a5,108
    b9dc:	000b2a03          	lw	s4,0(s6)
    b9e0:	004b0b13          	addi	s6,s6,4
    b9e4:	7af58663          	beq	a1,a5,c190 <ee_printf+0xae0>
    b9e8:	000a4d03          	lbu	s10,0(s4)
    b9ec:	2a0d1ce3          	bnez	s10,c4a4 <ee_printf+0xdf4>
    b9f0:	03000793          	li	a5,48
    b9f4:	00100c93          	li	s9,1
    b9f8:	13010713          	addi	a4,sp,304
    b9fc:	001a4d03          	lbu	s10,1(s4)
    ba00:	00f10c23          	sb	a5,24(sp)
    ba04:	01970db3          	add	s11,a4,s9
    ba08:	02e00613          	li	a2,46
    ba0c:	eecd8423          	sb	a2,-280(s11)
    ba10:	00200793          	li	a5,2
    ba14:	320d06e3          	beqz	s10,c540 <ee_printf+0xe90>
    ba18:	06300613          	li	a2,99
    ba1c:	6ba650e3          	bge	a2,s10,c8bc <ee_printf+0x120c>
    ba20:	06400593          	li	a1,100
    ba24:	000d0513          	mv	a0,s10
    ba28:	00d12423          	sw	a3,8(sp)
    ba2c:	00f12623          	sw	a5,12(sp)
    ba30:	204010ef          	jal	ra,cc34 <__divsi3>
    ba34:	00a90633          	add	a2,s2,a0
    ba38:	00c12783          	lw	a5,12(sp)
    ba3c:	00064603          	lbu	a2,0(a2)
    ba40:	13010713          	addi	a4,sp,304
    ba44:	00f707b3          	add	a5,a4,a5
    ba48:	eec78423          	sb	a2,-280(a5)
    ba4c:	06400593          	li	a1,100
    ba50:	000d0513          	mv	a0,s10
    ba54:	264010ef          	jal	ra,ccb8 <__modsi3>
    ba58:	00a00593          	li	a1,10
    ba5c:	00050d13          	mv	s10,a0
    ba60:	1d4010ef          	jal	ra,cc34 <__divsi3>
    ba64:	00a907b3          	add	a5,s2,a0
    ba68:	0007c783          	lbu	a5,0(a5)
    ba6c:	000d0513          	mv	a0,s10
    ba70:	00a00593          	li	a1,10
    ba74:	eefd8523          	sb	a5,-278(s11)
    ba78:	240010ef          	jal	ra,ccb8 <__modsi3>
    ba7c:	00812683          	lw	a3,8(sp)
    ba80:	003c8793          	addi	a5,s9,3
    ba84:	00050d13          	mv	s10,a0
    ba88:	01a90d33          	add	s10,s2,s10
    ba8c:	000d4583          	lbu	a1,0(s10)
    ba90:	13010713          	addi	a4,sp,304
    ba94:	00f70633          	add	a2,a4,a5
    ba98:	00178c93          	addi	s9,a5,1
    ba9c:	002a4d03          	lbu	s10,2(s4)
    baa0:	13010793          	addi	a5,sp,304
    baa4:	eeb60423          	sb	a1,-280(a2)
    baa8:	019787b3          	add	a5,a5,s9
    baac:	02e00613          	li	a2,46
    bab0:	eec78423          	sb	a2,-280(a5)
    bab4:	001c8d93          	addi	s11,s9,1
    bab8:	2a0d0ce3          	beqz	s10,c570 <ee_printf+0xec0>
    babc:	06300613          	li	a2,99
    bac0:	5ba658e3          	bge	a2,s10,c870 <ee_printf+0x11c0>
    bac4:	06400593          	li	a1,100
    bac8:	000d0513          	mv	a0,s10
    bacc:	00d12423          	sw	a3,8(sp)
    bad0:	00f12623          	sw	a5,12(sp)
    bad4:	160010ef          	jal	ra,cc34 <__divsi3>
    bad8:	00a90633          	add	a2,s2,a0
    badc:	00064603          	lbu	a2,0(a2)
    bae0:	13010793          	addi	a5,sp,304
    bae4:	01b78db3          	add	s11,a5,s11
    bae8:	eecd8423          	sb	a2,-280(s11)
    baec:	06400593          	li	a1,100
    baf0:	000d0513          	mv	a0,s10
    baf4:	1c4010ef          	jal	ra,ccb8 <__modsi3>
    baf8:	00a00593          	li	a1,10
    bafc:	00050d13          	mv	s10,a0
    bb00:	134010ef          	jal	ra,cc34 <__divsi3>
    bb04:	00a90633          	add	a2,s2,a0
    bb08:	00064603          	lbu	a2,0(a2)
    bb0c:	00c12783          	lw	a5,12(sp)
    bb10:	000d0513          	mv	a0,s10
    bb14:	00a00593          	li	a1,10
    bb18:	eec78523          	sb	a2,-278(a5)
    bb1c:	19c010ef          	jal	ra,ccb8 <__modsi3>
    bb20:	00812683          	lw	a3,8(sp)
    bb24:	003c8d93          	addi	s11,s9,3
    bb28:	00050d13          	mv	s10,a0
    bb2c:	01a90d33          	add	s10,s2,s10
    bb30:	000d4603          	lbu	a2,0(s10)
    bb34:	13010793          	addi	a5,sp,304
    bb38:	01b787b3          	add	a5,a5,s11
    bb3c:	001d8c93          	addi	s9,s11,1
    bb40:	eec78423          	sb	a2,-280(a5)
    bb44:	003a4d03          	lbu	s10,3(s4)
    bb48:	13010793          	addi	a5,sp,304
    bb4c:	01978a33          	add	s4,a5,s9
    bb50:	02e00793          	li	a5,46
    bb54:	eefa0423          	sb	a5,-280(s4)
    bb58:	001c8d93          	addi	s11,s9,1
    bb5c:	240d02e3          	beqz	s10,c5a0 <ee_printf+0xef0>
    bb60:	06300793          	li	a5,99
    bb64:	4da7d0e3          	bge	a5,s10,c824 <ee_printf+0x1174>
    bb68:	06400593          	li	a1,100
    bb6c:	000d0513          	mv	a0,s10
    bb70:	00d12423          	sw	a3,8(sp)
    bb74:	0c0010ef          	jal	ra,cc34 <__divsi3>
    bb78:	00a907b3          	add	a5,s2,a0
    bb7c:	0007c603          	lbu	a2,0(a5)
    bb80:	13010793          	addi	a5,sp,304
    bb84:	01b787b3          	add	a5,a5,s11
    bb88:	eec78423          	sb	a2,-280(a5)
    bb8c:	06400593          	li	a1,100
    bb90:	000d0513          	mv	a0,s10
    bb94:	124010ef          	jal	ra,ccb8 <__modsi3>
    bb98:	00a00593          	li	a1,10
    bb9c:	00050d13          	mv	s10,a0
    bba0:	094010ef          	jal	ra,cc34 <__divsi3>
    bba4:	00a907b3          	add	a5,s2,a0
    bba8:	0007c783          	lbu	a5,0(a5)
    bbac:	000d0513          	mv	a0,s10
    bbb0:	00a00593          	li	a1,10
    bbb4:	eefa0523          	sb	a5,-278(s4)
    bbb8:	100010ef          	jal	ra,ccb8 <__modsi3>
    bbbc:	00812683          	lw	a3,8(sp)
    bbc0:	003c8d93          	addi	s11,s9,3
    bbc4:	00050d13          	mv	s10,a0
    bbc8:	01a90d33          	add	s10,s2,s10
    bbcc:	000d4603          	lbu	a2,0(s10)
    bbd0:	13010793          	addi	a5,sp,304
    bbd4:	01b78733          	add	a4,a5,s11
    bbd8:	eec70423          	sb	a2,-280(a4)
    bbdc:	001d8793          	addi	a5,s11,1
    bbe0:	010afa93          	andi	s5,s5,16
    bbe4:	fff68613          	addi	a2,a3,-1
    bbe8:	0e0a9063          	bnez	s5,bcc8 <ee_printf+0x618>
    bbec:	7ad7d0e3          	bge	a5,a3,cb8c <ee_printf+0x14dc>
    bbf0:	40f68333          	sub	t1,a3,a5
    bbf4:	40800733          	neg	a4,s0
    bbf8:	fff30513          	addi	a0,t1,-1
    bbfc:	00500593          	li	a1,5
    bc00:	00377713          	andi	a4,a4,3
    bc04:	7aa5fae3          	bgeu	a1,a0,cbb8 <ee_printf+0x1508>
    bc08:	760702e3          	beqz	a4,cb6c <ee_printf+0x14bc>
    bc0c:	02000813          	li	a6,32
    bc10:	01040023          	sb	a6,0(s0)
    bc14:	00100893          	li	a7,1
    bc18:	00140513          	addi	a0,s0,1
    bc1c:	ffe68593          	addi	a1,a3,-2
    bc20:	03170263          	beq	a4,a7,bc44 <ee_printf+0x594>
    bc24:	010400a3          	sb	a6,1(s0)
    bc28:	00300893          	li	a7,3
    bc2c:	00240513          	addi	a0,s0,2
    bc30:	ffd68593          	addi	a1,a3,-3
    bc34:	01171863          	bne	a4,a7,bc44 <ee_printf+0x594>
    bc38:	00340513          	addi	a0,s0,3
    bc3c:	01040123          	sb	a6,2(s0)
    bc40:	ffc68593          	addi	a1,a3,-4
    bc44:	40e30e33          	sub	t3,t1,a4
    bc48:	ffce7893          	andi	a7,t3,-4
    bc4c:	00e40733          	add	a4,s0,a4
    bc50:	20202837          	lui	a6,0x20202
    bc54:	00e888b3          	add	a7,a7,a4
    bc58:	02080813          	addi	a6,a6,32 # 20202020 <stack_top+0x201e2020>
    bc5c:	01072023          	sw	a6,0(a4)
    bc60:	00470713          	addi	a4,a4,4
    bc64:	fee89ce3          	bne	a7,a4,bc5c <ee_printf+0x5ac>
    bc68:	ffce7813          	andi	a6,t3,-4
    bc6c:	01050533          	add	a0,a0,a6
    bc70:	41058733          	sub	a4,a1,a6
    bc74:	050e0263          	beq	t3,a6,bcb8 <ee_printf+0x608>
    bc78:	02000593          	li	a1,32
    bc7c:	00b50023          	sb	a1,0(a0)
    bc80:	fff70813          	addi	a6,a4,-1
    bc84:	02e7da63          	bge	a5,a4,bcb8 <ee_printf+0x608>
    bc88:	00b500a3          	sb	a1,1(a0)
    bc8c:	ffe70893          	addi	a7,a4,-2
    bc90:	0307d463          	bge	a5,a6,bcb8 <ee_printf+0x608>
    bc94:	00b50123          	sb	a1,2(a0)
    bc98:	ffd70813          	addi	a6,a4,-3
    bc9c:	0117de63          	bge	a5,a7,bcb8 <ee_printf+0x608>
    bca0:	00b501a3          	sb	a1,3(a0)
    bca4:	ffc70713          	addi	a4,a4,-4
    bca8:	0107d863          	bge	a5,a6,bcb8 <ee_printf+0x608>
    bcac:	00b50223          	sb	a1,4(a0)
    bcb0:	00e7d463          	bge	a5,a4,bcb8 <ee_printf+0x608>
    bcb4:	00b502a3          	sb	a1,5(a0)
    bcb8:	40d786b3          	sub	a3,a5,a3
    bcbc:	00c686b3          	add	a3,a3,a2
    bcc0:	00640433          	add	s0,s0,t1
    bcc4:	fff68613          	addi	a2,a3,-1
    bcc8:	fff78713          	addi	a4,a5,-1
    bccc:	00873713          	sltiu	a4,a4,8
    bcd0:	48071ae3          	bnez	a4,c964 <ee_printf+0x12b4>
    bcd4:	00347713          	andi	a4,s0,3
    bcd8:	480716e3          	bnez	a4,c964 <ee_printf+0x12b4>
    bcdc:	01812583          	lw	a1,24(sp)
    bce0:	0027d713          	srli	a4,a5,0x2
    bce4:	00b42023          	sw	a1,0(s0)
    bce8:	01c12583          	lw	a1,28(sp)
    bcec:	00b42223          	sw	a1,4(s0)
    bcf0:	00300593          	li	a1,3
    bcf4:	00b71663          	bne	a4,a1,bd00 <ee_printf+0x650>
    bcf8:	02012703          	lw	a4,32(sp)
    bcfc:	00e42423          	sw	a4,8(s0)
    bd00:	ffc7f713          	andi	a4,a5,-4
    bd04:	00e405b3          	add	a1,s0,a4
    bd08:	04e78063          	beq	a5,a4,bd48 <ee_printf+0x698>
    bd0c:	13010513          	addi	a0,sp,304
    bd10:	00e50533          	add	a0,a0,a4
    bd14:	ee854803          	lbu	a6,-280(a0)
    bd18:	00170513          	addi	a0,a4,1
    bd1c:	01058023          	sb	a6,0(a1)
    bd20:	02f55463          	bge	a0,a5,bd48 <ee_printf+0x698>
    bd24:	13010813          	addi	a6,sp,304
    bd28:	00a80533          	add	a0,a6,a0
    bd2c:	ee854503          	lbu	a0,-280(a0)
    bd30:	00270713          	addi	a4,a4,2
    bd34:	00a580a3          	sb	a0,1(a1)
    bd38:	00f75863          	bge	a4,a5,bd48 <ee_printf+0x698>
    bd3c:	00e80733          	add	a4,a6,a4
    bd40:	ee874703          	lbu	a4,-280(a4)
    bd44:	00e58123          	sb	a4,2(a1)
    bd48:	00f40533          	add	a0,s0,a5
    bd4c:	60d7dce3          	bge	a5,a3,cb64 <ee_printf+0x14b4>
    bd50:	40f606b3          	sub	a3,a2,a5
    bd54:	00100813          	li	a6,1
    bd58:	00f64463          	blt	a2,a5,bd60 <ee_printf+0x6b0>
    bd5c:	00168813          	addi	a6,a3,1
    bd60:	40a00733          	neg	a4,a0
    bd64:	00377713          	andi	a4,a4,3
    bd68:	5ef64ae3          	blt	a2,a5,cb5c <ee_printf+0x14ac>
    bd6c:	0066b693          	sltiu	a3,a3,6
    bd70:	5e0696e3          	bnez	a3,cb5c <ee_printf+0x14ac>
    bd74:	3e0702e3          	beqz	a4,c958 <ee_printf+0x12a8>
    bd78:	02000693          	li	a3,32
    bd7c:	00d50023          	sb	a3,0(a0)
    bd80:	00100893          	li	a7,1
    bd84:	00150593          	addi	a1,a0,1
    bd88:	fff60313          	addi	t1,a2,-1
    bd8c:	03170263          	beq	a4,a7,bdb0 <ee_printf+0x700>
    bd90:	00d500a3          	sb	a3,1(a0)
    bd94:	00300893          	li	a7,3
    bd98:	00250593          	addi	a1,a0,2
    bd9c:	ffe60313          	addi	t1,a2,-2
    bda0:	01171863          	bne	a4,a7,bdb0 <ee_printf+0x700>
    bda4:	00350593          	addi	a1,a0,3
    bda8:	00d50123          	sb	a3,2(a0)
    bdac:	ffd60313          	addi	t1,a2,-3
    bdb0:	40e808b3          	sub	a7,a6,a4
    bdb4:	00f70733          	add	a4,a4,a5
    bdb8:	00e40433          	add	s0,s0,a4
    bdbc:	ffc8f693          	andi	a3,a7,-4
    bdc0:	20202737          	lui	a4,0x20202
    bdc4:	008686b3          	add	a3,a3,s0
    bdc8:	02070713          	addi	a4,a4,32 # 20202020 <stack_top+0x201e2020>
    bdcc:	00e42023          	sw	a4,0(s0)
    bdd0:	00440413          	addi	s0,s0,4
    bdd4:	fed41ce3          	bne	s0,a3,bdcc <ee_printf+0x71c>
    bdd8:	ffc8f713          	andi	a4,a7,-4
    bddc:	00e586b3          	add	a3,a1,a4
    bde0:	40e30633          	sub	a2,t1,a4
    bde4:	04e88263          	beq	a7,a4,be28 <ee_printf+0x778>
    bde8:	02000593          	li	a1,32
    bdec:	00b68023          	sb	a1,0(a3)
    bdf0:	fff60713          	addi	a4,a2,-1
    bdf4:	02c7da63          	bge	a5,a2,be28 <ee_printf+0x778>
    bdf8:	00b680a3          	sb	a1,1(a3)
    bdfc:	ffe60313          	addi	t1,a2,-2
    be00:	02e7d463          	bge	a5,a4,be28 <ee_printf+0x778>
    be04:	00b68123          	sb	a1,2(a3)
    be08:	ffd60893          	addi	a7,a2,-3
    be0c:	0067de63          	bge	a5,t1,be28 <ee_printf+0x778>
    be10:	00b681a3          	sb	a1,3(a3)
    be14:	ffc60713          	addi	a4,a2,-4
    be18:	0117d863          	bge	a5,a7,be28 <ee_printf+0x778>
    be1c:	00b68223          	sb	a1,4(a3)
    be20:	00e7d463          	bge	a5,a4,be28 <ee_printf+0x778>
    be24:	00b682a3          	sb	a1,5(a3)
    be28:	01050433          	add	s0,a0,a6
    be2c:	001c4783          	lbu	a5,1(s8)
    be30:	001c0513          	addi	a0,s8,1
    be34:	900790e3          	bnez	a5,b734 <ee_printf+0x84>
    be38:	919ff06f          	j	b750 <ee_printf+0xa0>
    be3c:	00060c13          	mv	s8,a2
    be40:	010afa93          	andi	s5,s5,16
    be44:	fff68713          	addi	a4,a3,-1
    be48:	080a86e3          	beqz	s5,c6d4 <ee_printf+0x1024>
    be4c:	000b2783          	lw	a5,0(s6)
    be50:	00140593          	addi	a1,s0,1
    be54:	004b0b13          	addi	s6,s6,4
    be58:	00f40023          	sb	a5,0(s0)
    be5c:	001c0513          	addi	a0,s8,1
    be60:	5ae052e3          	blez	a4,cc04 <ee_printf+0x1554>
    be64:	40b007b3          	neg	a5,a1
    be68:	ffe68813          	addi	a6,a3,-2
    be6c:	00500613          	li	a2,5
    be70:	00070893          	mv	a7,a4
    be74:	0037f793          	andi	a5,a5,3
    be78:	510656e3          	bge	a2,a6,cb84 <ee_printf+0x14d4>
    be7c:	460782e3          	beqz	a5,cae0 <ee_printf+0x1430>
    be80:	02000313          	li	t1,32
    be84:	006400a3          	sb	t1,1(s0)
    be88:	00100e13          	li	t3,1
    be8c:	00240613          	addi	a2,s0,2
    be90:	03c78263          	beq	a5,t3,beb4 <ee_printf+0x804>
    be94:	00640123          	sb	t1,2(s0)
    be98:	00300e13          	li	t3,3
    be9c:	00340613          	addi	a2,s0,3
    bea0:	ffd68813          	addi	a6,a3,-3
    bea4:	01c79863          	bne	a5,t3,beb4 <ee_printf+0x804>
    bea8:	00440613          	addi	a2,s0,4
    beac:	006401a3          	sb	t1,3(s0)
    beb0:	ffc68813          	addi	a6,a3,-4
    beb4:	40f70333          	sub	t1,a4,a5
    beb8:	00178793          	addi	a5,a5,1
    bebc:	00f40433          	add	s0,s0,a5
    bec0:	ffc37713          	andi	a4,t1,-4
    bec4:	202027b7          	lui	a5,0x20202
    bec8:	00870733          	add	a4,a4,s0
    becc:	02078793          	addi	a5,a5,32 # 20202020 <stack_top+0x201e2020>
    bed0:	00f42023          	sw	a5,0(s0)
    bed4:	00440413          	addi	s0,s0,4
    bed8:	fee41ce3          	bne	s0,a4,bed0 <ee_printf+0x820>
    bedc:	ffc37693          	andi	a3,t1,-4
    bee0:	00d607b3          	add	a5,a2,a3
    bee4:	40d80733          	sub	a4,a6,a3
    bee8:	04d30463          	beq	t1,a3,bf30 <ee_printf+0x880>
    beec:	02000693          	li	a3,32
    bef0:	00d78023          	sb	a3,0(a5)
    bef4:	fff70613          	addi	a2,a4,-1
    bef8:	02c05c63          	blez	a2,bf30 <ee_printf+0x880>
    befc:	00d780a3          	sb	a3,1(a5)
    bf00:	ffe70613          	addi	a2,a4,-2
    bf04:	02060663          	beqz	a2,bf30 <ee_printf+0x880>
    bf08:	00d78123          	sb	a3,2(a5)
    bf0c:	ffd70613          	addi	a2,a4,-3
    bf10:	02060063          	beqz	a2,bf30 <ee_printf+0x880>
    bf14:	00d781a3          	sb	a3,3(a5)
    bf18:	ffc70613          	addi	a2,a4,-4
    bf1c:	00060a63          	beqz	a2,bf30 <ee_printf+0x880>
    bf20:	00d78223          	sb	a3,4(a5)
    bf24:	00500613          	li	a2,5
    bf28:	00c70463          	beq	a4,a2,bf30 <ee_printf+0x880>
    bf2c:	00d782a3          	sb	a3,5(a5)
    bf30:	001c4783          	lbu	a5,1(s8)
    bf34:	01158433          	add	s0,a1,a7
    bf38:	fe079e63          	bnez	a5,b734 <ee_printf+0x84>
    bf3c:	815ff06f          	j	b750 <ee_printf+0xa0>
    bf40:	00060c13          	mv	s8,a2
    bf44:	000b2583          	lw	a1,0(s6)
    bf48:	004b0b13          	addi	s6,s6,4
    bf4c:	68058e63          	beqz	a1,c5e8 <ee_printf+0xf38>
    bf50:	0005c783          	lbu	a5,0(a1)
    bf54:	34078ce3          	beqz	a5,caac <ee_printf+0x13fc>
    bf58:	34070ae3          	beqz	a4,caac <ee_printf+0x13fc>
    bf5c:	00058793          	mv	a5,a1
    bf60:	00c0006f          	j	bf6c <ee_printf+0x8bc>
    bf64:	40e78633          	sub	a2,a5,a4
    bf68:	00b60863          	beq	a2,a1,bf78 <ee_printf+0x8c8>
    bf6c:	0017c603          	lbu	a2,1(a5)
    bf70:	00178793          	addi	a5,a5,1
    bf74:	fe0618e3          	bnez	a2,bf64 <ee_printf+0x8b4>
    bf78:	010afa93          	andi	s5,s5,16
    bf7c:	40b787b3          	sub	a5,a5,a1
    bf80:	660a8a63          	beqz	s5,c5f4 <ee_printf+0xf44>
    bf84:	08f05a63          	blez	a5,c018 <ee_printf+0x968>
    bf88:	00158613          	addi	a2,a1,1
    bf8c:	0085e733          	or	a4,a1,s0
    bf90:	40c40533          	sub	a0,s0,a2
    bf94:	00377713          	andi	a4,a4,3
    bf98:	00353513          	sltiu	a0,a0,3
    bf9c:	00173713          	seqz	a4,a4
    bfa0:	00154513          	xori	a0,a0,1
    bfa4:	00a77733          	and	a4,a4,a0
    bfa8:	340702e3          	beqz	a4,caec <ee_printf+0x143c>
    bfac:	fff78713          	addi	a4,a5,-1
    bfb0:	00973713          	sltiu	a4,a4,9
    bfb4:	32071ce3          	bnez	a4,caec <ee_printf+0x143c>
    bfb8:	ffc7f813          	andi	a6,a5,-4
    bfbc:	00058713          	mv	a4,a1
    bfc0:	00040613          	mv	a2,s0
    bfc4:	00b80833          	add	a6,a6,a1
    bfc8:	00072503          	lw	a0,0(a4)
    bfcc:	00470713          	addi	a4,a4,4
    bfd0:	00460613          	addi	a2,a2,4
    bfd4:	fea62e23          	sw	a0,-4(a2)
    bfd8:	fee818e3          	bne	a6,a4,bfc8 <ee_printf+0x918>
    bfdc:	ffc7f713          	andi	a4,a5,-4
    bfe0:	00e585b3          	add	a1,a1,a4
    bfe4:	00e40633          	add	a2,s0,a4
    bfe8:	02e78663          	beq	a5,a4,c014 <ee_printf+0x964>
    bfec:	0005c803          	lbu	a6,0(a1)
    bff0:	00170513          	addi	a0,a4,1
    bff4:	01060023          	sb	a6,0(a2)
    bff8:	00f55e63          	bge	a0,a5,c014 <ee_printf+0x964>
    bffc:	0015c503          	lbu	a0,1(a1)
    c000:	00270713          	addi	a4,a4,2
    c004:	00a600a3          	sb	a0,1(a2)
    c008:	00f75663          	bge	a4,a5,c014 <ee_printf+0x964>
    c00c:	0025c703          	lbu	a4,2(a1)
    c010:	00e60123          	sb	a4,2(a2)
    c014:	00f40433          	add	s0,s0,a5
    c018:	fff68813          	addi	a6,a3,-1
    c01c:	001c0513          	addi	a0,s8,1
    c020:	78d7dc63          	bge	a5,a3,c7b8 <ee_printf+0x1108>
    c024:	40f688b3          	sub	a7,a3,a5
    c028:	40800733          	neg	a4,s0
    c02c:	fff88593          	addi	a1,a7,-1
    c030:	00500613          	li	a2,5
    c034:	00377713          	andi	a4,a4,3
    c038:	36b676e3          	bgeu	a2,a1,cba4 <ee_printf+0x14f4>
    c03c:	00040593          	mv	a1,s0
    c040:	02070e63          	beqz	a4,c07c <ee_printf+0x9cc>
    c044:	02000613          	li	a2,32
    c048:	00c40023          	sb	a2,0(s0)
    c04c:	00100313          	li	t1,1
    c050:	00140593          	addi	a1,s0,1
    c054:	ffe68813          	addi	a6,a3,-2
    c058:	02670263          	beq	a4,t1,c07c <ee_printf+0x9cc>
    c05c:	00c400a3          	sb	a2,1(s0)
    c060:	00300313          	li	t1,3
    c064:	00240593          	addi	a1,s0,2
    c068:	ffd68813          	addi	a6,a3,-3
    c06c:	00671863          	bne	a4,t1,c07c <ee_printf+0x9cc>
    c070:	00340593          	addi	a1,s0,3
    c074:	00c40123          	sb	a2,2(s0)
    c078:	ffc68813          	addi	a6,a3,-4
    c07c:	40e88333          	sub	t1,a7,a4
    c080:	ffc37613          	andi	a2,t1,-4
    c084:	00e40733          	add	a4,s0,a4
    c088:	202026b7          	lui	a3,0x20202
    c08c:	00e60633          	add	a2,a2,a4
    c090:	02068693          	addi	a3,a3,32 # 20202020 <stack_top+0x201e2020>
    c094:	00d72023          	sw	a3,0(a4)
    c098:	00470713          	addi	a4,a4,4
    c09c:	fec71ce3          	bne	a4,a2,c094 <ee_printf+0x9e4>
    c0a0:	ffc37713          	andi	a4,t1,-4
    c0a4:	00e586b3          	add	a3,a1,a4
    c0a8:	40e80833          	sub	a6,a6,a4
    c0ac:	04e30263          	beq	t1,a4,c0f0 <ee_printf+0xa40>
    c0b0:	02000613          	li	a2,32
    c0b4:	00c68023          	sb	a2,0(a3)
    c0b8:	fff80593          	addi	a1,a6,-1
    c0bc:	0307da63          	bge	a5,a6,c0f0 <ee_printf+0xa40>
    c0c0:	00c680a3          	sb	a2,1(a3)
    c0c4:	ffe80713          	addi	a4,a6,-2
    c0c8:	02b7d463          	bge	a5,a1,c0f0 <ee_printf+0xa40>
    c0cc:	00c68123          	sb	a2,2(a3)
    c0d0:	ffd80593          	addi	a1,a6,-3
    c0d4:	00e7de63          	bge	a5,a4,c0f0 <ee_printf+0xa40>
    c0d8:	00c681a3          	sb	a2,3(a3)
    c0dc:	ffc80713          	addi	a4,a6,-4
    c0e0:	00b7d863          	bge	a5,a1,c0f0 <ee_printf+0xa40>
    c0e4:	00c68223          	sb	a2,4(a3)
    c0e8:	00e7d463          	bge	a5,a4,c0f0 <ee_printf+0xa40>
    c0ec:	00c682a3          	sb	a2,5(a3)
    c0f0:	001c4783          	lbu	a5,1(s8)
    c0f4:	01140433          	add	s0,s0,a7
    c0f8:	e2079e63          	bnez	a5,b734 <ee_printf+0x84>
    c0fc:	e54ff06f          	j	b750 <ee_printf+0xa0>
    c100:	00060c13          	mv	s8,a2
    c104:	fff00793          	li	a5,-1
    c108:	4cf68a63          	beq	a3,a5,c5dc <ee_printf+0xf2c>
    c10c:	000b2583          	lw	a1,0(s6)
    c110:	00040513          	mv	a0,s0
    c114:	000a8793          	mv	a5,s5
    c118:	01000613          	li	a2,16
    c11c:	eddfe0ef          	jal	ra,aff8 <number>
    c120:	001c4783          	lbu	a5,1(s8)
    c124:	00050413          	mv	s0,a0
    c128:	004b0b13          	addi	s6,s6,4
    c12c:	001c0513          	addi	a0,s8,1
    c130:	e0079263          	bnez	a5,b734 <ee_printf+0x84>
    c134:	e1cff06f          	j	b750 <ee_printf+0xa0>
    c138:	00000713          	li	a4,0
    c13c:	00900613          	li	a2,9
    c140:	00271793          	slli	a5,a4,0x2
    c144:	00e78733          	add	a4,a5,a4
    c148:	00150513          	addi	a0,a0,1
    c14c:	00171713          	slli	a4,a4,0x1
    c150:	00b70733          	add	a4,a4,a1
    c154:	00054583          	lbu	a1,0(a0)
    c158:	fd070713          	addi	a4,a4,-48
    c15c:	fd058793          	addi	a5,a1,-48
    c160:	0ff7f793          	andi	a5,a5,255
    c164:	fcf67ee3          	bgeu	a2,a5,c140 <ee_printf+0xa90>
    c168:	00050613          	mv	a2,a0
    c16c:	f18ff06f          	j	b884 <ee_printf+0x1d4>
    c170:	000b2703          	lw	a4,0(s6)
    c174:	00264583          	lbu	a1,2(a2)
    c178:	004b0b13          	addi	s6,s6,4
    c17c:	fff74793          	not	a5,a4
    c180:	41f7d793          	srai	a5,a5,0x1f
    c184:	00f77733          	and	a4,a4,a5
    c188:	00260613          	addi	a2,a2,2
    c18c:	ef8ff06f          	j	b884 <ee_printf+0x1d4>
    c190:	040af593          	andi	a1,s5,64
    c194:	00090793          	mv	a5,s2
    c198:	00058663          	beqz	a1,c1a4 <ee_printf+0xaf4>
    c19c:	000107b7          	lui	a5,0x10
    c1a0:	73078793          	addi	a5,a5,1840 # 10730 <errpat+0x700>
    c1a4:	000a4503          	lbu	a0,0(s4)
    c1a8:	001a4e03          	lbu	t3,1(s4)
    c1ac:	004a4803          	lbu	a6,4(s4)
    c1b0:	002a4303          	lbu	t1,2(s4)
    c1b4:	003a4883          	lbu	a7,3(s4)
    c1b8:	005a4583          	lbu	a1,5(s4)
    c1bc:	00485393          	srli	t2,a6,0x4
    c1c0:	00455293          	srli	t0,a0,0x4
    c1c4:	00f57713          	andi	a4,a0,15
    c1c8:	004e5f93          	srli	t6,t3,0x4
    c1cc:	00fe7f13          	andi	t5,t3,15
    c1d0:	00435e93          	srli	t4,t1,0x4
    c1d4:	0048de13          	srli	t3,a7,0x4
    c1d8:	00f87513          	andi	a0,a6,15
    c1dc:	00f8f893          	andi	a7,a7,15
    c1e0:	00f37313          	andi	t1,t1,15
    c1e4:	01178833          	add	a6,a5,a7
    c1e8:	005782b3          	add	t0,a5,t0
    c1ec:	00e78733          	add	a4,a5,a4
    c1f0:	01f78fb3          	add	t6,a5,t6
    c1f4:	01e78f33          	add	t5,a5,t5
    c1f8:	01d78eb3          	add	t4,a5,t4
    c1fc:	00678333          	add	t1,a5,t1
    c200:	007788b3          	add	a7,a5,t2
    c204:	00a78533          	add	a0,a5,a0
    c208:	01c78e33          	add	t3,a5,t3
    c20c:	0045dc93          	srli	s9,a1,0x4
    c210:	0002cc03          	lbu	s8,0(t0)
    c214:	00074383          	lbu	t2,0(a4)
    c218:	000fc283          	lbu	t0,0(t6)
    c21c:	01978733          	add	a4,a5,s9
    c220:	000f4f83          	lbu	t6,0(t5)
    c224:	000e4e03          	lbu	t3,0(t3)
    c228:	000ecf03          	lbu	t5,0(t4) # ffff8000 <stack_top+0xfffd8000>
    c22c:	0008c883          	lbu	a7,0(a7)
    c230:	00034e83          	lbu	t4,0(t1)
    c234:	00084303          	lbu	t1,0(a6)
    c238:	00054803          	lbu	a6,0(a0)
    c23c:	00074503          	lbu	a0,0(a4)
    c240:	00f5f593          	andi	a1,a1,15
    c244:	03a00713          	li	a4,58
    c248:	00e10d23          	sb	a4,26(sp)
    c24c:	00e10ea3          	sb	a4,29(sp)
    c250:	02e10023          	sb	a4,32(sp)
    c254:	02e101a3          	sb	a4,35(sp)
    c258:	02e10323          	sb	a4,38(sp)
    c25c:	00b787b3          	add	a5,a5,a1
    c260:	01810c23          	sb	s8,24(sp)
    c264:	00710ca3          	sb	t2,25(sp)
    c268:	00510da3          	sb	t0,27(sp)
    c26c:	01f10e23          	sb	t6,28(sp)
    c270:	01e10f23          	sb	t5,30(sp)
    c274:	01d10fa3          	sb	t4,31(sp)
    c278:	03c100a3          	sb	t3,33(sp)
    c27c:	02610123          	sb	t1,34(sp)
    c280:	03110223          	sb	a7,36(sp)
    c284:	030102a3          	sb	a6,37(sp)
    c288:	010afa93          	andi	s5,s5,16
    c28c:	02a103a3          	sb	a0,39(sp)
    c290:	fff68593          	addi	a1,a3,-1
    c294:	0007c703          	lbu	a4,0(a5)
    c298:	0e0a9463          	bnez	s5,c380 <ee_printf+0xcd0>
    c29c:	01100793          	li	a5,17
    c2a0:	12d7dae3          	bge	a5,a3,cbd4 <ee_printf+0x1524>
    c2a4:	408007b3          	neg	a5,s0
    c2a8:	fee68a93          	addi	s5,a3,-18
    c2ac:	00500d13          	li	s10,5
    c2b0:	fef68c93          	addi	s9,a3,-17
    c2b4:	0037f793          	andi	a5,a5,3
    c2b8:	115d7ae3          	bgeu	s10,s5,cbcc <ee_printf+0x151c>
    c2bc:	00040a93          	mv	s5,s0
    c2c0:	02078e63          	beqz	a5,c2fc <ee_printf+0xc4c>
    c2c4:	02000d13          	li	s10,32
    c2c8:	01a40023          	sb	s10,0(s0)
    c2cc:	00100d93          	li	s11,1
    c2d0:	00140a93          	addi	s5,s0,1
    c2d4:	ffe68593          	addi	a1,a3,-2
    c2d8:	03b78263          	beq	a5,s11,c2fc <ee_printf+0xc4c>
    c2dc:	01a400a3          	sb	s10,1(s0)
    c2e0:	00300d93          	li	s11,3
    c2e4:	00240a93          	addi	s5,s0,2
    c2e8:	ffd68593          	addi	a1,a3,-3
    c2ec:	01b79863          	bne	a5,s11,c2fc <ee_printf+0xc4c>
    c2f0:	00340a93          	addi	s5,s0,3
    c2f4:	01a40123          	sb	s10,2(s0)
    c2f8:	ffc68593          	addi	a1,a3,-4
    c2fc:	40fc86b3          	sub	a3,s9,a5
    c300:	ffc6fd93          	andi	s11,a3,-4
    c304:	00f407b3          	add	a5,s0,a5
    c308:	20202d37          	lui	s10,0x20202
    c30c:	00fd8db3          	add	s11,s11,a5
    c310:	020d0d13          	addi	s10,s10,32 # 20202020 <stack_top+0x201e2020>
    c314:	01a7a023          	sw	s10,0(a5)
    c318:	00478793          	addi	a5,a5,4
    c31c:	fefd9ce3          	bne	s11,a5,c314 <ee_printf+0xc64>
    c320:	ffc6fd13          	andi	s10,a3,-4
    c324:	01aa87b3          	add	a5,s5,s10
    c328:	41a585b3          	sub	a1,a1,s10
    c32c:	04dd0463          	beq	s10,a3,c374 <ee_printf+0xcc4>
    c330:	02000693          	li	a3,32
    c334:	00d78023          	sb	a3,0(a5)
    c338:	01100a93          	li	s5,17
    c33c:	02badc63          	bge	s5,a1,c374 <ee_printf+0xcc4>
    c340:	00d780a3          	sb	a3,1(a5)
    c344:	01200a93          	li	s5,18
    c348:	02bad663          	bge	s5,a1,c374 <ee_printf+0xcc4>
    c34c:	00d78123          	sb	a3,2(a5)
    c350:	01300a93          	li	s5,19
    c354:	02bad063          	bge	s5,a1,c374 <ee_printf+0xcc4>
    c358:	00d781a3          	sb	a3,3(a5)
    c35c:	01400a93          	li	s5,20
    c360:	00bada63          	bge	s5,a1,c374 <ee_printf+0xcc4>
    c364:	00d78223          	sb	a3,4(a5)
    c368:	01500a93          	li	s5,21
    c36c:	00bad463          	bge	s5,a1,c374 <ee_printf+0xcc4>
    c370:	00d782a3          	sb	a3,5(a5)
    c374:	01940433          	add	s0,s0,s9
    c378:	00f00593          	li	a1,15
    c37c:	01000693          	li	a3,16
    c380:	00347793          	andi	a5,s0,3
    c384:	78079663          	bnez	a5,cb10 <ee_printf+0x1460>
    c388:	01c12783          	lw	a5,28(sp)
    c38c:	00e40823          	sb	a4,16(s0)
    c390:	00f42223          	sw	a5,4(s0)
    c394:	02012783          	lw	a5,32(sp)
    c398:	00f42423          	sw	a5,8(s0)
    c39c:	01812783          	lw	a5,24(sp)
    c3a0:	00f42023          	sw	a5,0(s0)
    c3a4:	02412783          	lw	a5,36(sp)
    c3a8:	00f42623          	sw	a5,12(s0)
    c3ac:	01100793          	li	a5,17
    c3b0:	01140513          	addi	a0,s0,17
    c3b4:	7ed7d463          	bge	a5,a3,cb9c <ee_printf+0x14ec>
    c3b8:	01000793          	li	a5,16
    c3bc:	00100313          	li	t1,1
    c3c0:	00b7d463          	bge	a5,a1,c3c8 <ee_printf+0xd18>
    c3c4:	ff058313          	addi	t1,a1,-16
    c3c8:	40a007b3          	neg	a5,a0
    c3cc:	01600713          	li	a4,22
    c3d0:	0037f793          	andi	a5,a5,3
    c3d4:	7eb75863          	bge	a4,a1,cbc4 <ee_printf+0x1514>
    c3d8:	7a078063          	beqz	a5,cb78 <ee_printf+0x14c8>
    c3dc:	02000693          	li	a3,32
    c3e0:	00d408a3          	sb	a3,17(s0)
    c3e4:	00100893          	li	a7,1
    c3e8:	01240713          	addi	a4,s0,18
    c3ec:	fff58813          	addi	a6,a1,-1
    c3f0:	03178263          	beq	a5,a7,c414 <ee_printf+0xd64>
    c3f4:	00d40923          	sb	a3,18(s0)
    c3f8:	00300893          	li	a7,3
    c3fc:	01340713          	addi	a4,s0,19
    c400:	ffe58813          	addi	a6,a1,-2
    c404:	01179863          	bne	a5,a7,c414 <ee_printf+0xd64>
    c408:	01440713          	addi	a4,s0,20
    c40c:	00d409a3          	sb	a3,19(s0)
    c410:	ffd58813          	addi	a6,a1,-3
    c414:	40f308b3          	sub	a7,t1,a5
    c418:	01178793          	addi	a5,a5,17
    c41c:	00f40433          	add	s0,s0,a5
    c420:	ffc8f693          	andi	a3,a7,-4
    c424:	202027b7          	lui	a5,0x20202
    c428:	008686b3          	add	a3,a3,s0
    c42c:	02078793          	addi	a5,a5,32 # 20202020 <stack_top+0x201e2020>
    c430:	00f42023          	sw	a5,0(s0)
    c434:	00440413          	addi	s0,s0,4
    c438:	fed41ce3          	bne	s0,a3,c430 <ee_printf+0xd80>
    c43c:	ffc8f693          	andi	a3,a7,-4
    c440:	00d707b3          	add	a5,a4,a3
    c444:	40d805b3          	sub	a1,a6,a3
    c448:	05168463          	beq	a3,a7,c490 <ee_printf+0xde0>
    c44c:	02000713          	li	a4,32
    c450:	00e78023          	sb	a4,0(a5)
    c454:	01100693          	li	a3,17
    c458:	02b6dc63          	bge	a3,a1,c490 <ee_printf+0xde0>
    c45c:	00e780a3          	sb	a4,1(a5)
    c460:	01200693          	li	a3,18
    c464:	02b6d663          	bge	a3,a1,c490 <ee_printf+0xde0>
    c468:	00e78123          	sb	a4,2(a5)
    c46c:	01300693          	li	a3,19
    c470:	02b6d063          	bge	a3,a1,c490 <ee_printf+0xde0>
    c474:	00e781a3          	sb	a4,3(a5)
    c478:	01400693          	li	a3,20
    c47c:	00b6da63          	bge	a3,a1,c490 <ee_printf+0xde0>
    c480:	00e78223          	sb	a4,4(a5)
    c484:	01500693          	li	a3,21
    c488:	00b6d463          	bge	a3,a1,c490 <ee_printf+0xde0>
    c48c:	00e782a3          	sb	a4,5(a5)
    c490:	00650433          	add	s0,a0,t1
    c494:	00264783          	lbu	a5,2(a2)
    c498:	00260513          	addi	a0,a2,2
    c49c:	a8079c63          	bnez	a5,b734 <ee_printf+0x84>
    c4a0:	ab0ff06f          	j	b750 <ee_printf+0xa0>
    c4a4:	06300793          	li	a5,99
    c4a8:	47a7d463          	bge	a5,s10,c910 <ee_printf+0x1260>
    c4ac:	06400593          	li	a1,100
    c4b0:	000d0513          	mv	a0,s10
    c4b4:	00d12423          	sw	a3,8(sp)
    c4b8:	001000ef          	jal	ra,ccb8 <__modsi3>
    c4bc:	00050c93          	mv	s9,a0
    c4c0:	06400593          	li	a1,100
    c4c4:	000d0513          	mv	a0,s10
    c4c8:	76c000ef          	jal	ra,cc34 <__divsi3>
    c4cc:	00a907b3          	add	a5,s2,a0
    c4d0:	00a00593          	li	a1,10
    c4d4:	000c8513          	mv	a0,s9
    c4d8:	0007cd03          	lbu	s10,0(a5)
    c4dc:	758000ef          	jal	ra,cc34 <__divsi3>
    c4e0:	00a907b3          	add	a5,s2,a0
    c4e4:	0007c783          	lbu	a5,0(a5)
    c4e8:	000c8513          	mv	a0,s9
    c4ec:	00a00593          	li	a1,10
    c4f0:	00879793          	slli	a5,a5,0x8
    c4f4:	00fd6d33          	or	s10,s10,a5
    c4f8:	01a11c23          	sh	s10,24(sp)
    c4fc:	7bc000ef          	jal	ra,ccb8 <__modsi3>
    c500:	00812683          	lw	a3,8(sp)
    c504:	00050d13          	mv	s10,a0
    c508:	00400793          	li	a5,4
    c50c:	00300c93          	li	s9,3
    c510:	00200613          	li	a2,2
    c514:	01a90d33          	add	s10,s2,s10
    c518:	000d4583          	lbu	a1,0(s10)
    c51c:	13010713          	addi	a4,sp,304
    c520:	00c70633          	add	a2,a4,a2
    c524:	001a4d03          	lbu	s10,1(s4)
    c528:	13010713          	addi	a4,sp,304
    c52c:	eeb60423          	sb	a1,-280(a2)
    c530:	01970db3          	add	s11,a4,s9
    c534:	02e00613          	li	a2,46
    c538:	eecd8423          	sb	a2,-280(s11)
    c53c:	cc0d1e63          	bnez	s10,ba18 <ee_printf+0x368>
    c540:	13010713          	addi	a4,sp,304
    c544:	00f707b3          	add	a5,a4,a5
    c548:	03000613          	li	a2,48
    c54c:	eec78423          	sb	a2,-280(a5)
    c550:	002c8c93          	addi	s9,s9,2
    c554:	13010793          	addi	a5,sp,304
    c558:	002a4d03          	lbu	s10,2(s4)
    c55c:	019787b3          	add	a5,a5,s9
    c560:	02e00613          	li	a2,46
    c564:	eec78423          	sb	a2,-280(a5)
    c568:	001c8d93          	addi	s11,s9,1
    c56c:	d40d1863          	bnez	s10,babc <ee_printf+0x40c>
    c570:	13010793          	addi	a5,sp,304
    c574:	01b78db3          	add	s11,a5,s11
    c578:	03000793          	li	a5,48
    c57c:	eefd8423          	sb	a5,-280(s11)
    c580:	002c8c93          	addi	s9,s9,2
    c584:	13010793          	addi	a5,sp,304
    c588:	003a4d03          	lbu	s10,3(s4)
    c58c:	01978a33          	add	s4,a5,s9
    c590:	02e00793          	li	a5,46
    c594:	eefa0423          	sb	a5,-280(s4)
    c598:	001c8d93          	addi	s11,s9,1
    c59c:	dc0d1263          	bnez	s10,bb60 <ee_printf+0x4b0>
    c5a0:	13010793          	addi	a5,sp,304
    c5a4:	01b78db3          	add	s11,a5,s11
    c5a8:	03000713          	li	a4,48
    c5ac:	002c8793          	addi	a5,s9,2
    c5b0:	eeed8423          	sb	a4,-280(s11)
    c5b4:	e2cff06f          	j	bbe0 <ee_printf+0x530>
    c5b8:	00240793          	addi	a5,s0,2
    c5bc:	00070413          	mv	s0,a4
    c5c0:	00078713          	mv	a4,a5
    c5c4:	00a40023          	sb	a0,0(s0)
    c5c8:	001c4783          	lbu	a5,1(s8)
    c5cc:	001c0513          	addi	a0,s8,1
    c5d0:	00070413          	mv	s0,a4
    c5d4:	96079063          	bnez	a5,b734 <ee_printf+0x84>
    c5d8:	978ff06f          	j	b750 <ee_printf+0xa0>
    c5dc:	001aea93          	ori	s5,s5,1
    c5e0:	00800693          	li	a3,8
    c5e4:	b29ff06f          	j	c10c <ee_printf+0xa5c>
    c5e8:	000107b7          	lui	a5,0x10
    c5ec:	75878593          	addi	a1,a5,1880 # 10758 <errpat+0x728>
    c5f0:	969ff06f          	j	bf58 <ee_printf+0x8a8>
    c5f4:	fff68313          	addi	t1,a3,-1
    c5f8:	4ed7d063          	bge	a5,a3,cad8 <ee_printf+0x1428>
    c5fc:	40f68e33          	sub	t3,a3,a5
    c600:	40800733          	neg	a4,s0
    c604:	fffe0513          	addi	a0,t3,-1
    c608:	00500613          	li	a2,5
    c60c:	00377713          	andi	a4,a4,3
    c610:	5ca67e63          	bgeu	a2,a0,cbec <ee_printf+0x153c>
    c614:	58070c63          	beqz	a4,cbac <ee_printf+0x14fc>
    c618:	02000813          	li	a6,32
    c61c:	01040023          	sb	a6,0(s0)
    c620:	00100893          	li	a7,1
    c624:	00140513          	addi	a0,s0,1
    c628:	ffe68613          	addi	a2,a3,-2
    c62c:	03170263          	beq	a4,a7,c650 <ee_printf+0xfa0>
    c630:	010400a3          	sb	a6,1(s0)
    c634:	00300893          	li	a7,3
    c638:	00240513          	addi	a0,s0,2
    c63c:	ffd68613          	addi	a2,a3,-3
    c640:	01171863          	bne	a4,a7,c650 <ee_printf+0xfa0>
    c644:	00340513          	addi	a0,s0,3
    c648:	01040123          	sb	a6,2(s0)
    c64c:	ffc68613          	addi	a2,a3,-4
    c650:	40ee0eb3          	sub	t4,t3,a4
    c654:	ffcef893          	andi	a7,t4,-4
    c658:	00e40733          	add	a4,s0,a4
    c65c:	20202837          	lui	a6,0x20202
    c660:	00e888b3          	add	a7,a7,a4
    c664:	02080813          	addi	a6,a6,32 # 20202020 <stack_top+0x201e2020>
    c668:	01072023          	sw	a6,0(a4)
    c66c:	00470713          	addi	a4,a4,4
    c670:	fee89ce3          	bne	a7,a4,c668 <ee_printf+0xfb8>
    c674:	ffcef813          	andi	a6,t4,-4
    c678:	01050533          	add	a0,a0,a6
    c67c:	41060733          	sub	a4,a2,a6
    c680:	050e8263          	beq	t4,a6,c6c4 <ee_printf+0x1014>
    c684:	02000613          	li	a2,32
    c688:	00c50023          	sb	a2,0(a0)
    c68c:	fff70813          	addi	a6,a4,-1
    c690:	02e7da63          	bge	a5,a4,c6c4 <ee_printf+0x1014>
    c694:	00c500a3          	sb	a2,1(a0)
    c698:	ffe70893          	addi	a7,a4,-2
    c69c:	0307d463          	bge	a5,a6,c6c4 <ee_printf+0x1014>
    c6a0:	00c50123          	sb	a2,2(a0)
    c6a4:	ffd70813          	addi	a6,a4,-3
    c6a8:	0117de63          	bge	a5,a7,c6c4 <ee_printf+0x1014>
    c6ac:	00c501a3          	sb	a2,3(a0)
    c6b0:	ffc70713          	addi	a4,a4,-4
    c6b4:	0107d863          	bge	a5,a6,c6c4 <ee_printf+0x1014>
    c6b8:	00c50223          	sb	a2,4(a0)
    c6bc:	00e7d463          	bge	a5,a4,c6c4 <ee_printf+0x1014>
    c6c0:	00c502a3          	sb	a2,5(a0)
    c6c4:	40d786b3          	sub	a3,a5,a3
    c6c8:	01c40433          	add	s0,s0,t3
    c6cc:	006686b3          	add	a3,a3,t1
    c6d0:	8b5ff06f          	j	bf84 <ee_printf+0x8d4>
    c6d4:	3ee05463          	blez	a4,cabc <ee_printf+0x140c>
    c6d8:	408007b3          	neg	a5,s0
    c6dc:	ffe68593          	addi	a1,a3,-2
    c6e0:	00500613          	li	a2,5
    c6e4:	00070813          	mv	a6,a4
    c6e8:	0037f793          	andi	a5,a5,3
    c6ec:	4eb67c63          	bgeu	a2,a1,cbe4 <ee_printf+0x1534>
    c6f0:	50078463          	beqz	a5,cbf8 <ee_printf+0x1548>
    c6f4:	02000513          	li	a0,32
    c6f8:	00a40023          	sb	a0,0(s0)
    c6fc:	00100893          	li	a7,1
    c700:	00140613          	addi	a2,s0,1
    c704:	03178263          	beq	a5,a7,c728 <ee_printf+0x1078>
    c708:	00a400a3          	sb	a0,1(s0)
    c70c:	00300893          	li	a7,3
    c710:	00240613          	addi	a2,s0,2
    c714:	ffd68593          	addi	a1,a3,-3
    c718:	01179863          	bne	a5,a7,c728 <ee_printf+0x1078>
    c71c:	00340613          	addi	a2,s0,3
    c720:	00a40123          	sb	a0,2(s0)
    c724:	ffc68593          	addi	a1,a3,-4
    c728:	40f708b3          	sub	a7,a4,a5
    c72c:	ffc8f513          	andi	a0,a7,-4
    c730:	00f407b3          	add	a5,s0,a5
    c734:	20202737          	lui	a4,0x20202
    c738:	00f50533          	add	a0,a0,a5
    c73c:	02070713          	addi	a4,a4,32 # 20202020 <stack_top+0x201e2020>
    c740:	00e7a023          	sw	a4,0(a5)
    c744:	00478793          	addi	a5,a5,4
    c748:	fef51ce3          	bne	a0,a5,c740 <ee_printf+0x1090>
    c74c:	ffc8f513          	andi	a0,a7,-4
    c750:	00a607b3          	add	a5,a2,a0
    c754:	40a58733          	sub	a4,a1,a0
    c758:	04a88463          	beq	a7,a0,c7a0 <ee_printf+0x10f0>
    c75c:	02000613          	li	a2,32
    c760:	00c78023          	sb	a2,0(a5)
    c764:	fff70593          	addi	a1,a4,-1
    c768:	02b05c63          	blez	a1,c7a0 <ee_printf+0x10f0>
    c76c:	00c780a3          	sb	a2,1(a5)
    c770:	ffe70593          	addi	a1,a4,-2
    c774:	02058663          	beqz	a1,c7a0 <ee_printf+0x10f0>
    c778:	00c78123          	sb	a2,2(a5)
    c77c:	ffd70593          	addi	a1,a4,-3
    c780:	02058063          	beqz	a1,c7a0 <ee_printf+0x10f0>
    c784:	00c781a3          	sb	a2,3(a5)
    c788:	ffc70593          	addi	a1,a4,-4
    c78c:	00058a63          	beqz	a1,c7a0 <ee_printf+0x10f0>
    c790:	00c78223          	sb	a2,4(a5)
    c794:	00500593          	li	a1,5
    c798:	00b70463          	beq	a4,a1,c7a0 <ee_printf+0x10f0>
    c79c:	00c782a3          	sb	a2,5(a5)
    c7a0:	000b2703          	lw	a4,0(s6)
    c7a4:	010407b3          	add	a5,s0,a6
    c7a8:	004b0b13          	addi	s6,s6,4
    c7ac:	00d40433          	add	s0,s0,a3
    c7b0:	00e78023          	sb	a4,0(a5)
    c7b4:	001c0513          	addi	a0,s8,1
    c7b8:	001c4783          	lbu	a5,1(s8)
    c7bc:	00078463          	beqz	a5,c7c4 <ee_printf+0x1114>
    c7c0:	f75fe06f          	j	b734 <ee_printf+0x84>
    c7c4:	f8dfe06f          	j	b750 <ee_printf+0xa0>
    c7c8:	002aea93          	ori	s5,s5,2
    c7cc:	00a00613          	li	a2,10
    c7d0:	004b0793          	addi	a5,s6,4
    c7d4:	000b2583          	lw	a1,0(s6)
    c7d8:	00040513          	mv	a0,s0
    c7dc:	00078b13          	mv	s6,a5
    c7e0:	000a8793          	mv	a5,s5
    c7e4:	815fe0ef          	jal	ra,aff8 <number>
    c7e8:	001c4783          	lbu	a5,1(s8)
    c7ec:	00050413          	mv	s0,a0
    c7f0:	001c0513          	addi	a0,s8,1
    c7f4:	00078463          	beqz	a5,c7fc <ee_printf+0x114c>
    c7f8:	f3dfe06f          	j	b734 <ee_printf+0x84>
    c7fc:	f55fe06f          	j	b750 <ee_printf+0xa0>
    c800:	00800613          	li	a2,8
    c804:	fcdff06f          	j	c7d0 <ee_printf+0x1120>
    c808:	040aea93          	ori	s5,s5,64
    c80c:	01000613          	li	a2,16
    c810:	fc1ff06f          	j	c7d0 <ee_printf+0x1120>
    c814:	000b2a03          	lw	s4,0(s6)
    c818:	00060c13          	mv	s8,a2
    c81c:	004b0b13          	addi	s6,s6,4
    c820:	9c8ff06f          	j	b9e8 <ee_printf+0x338>
    c824:	00900793          	li	a5,9
    c828:	bba7d063          	bge	a5,s10,bbc8 <ee_printf+0x518>
    c82c:	00a00593          	li	a1,10
    c830:	000d0513          	mv	a0,s10
    c834:	00d12423          	sw	a3,8(sp)
    c838:	3fc000ef          	jal	ra,cc34 <__divsi3>
    c83c:	00a907b3          	add	a5,s2,a0
    c840:	0007c703          	lbu	a4,0(a5)
    c844:	13010793          	addi	a5,sp,304
    c848:	01b787b3          	add	a5,a5,s11
    c84c:	000d0513          	mv	a0,s10
    c850:	00a00593          	li	a1,10
    c854:	eee78423          	sb	a4,-280(a5)
    c858:	460000ef          	jal	ra,ccb8 <__modsi3>
    c85c:	002c8c93          	addi	s9,s9,2
    c860:	00812683          	lw	a3,8(sp)
    c864:	00050d13          	mv	s10,a0
    c868:	000c8d93          	mv	s11,s9
    c86c:	b5cff06f          	j	bbc8 <ee_printf+0x518>
    c870:	00900793          	li	a5,9
    c874:	aba7dc63          	bge	a5,s10,bb2c <ee_printf+0x47c>
    c878:	00a00593          	li	a1,10
    c87c:	000d0513          	mv	a0,s10
    c880:	00d12423          	sw	a3,8(sp)
    c884:	3b0000ef          	jal	ra,cc34 <__divsi3>
    c888:	00a907b3          	add	a5,s2,a0
    c88c:	0007c783          	lbu	a5,0(a5)
    c890:	13010713          	addi	a4,sp,304
    c894:	01b70db3          	add	s11,a4,s11
    c898:	000d0513          	mv	a0,s10
    c89c:	eefd8423          	sb	a5,-280(s11)
    c8a0:	00a00593          	li	a1,10
    c8a4:	414000ef          	jal	ra,ccb8 <__modsi3>
    c8a8:	002c8c93          	addi	s9,s9,2
    c8ac:	00812683          	lw	a3,8(sp)
    c8b0:	00050d13          	mv	s10,a0
    c8b4:	000c8d93          	mv	s11,s9
    c8b8:	a74ff06f          	j	bb2c <ee_printf+0x47c>
    c8bc:	00900613          	li	a2,9
    c8c0:	9da65463          	bge	a2,s10,ba88 <ee_printf+0x3d8>
    c8c4:	00a00593          	li	a1,10
    c8c8:	000d0513          	mv	a0,s10
    c8cc:	00d12423          	sw	a3,8(sp)
    c8d0:	00f12623          	sw	a5,12(sp)
    c8d4:	360000ef          	jal	ra,cc34 <__divsi3>
    c8d8:	00a90633          	add	a2,s2,a0
    c8dc:	00c12783          	lw	a5,12(sp)
    c8e0:	00064603          	lbu	a2,0(a2)
    c8e4:	13010713          	addi	a4,sp,304
    c8e8:	00f707b3          	add	a5,a4,a5
    c8ec:	000d0513          	mv	a0,s10
    c8f0:	eec78423          	sb	a2,-280(a5)
    c8f4:	00a00593          	li	a1,10
    c8f8:	3c0000ef          	jal	ra,ccb8 <__modsi3>
    c8fc:	002c8c93          	addi	s9,s9,2
    c900:	00812683          	lw	a3,8(sp)
    c904:	00050d13          	mv	s10,a0
    c908:	000c8793          	mv	a5,s9
    c90c:	97cff06f          	j	ba88 <ee_printf+0x3d8>
    c910:	00900793          	li	a5,9
    c914:	11a7d663          	bge	a5,s10,ca20 <ee_printf+0x1370>
    c918:	00a00593          	li	a1,10
    c91c:	000d0513          	mv	a0,s10
    c920:	00d12423          	sw	a3,8(sp)
    c924:	310000ef          	jal	ra,cc34 <__divsi3>
    c928:	00a907b3          	add	a5,s2,a0
    c92c:	0007c783          	lbu	a5,0(a5)
    c930:	000d0513          	mv	a0,s10
    c934:	00a00593          	li	a1,10
    c938:	00f10c23          	sb	a5,24(sp)
    c93c:	37c000ef          	jal	ra,ccb8 <__modsi3>
    c940:	00812683          	lw	a3,8(sp)
    c944:	00050d13          	mv	s10,a0
    c948:	00300793          	li	a5,3
    c94c:	00200c93          	li	s9,2
    c950:	00100613          	li	a2,1
    c954:	bc1ff06f          	j	c514 <ee_printf+0xe64>
    c958:	00060313          	mv	t1,a2
    c95c:	00050593          	mv	a1,a0
    c960:	c50ff06f          	j	bdb0 <ee_printf+0x700>
    c964:	01814703          	lbu	a4,24(sp)
    c968:	00e40023          	sb	a4,0(s0)
    c96c:	01914703          	lbu	a4,25(sp)
    c970:	00e400a3          	sb	a4,1(s0)
    c974:	01a14703          	lbu	a4,26(sp)
    c978:	00e40123          	sb	a4,2(s0)
    c97c:	01b14703          	lbu	a4,27(sp)
    c980:	00e401a3          	sb	a4,3(s0)
    c984:	01c14703          	lbu	a4,28(sp)
    c988:	00e40223          	sb	a4,4(s0)
    c98c:	01d14703          	lbu	a4,29(sp)
    c990:	00e402a3          	sb	a4,5(s0)
    c994:	01e14703          	lbu	a4,30(sp)
    c998:	00e40323          	sb	a4,6(s0)
    c99c:	00700713          	li	a4,7
    c9a0:	bae78463          	beq	a5,a4,bd48 <ee_printf+0x698>
    c9a4:	01f14583          	lbu	a1,31(sp)
    c9a8:	00800713          	li	a4,8
    c9ac:	00b403a3          	sb	a1,7(s0)
    c9b0:	b8e78c63          	beq	a5,a4,bd48 <ee_printf+0x698>
    c9b4:	02014583          	lbu	a1,32(sp)
    c9b8:	00900713          	li	a4,9
    c9bc:	00b40423          	sb	a1,8(s0)
    c9c0:	b8e78463          	beq	a5,a4,bd48 <ee_printf+0x698>
    c9c4:	02114583          	lbu	a1,33(sp)
    c9c8:	00a00713          	li	a4,10
    c9cc:	00b404a3          	sb	a1,9(s0)
    c9d0:	b6e78c63          	beq	a5,a4,bd48 <ee_printf+0x698>
    c9d4:	02214583          	lbu	a1,34(sp)
    c9d8:	00b00713          	li	a4,11
    c9dc:	00b40523          	sb	a1,10(s0)
    c9e0:	b6e78463          	beq	a5,a4,bd48 <ee_printf+0x698>
    c9e4:	02314583          	lbu	a1,35(sp)
    c9e8:	00c00713          	li	a4,12
    c9ec:	00b405a3          	sb	a1,11(s0)
    c9f0:	b4e78c63          	beq	a5,a4,bd48 <ee_printf+0x698>
    c9f4:	02414583          	lbu	a1,36(sp)
    c9f8:	00d00713          	li	a4,13
    c9fc:	00b40623          	sb	a1,12(s0)
    ca00:	b4e78463          	beq	a5,a4,bd48 <ee_printf+0x698>
    ca04:	02514583          	lbu	a1,37(sp)
    ca08:	00f00713          	li	a4,15
    ca0c:	00b406a3          	sb	a1,13(s0)
    ca10:	b2e79c63          	bne	a5,a4,bd48 <ee_printf+0x698>
    ca14:	02614703          	lbu	a4,38(sp)
    ca18:	00e40723          	sb	a4,14(s0)
    ca1c:	b2cff06f          	j	bd48 <ee_printf+0x698>
    ca20:	00200793          	li	a5,2
    ca24:	00100c93          	li	s9,1
    ca28:	00000613          	li	a2,0
    ca2c:	ae9ff06f          	j	c514 <ee_printf+0xe64>
    ca30:	00060c13          	mv	s8,a2
    ca34:	002aea93          	ori	s5,s5,2
    ca38:	004b0793          	addi	a5,s6,4
    ca3c:	00a00613          	li	a2,10
    ca40:	d95ff06f          	j	c7d4 <ee_printf+0x1124>
    ca44:	01000613          	li	a2,16
    ca48:	d89ff06f          	j	c7d0 <ee_printf+0x1120>
    ca4c:	00a00613          	li	a2,10
    ca50:	d81ff06f          	j	c7d0 <ee_printf+0x1120>
    ca54:	00060c13          	mv	s8,a2
    ca58:	004b0793          	addi	a5,s6,4
    ca5c:	00800613          	li	a2,8
    ca60:	d75ff06f          	j	c7d4 <ee_printf+0x1124>
    ca64:	00060c13          	mv	s8,a2
    ca68:	004b0793          	addi	a5,s6,4
    ca6c:	01000613          	li	a2,16
    ca70:	d65ff06f          	j	c7d4 <ee_printf+0x1124>
    ca74:	00060c13          	mv	s8,a2
    ca78:	004b0793          	addi	a5,s6,4
    ca7c:	00a00613          	li	a2,10
    ca80:	d55ff06f          	j	c7d4 <ee_printf+0x1124>
    ca84:	00060c13          	mv	s8,a2
    ca88:	040aea93          	ori	s5,s5,64
    ca8c:	004b0793          	addi	a5,s6,4
    ca90:	01000613          	li	a2,16
    ca94:	d41ff06f          	j	c7d4 <ee_printf+0x1124>
    ca98:	000b2a03          	lw	s4,0(s6)
    ca9c:	040aea93          	ori	s5,s5,64
    caa0:	004b0b13          	addi	s6,s6,4
    caa4:	00060c13          	mv	s8,a2
    caa8:	f41fe06f          	j	b9e8 <ee_printf+0x338>
    caac:	010af793          	andi	a5,s5,16
    cab0:	b40782e3          	beqz	a5,c5f4 <ee_printf+0xf44>
    cab4:	00000793          	li	a5,0
    cab8:	d60ff06f          	j	c018 <ee_printf+0x968>
    cabc:	000b2783          	lw	a5,0(s6)
    cac0:	001c0513          	addi	a0,s8,1
    cac4:	004b0b13          	addi	s6,s6,4
    cac8:	00f40023          	sb	a5,0(s0)
    cacc:	001c4783          	lbu	a5,1(s8)
    cad0:	00140413          	addi	s0,s0,1
    cad4:	ce9ff06f          	j	c7bc <ee_printf+0x110c>
    cad8:	00030693          	mv	a3,t1
    cadc:	ca8ff06f          	j	bf84 <ee_printf+0x8d4>
    cae0:	00070813          	mv	a6,a4
    cae4:	00058613          	mv	a2,a1
    cae8:	bccff06f          	j	beb4 <ee_printf+0x804>
    caec:	00f585b3          	add	a1,a1,a5
    caf0:	00040713          	mv	a4,s0
    caf4:	0080006f          	j	cafc <ee_printf+0x144c>
    caf8:	00160613          	addi	a2,a2,1
    cafc:	fff64503          	lbu	a0,-1(a2)
    cb00:	00170713          	addi	a4,a4,1
    cb04:	fea70fa3          	sb	a0,-1(a4)
    cb08:	feb618e3          	bne	a2,a1,caf8 <ee_printf+0x1448>
    cb0c:	d08ff06f          	j	c014 <ee_printf+0x964>
    cb10:	03a00793          	li	a5,58
    cb14:	01840023          	sb	s8,0(s0)
    cb18:	007400a3          	sb	t2,1(s0)
    cb1c:	00f40123          	sb	a5,2(s0)
    cb20:	005401a3          	sb	t0,3(s0)
    cb24:	01f40223          	sb	t6,4(s0)
    cb28:	00f402a3          	sb	a5,5(s0)
    cb2c:	01e40323          	sb	t5,6(s0)
    cb30:	01d403a3          	sb	t4,7(s0)
    cb34:	00f40423          	sb	a5,8(s0)
    cb38:	01c404a3          	sb	t3,9(s0)
    cb3c:	00640523          	sb	t1,10(s0)
    cb40:	00f405a3          	sb	a5,11(s0)
    cb44:	01140623          	sb	a7,12(s0)
    cb48:	010406a3          	sb	a6,13(s0)
    cb4c:	00f40723          	sb	a5,14(s0)
    cb50:	00a407a3          	sb	a0,15(s0)
    cb54:	00e40823          	sb	a4,16(s0)
    cb58:	855ff06f          	j	c3ac <ee_printf+0xcfc>
    cb5c:	00050693          	mv	a3,a0
    cb60:	a88ff06f          	j	bde8 <ee_printf+0x738>
    cb64:	00050413          	mv	s0,a0
    cb68:	ac4ff06f          	j	be2c <ee_printf+0x77c>
    cb6c:	00060593          	mv	a1,a2
    cb70:	00040513          	mv	a0,s0
    cb74:	8d0ff06f          	j	bc44 <ee_printf+0x594>
    cb78:	00058813          	mv	a6,a1
    cb7c:	00050713          	mv	a4,a0
    cb80:	895ff06f          	j	c414 <ee_printf+0xd64>
    cb84:	00058793          	mv	a5,a1
    cb88:	b64ff06f          	j	beec <ee_printf+0x83c>
    cb8c:	ffe68713          	addi	a4,a3,-2
    cb90:	00060693          	mv	a3,a2
    cb94:	00070613          	mv	a2,a4
    cb98:	930ff06f          	j	bcc8 <ee_printf+0x618>
    cb9c:	00050413          	mv	s0,a0
    cba0:	8f5ff06f          	j	c494 <ee_printf+0xde4>
    cba4:	00040693          	mv	a3,s0
    cba8:	d08ff06f          	j	c0b0 <ee_printf+0xa00>
    cbac:	00030613          	mv	a2,t1
    cbb0:	00040513          	mv	a0,s0
    cbb4:	a9dff06f          	j	c650 <ee_printf+0xfa0>
    cbb8:	00060713          	mv	a4,a2
    cbbc:	00040513          	mv	a0,s0
    cbc0:	8b8ff06f          	j	bc78 <ee_printf+0x5c8>
    cbc4:	00050793          	mv	a5,a0
    cbc8:	885ff06f          	j	c44c <ee_printf+0xd9c>
    cbcc:	00040793          	mv	a5,s0
    cbd0:	f60ff06f          	j	c330 <ee_printf+0xc80>
    cbd4:	ffe68793          	addi	a5,a3,-2
    cbd8:	00058693          	mv	a3,a1
    cbdc:	00078593          	mv	a1,a5
    cbe0:	fa0ff06f          	j	c380 <ee_printf+0xcd0>
    cbe4:	00040793          	mv	a5,s0
    cbe8:	b75ff06f          	j	c75c <ee_printf+0x10ac>
    cbec:	00030713          	mv	a4,t1
    cbf0:	00040513          	mv	a0,s0
    cbf4:	a91ff06f          	j	c684 <ee_printf+0xfd4>
    cbf8:	00070593          	mv	a1,a4
    cbfc:	00040613          	mv	a2,s0
    cc00:	b29ff06f          	j	c728 <ee_printf+0x1078>
    cc04:	001c4783          	lbu	a5,1(s8)
    cc08:	00058413          	mv	s0,a1
    cc0c:	bb1ff06f          	j	c7bc <ee_printf+0x110c>

0000cc10 <__mulsi3>:
    cc10:	00050613          	mv	a2,a0
    cc14:	00000513          	li	a0,0
    cc18:	0015f693          	andi	a3,a1,1
    cc1c:	00068463          	beqz	a3,cc24 <__mulsi3+0x14>
    cc20:	00c50533          	add	a0,a0,a2
    cc24:	0015d593          	srli	a1,a1,0x1
    cc28:	00161613          	slli	a2,a2,0x1
    cc2c:	fe0596e3          	bnez	a1,cc18 <__mulsi3+0x8>
    cc30:	00008067          	ret

0000cc34 <__divsi3>:
    cc34:	06054063          	bltz	a0,cc94 <__umodsi3+0x10>
    cc38:	0605c663          	bltz	a1,cca4 <__umodsi3+0x20>

0000cc3c <__udivsi3>:
    cc3c:	00058613          	mv	a2,a1
    cc40:	00050593          	mv	a1,a0
    cc44:	fff00513          	li	a0,-1
    cc48:	02060c63          	beqz	a2,cc80 <__udivsi3+0x44>
    cc4c:	00100693          	li	a3,1
    cc50:	00b67a63          	bgeu	a2,a1,cc64 <__udivsi3+0x28>
    cc54:	00c05863          	blez	a2,cc64 <__udivsi3+0x28>
    cc58:	00161613          	slli	a2,a2,0x1
    cc5c:	00169693          	slli	a3,a3,0x1
    cc60:	feb66ae3          	bltu	a2,a1,cc54 <__udivsi3+0x18>
    cc64:	00000513          	li	a0,0
    cc68:	00c5e663          	bltu	a1,a2,cc74 <__udivsi3+0x38>
    cc6c:	40c585b3          	sub	a1,a1,a2
    cc70:	00d56533          	or	a0,a0,a3
    cc74:	0016d693          	srli	a3,a3,0x1
    cc78:	00165613          	srli	a2,a2,0x1
    cc7c:	fe0696e3          	bnez	a3,cc68 <__udivsi3+0x2c>
    cc80:	00008067          	ret

0000cc84 <__umodsi3>:
    cc84:	00008293          	mv	t0,ra
    cc88:	fb5ff0ef          	jal	ra,cc3c <__udivsi3>
    cc8c:	00058513          	mv	a0,a1
    cc90:	00028067          	jr	t0
    cc94:	40a00533          	neg	a0,a0
    cc98:	00b04863          	bgtz	a1,cca8 <__umodsi3+0x24>
    cc9c:	40b005b3          	neg	a1,a1
    cca0:	f9dff06f          	j	cc3c <__udivsi3>
    cca4:	40b005b3          	neg	a1,a1
    cca8:	00008293          	mv	t0,ra
    ccac:	f91ff0ef          	jal	ra,cc3c <__udivsi3>
    ccb0:	40a00533          	neg	a0,a0
    ccb4:	00028067          	jr	t0

0000ccb8 <__modsi3>:
    ccb8:	00008293          	mv	t0,ra
    ccbc:	0005ca63          	bltz	a1,ccd0 <__modsi3+0x18>
    ccc0:	00054c63          	bltz	a0,ccd8 <__modsi3+0x20>
    ccc4:	f79ff0ef          	jal	ra,cc3c <__udivsi3>
    ccc8:	00058513          	mv	a0,a1
    cccc:	00028067          	jr	t0
    ccd0:	40b005b3          	neg	a1,a1
    ccd4:	fe0558e3          	bgez	a0,ccc4 <__modsi3+0xc>
    ccd8:	40a00533          	neg	a0,a0
    ccdc:	f61ff0ef          	jal	ra,cc3c <__udivsi3>
    cce0:	40b00533          	neg	a0,a1
    cce4:	00028067          	jr	t0

Disassembly of section .text.startup:

0000cce8 <main>:
    cce8:	81010113          	addi	sp,sp,-2032
    ccec:	7e112623          	sw	ra,2028(sp)
    ccf0:	7e812423          	sw	s0,2024(sp)
    ccf4:	7e912223          	sw	s1,2020(sp)
    ccf8:	7f212023          	sw	s2,2016(sp)
    ccfc:	7d312e23          	sw	s3,2012(sp)
    cd00:	7d412c23          	sw	s4,2008(sp)
    cd04:	7d512a23          	sw	s5,2004(sp)
    cd08:	7d612823          	sw	s6,2000(sp)
    cd0c:	7d712623          	sw	s7,1996(sp)
    cd10:	7d812423          	sw	s8,1992(sp)
    cd14:	7d912223          	sw	s9,1988(sp)
    cd18:	7da12023          	sw	s10,1984(sp)
    cd1c:	7bb12e23          	sw	s11,1980(sp)
    cd20:	00001737          	lui	a4,0x1
    cd24:	f8010113          	addi	sp,sp,-128
    cd28:	01010513          	addi	a0,sp,16
    cd2c:	fffff7b7          	lui	a5,0xfffff
    cd30:	82070693          	addi	a3,a4,-2016 # 820 <_start-0x77e0>
    cd34:	00a686b3          	add	a3,a3,a0
    cd38:	7e878613          	addi	a2,a5,2024 # fffff7e8 <stack_top+0xfffdf7e8>
    cd3c:	00c68633          	add	a2,a3,a2
    cd40:	82070693          	addi	a3,a4,-2016
    cd44:	82070713          	addi	a4,a4,-2016
    cd48:	00a686b3          	add	a3,a3,a0
    cd4c:	00a70733          	add	a4,a4,a0
    cd50:	7e478593          	addi	a1,a5,2020
    cd54:	00b685b3          	add	a1,a3,a1
    cd58:	00f707b3          	add	a5,a4,a5
    cd5c:	05e10513          	addi	a0,sp,94
    cd60:	00f12623          	sw	a5,12(sp)
    cd64:	7e07a223          	sw	zero,2020(a5)
    cd68:	a7cfe0ef          	jal	ra,afe4 <portable_init>
    cd6c:	00100513          	li	a0,1
    cd70:	de0fd0ef          	jal	ra,a350 <get_seed_32>
    cd74:	00c12703          	lw	a4,12(sp)
    cd78:	00050793          	mv	a5,a0
    cd7c:	00200513          	li	a0,2
    cd80:	7ef71623          	sh	a5,2028(a4)
    cd84:	dccfd0ef          	jal	ra,a350 <get_seed_32>
    cd88:	00c12703          	lw	a4,12(sp)
    cd8c:	00050793          	mv	a5,a0
    cd90:	00300513          	li	a0,3
    cd94:	7ef71723          	sh	a5,2030(a4)
    cd98:	db8fd0ef          	jal	ra,a350 <get_seed_32>
    cd9c:	00c12703          	lw	a4,12(sp)
    cda0:	00050793          	mv	a5,a0
    cda4:	00400513          	li	a0,4
    cda8:	7ef71823          	sh	a5,2032(a4)
    cdac:	da4fd0ef          	jal	ra,a350 <get_seed_32>
    cdb0:	00050793          	mv	a5,a0
    cdb4:	00500513          	li	a0,5
    cdb8:	02f12c23          	sw	a5,56(sp)
    cdbc:	d94fd0ef          	jal	ra,a350 <get_seed_32>
    cdc0:	7e050663          	beqz	a0,d5ac <main+0x8c4>
    cdc4:	02a12e23          	sw	a0,60(sp)
    cdc8:	00001737          	lui	a4,0x1
    cdcc:	82070713          	addi	a4,a4,-2016 # 820 <_start-0x77e0>
    cdd0:	01010693          	addi	a3,sp,16
    cdd4:	fffff7b7          	lui	a5,0xfffff
    cdd8:	00d70733          	add	a4,a4,a3
    cddc:	00f707b3          	add	a5,a4,a5
    cde0:	00f12623          	sw	a5,12(sp)
    cde4:	7ec7a783          	lw	a5,2028(a5) # fffff7ec <stack_top+0xfffdf7ec>
    cde8:	78079a63          	bnez	a5,d57c <main+0x894>
    cdec:	00c12783          	lw	a5,12(sp)
    cdf0:	7f079783          	lh	a5,2032(a5)
    cdf4:	04078ce3          	beqz	a5,d64c <main+0x964>
    cdf8:	03c12403          	lw	s0,60(sp)
    cdfc:	00001737          	lui	a4,0x1
    ce00:	82070713          	addi	a4,a4,-2016 # 820 <_start-0x77e0>
    ce04:	01010693          	addi	a3,sp,16
    ce08:	00d70733          	add	a4,a4,a3
    ce0c:	fffff7b7          	lui	a5,0xfffff
    ce10:	00247493          	andi	s1,s0,2
    ce14:	00f707b3          	add	a5,a4,a5
    ce18:	00147a93          	andi	s5,s0,1
    ce1c:	00903933          	snez	s2,s1
    ce20:	06010713          	addi	a4,sp,96
    ce24:	012a8933          	add	s2,s5,s2
    ce28:	00f12623          	sw	a5,12(sp)
    ce2c:	7ee7aa23          	sw	a4,2036(a5) # fffff7f4 <stack_top+0xfffdf7f4>
    ce30:	04011e23          	sh	zero,92(sp)
    ce34:	00447a13          	andi	s4,s0,4
    ce38:	000a8b13          	mv	s6,s5
    ce3c:	00190593          	addi	a1,s2,1
    ce40:	000a1463          	bnez	s4,ce48 <main+0x160>
    ce44:	00090593          	mv	a1,s2
    ce48:	7d000513          	li	a0,2000
    ce4c:	df1ff0ef          	jal	ra,cc3c <__udivsi3>
    ce50:	02a12a23          	sw	a0,52(sp)
    ce54:	00050993          	mv	s3,a0
    ce58:	fffff7b7          	lui	a5,0xfffff
    ce5c:	740b1e63          	bnez	s6,d5b8 <main+0x8d0>
    ce60:	7a049063          	bnez	s1,d600 <main+0x918>
    ce64:	760a1e63          	bnez	s4,d5e0 <main+0x8f8>
    ce68:	300b1663          	bnez	s6,d174 <main+0x48c>
    ce6c:	34049263          	bnez	s1,d1b0 <main+0x4c8>
    ce70:	00447413          	andi	s0,s0,4
    ce74:	02040863          	beqz	s0,cea4 <main+0x1bc>
    ce78:	00001737          	lui	a4,0x1
    ce7c:	82070713          	addi	a4,a4,-2016 # 820 <_start-0x77e0>
    ce80:	01010693          	addi	a3,sp,16
    ce84:	fffff7b7          	lui	a5,0xfffff
    ce88:	00d70733          	add	a4,a4,a3
    ce8c:	00f707b3          	add	a5,a4,a5
    ce90:	03012603          	lw	a2,48(sp)
    ce94:	7ec79583          	lh	a1,2028(a5) # fffff7ec <stack_top+0xfffdf7ec>
    ce98:	03412503          	lw	a0,52(sp)
    ce9c:	00f12623          	sw	a5,12(sp)
    cea0:	c1dfc0ef          	jal	ra,9abc <core_init_state>
    cea4:	03812783          	lw	a5,56(sp)
    cea8:	0c079063          	bnez	a5,cf68 <main+0x280>
    ceac:	00100793          	li	a5,1
    ceb0:	02f12c23          	sw	a5,56(sp)
    ceb4:	000017b7          	lui	a5,0x1
    ceb8:	fffff4b7          	lui	s1,0xfffff
    cebc:	82078793          	addi	a5,a5,-2016 # 820 <_start-0x77e0>
    cec0:	01010713          	addi	a4,sp,16
    cec4:	7ec48493          	addi	s1,s1,2028 # fffff7ec <stack_top+0xfffdf7ec>
    cec8:	00e787b3          	add	a5,a5,a4
    cecc:	009784b3          	add	s1,a5,s1
    ced0:	03812703          	lw	a4,56(sp)
    ced4:	00000413          	li	s0,0
    ced8:	00271793          	slli	a5,a4,0x2
    cedc:	00e787b3          	add	a5,a5,a4
    cee0:	00179793          	slli	a5,a5,0x1
    cee4:	02f12c23          	sw	a5,56(sp)
    cee8:	8c4fe0ef          	jal	ra,afac <start_time>
    ceec:	03812903          	lw	s2,56(sp)
    cef0:	04012a23          	sw	zero,84(sp)
    cef4:	04012c23          	sw	zero,88(sp)
    cef8:	04090263          	beqz	s2,cf3c <main+0x254>
    cefc:	00100593          	li	a1,1
    cf00:	00048513          	mv	a0,s1
    cf04:	d2cfb0ef          	jal	ra,8430 <core_bench_list>
    cf08:	05415583          	lhu	a1,84(sp)
    cf0c:	de4fd0ef          	jal	ra,a4f0 <crcu16>
    cf10:	00050793          	mv	a5,a0
    cf14:	fff00593          	li	a1,-1
    cf18:	00048513          	mv	a0,s1
    cf1c:	04f11a23          	sh	a5,84(sp)
    cf20:	d10fb0ef          	jal	ra,8430 <core_bench_list>
    cf24:	05415583          	lhu	a1,84(sp)
    cf28:	dc8fd0ef          	jal	ra,a4f0 <crcu16>
    cf2c:	04a11a23          	sh	a0,84(sp)
    cf30:	2c040463          	beqz	s0,d1f8 <main+0x510>
    cf34:	00140413          	addi	s0,s0,1
    cf38:	fc8912e3          	bne	s2,s0,cefc <main+0x214>
    cf3c:	87cfe0ef          	jal	ra,afb8 <stop_time>
    cf40:	888fe0ef          	jal	ra,afc8 <get_time>
    cf44:	89cfe0ef          	jal	ra,afe0 <time_in_secs>
    cf48:	f80504e3          	beqz	a0,ced0 <main+0x1e8>
    cf4c:	00050593          	mv	a1,a0
    cf50:	00a00513          	li	a0,10
    cf54:	ce9ff0ef          	jal	ra,cc3c <__udivsi3>
    cf58:	03812583          	lw	a1,56(sp)
    cf5c:	00150513          	addi	a0,a0,1
    cf60:	cb1ff0ef          	jal	ra,cc10 <__mulsi3>
    cf64:	02a12c23          	sw	a0,56(sp)
    cf68:	844fe0ef          	jal	ra,afac <start_time>
    cf6c:	000014b7          	lui	s1,0x1
    cf70:	01010713          	addi	a4,sp,16
    cf74:	fffff437          	lui	s0,0xfffff
    cf78:	82048793          	addi	a5,s1,-2016 # 820 <_start-0x77e0>
    cf7c:	00e787b3          	add	a5,a5,a4
    cf80:	7ec40513          	addi	a0,s0,2028 # fffff7ec <stack_top+0xfffdf7ec>
    cf84:	00a78533          	add	a0,a5,a0
    cf88:	e5dfb0ef          	jal	ra,8de4 <iterate>
    cf8c:	82cfe0ef          	jal	ra,afb8 <stop_time>
    cf90:	838fe0ef          	jal	ra,afc8 <get_time>
    cf94:	01010713          	addi	a4,sp,16
    cf98:	82048793          	addi	a5,s1,-2016
    cf9c:	00e787b3          	add	a5,a5,a4
    cfa0:	008787b3          	add	a5,a5,s0
    cfa4:	00050a13          	mv	s4,a0
    cfa8:	7ec79503          	lh	a0,2028(a5)
    cfac:	00000593          	li	a1,0
    cfb0:	00f12623          	sw	a5,12(sp)
    cfb4:	cddfd0ef          	jal	ra,ac90 <crc16>
    cfb8:	00c12783          	lw	a5,12(sp)
    cfbc:	00050593          	mv	a1,a0
    cfc0:	7ee79503          	lh	a0,2030(a5)
    cfc4:	ccdfd0ef          	jal	ra,ac90 <crc16>
    cfc8:	00c12783          	lw	a5,12(sp)
    cfcc:	00050593          	mv	a1,a0
    cfd0:	7f079503          	lh	a0,2032(a5)
    cfd4:	cbdfd0ef          	jal	ra,ac90 <crc16>
    cfd8:	00050593          	mv	a1,a0
    cfdc:	03411503          	lh	a0,52(sp)
    cfe0:	cb1fd0ef          	jal	ra,ac90 <crc16>
    cfe4:	000087b7          	lui	a5,0x8
    cfe8:	b0578793          	addi	a5,a5,-1275 # 7b05 <_start-0x4fb>
    cfec:	00050913          	mv	s2,a0
    cff0:	6cf50463          	beq	a0,a5,d6b8 <main+0x9d0>
    cff4:	24a7e263          	bltu	a5,a0,d238 <main+0x550>
    cff8:	000027b7          	lui	a5,0x2
    cffc:	8f278793          	addi	a5,a5,-1806 # 18f2 <_start-0x670e>
    d000:	6ef50263          	beq	a0,a5,d6e4 <main+0x9fc>
    d004:	00005b37          	lui	s6,0x5
    d008:	eafb0793          	addi	a5,s6,-337 # 4eaf <_start-0x3151>
    d00c:	72f51c63          	bne	a0,a5,d744 <main+0xa5c>
    d010:	00010537          	lui	a0,0x10
    d014:	2b850513          	addi	a0,a0,696 # 102b8 <errpat+0x288>
    d018:	608b0b13          	addi	s6,s6,1544
    d01c:	0000e9b7          	lui	s3,0xe
    d020:	00007ab7          	lui	s5,0x7
    d024:	e8cfe0ef          	jal	ra,b6b0 <ee_printf>
    d028:	5a498993          	addi	s3,s3,1444 # e5a4 <main+0x18bc>
    d02c:	000b0b93          	mv	s7,s6
    d030:	a79a8a93          	addi	s5,s5,-1415 # 6a79 <_start-0x1587>
    d034:	00010db7          	lui	s11,0x10
    d038:	76cda783          	lw	a5,1900(s11) # 1076c <default_num_contexts>
    d03c:	00000c93          	li	s9,0
    d040:	00000d13          	li	s10,0
    d044:	22078a63          	beqz	a5,d278 <main+0x590>
    d048:	00001737          	lui	a4,0x1
    d04c:	82070713          	addi	a4,a4,-2016 # 820 <_start-0x77e0>
    d050:	01010693          	addi	a3,sp,16
    d054:	fffff7b7          	lui	a5,0xfffff
    d058:	00d70733          	add	a4,a4,a3
    d05c:	00f707b3          	add	a5,a4,a5
    d060:	00f12623          	sw	a5,12(sp)
    d064:	00001c37          	lui	s8,0x1
    d068:	0440006f          	j	d0ac <main+0x3c4>
    d06c:	00c12783          	lw	a5,12(sp)
    d070:	01a406b3          	add	a3,s0,s10
    d074:	00269693          	slli	a3,a3,0x2
    d078:	00d786b3          	add	a3,a5,a3
    d07c:	00dc06b3          	add	a3,s8,a3
    d080:	82c6d683          	lhu	a3,-2004(a3)
    d084:	001d0593          	addi	a1,s10,1
    d088:	76cda603          	lw	a2,1900(s11)
    d08c:	01968733          	add	a4,a3,s9
    d090:	01059d13          	slli	s10,a1,0x10
    d094:	01071493          	slli	s1,a4,0x10
    d098:	01071c93          	slli	s9,a4,0x10
    d09c:	010d5d13          	srli	s10,s10,0x10
    d0a0:	0104d493          	srli	s1,s1,0x10
    d0a4:	410cdc93          	srai	s9,s9,0x10
    d0a8:	1ccd7a63          	bgeu	s10,a2,d27c <main+0x594>
    d0ac:	00c12783          	lw	a5,12(sp)
    d0b0:	004d1413          	slli	s0,s10,0x4
    d0b4:	01a404b3          	add	s1,s0,s10
    d0b8:	00249493          	slli	s1,s1,0x2
    d0bc:	009784b3          	add	s1,a5,s1
    d0c0:	009c04b3          	add	s1,s8,s1
    d0c4:	80c4a683          	lw	a3,-2036(s1)
    d0c8:	82049623          	sh	zero,-2004(s1)
    d0cc:	0016f693          	andi	a3,a3,1
    d0d0:	02068663          	beqz	a3,d0fc <main+0x414>
    d0d4:	8264d603          	lhu	a2,-2010(s1)
    d0d8:	03560263          	beq	a2,s5,d0fc <main+0x414>
    d0dc:	000107b7          	lui	a5,0x10
    d0e0:	000a8693          	mv	a3,s5
    d0e4:	000d0593          	mv	a1,s10
    d0e8:	34878513          	addi	a0,a5,840 # 10348 <errpat+0x318>
    d0ec:	dc4fe0ef          	jal	ra,b6b0 <ee_printf>
    d0f0:	82c4d683          	lhu	a3,-2004(s1)
    d0f4:	00168693          	addi	a3,a3,1
    d0f8:	82d49623          	sh	a3,-2004(s1)
    d0fc:	00c12783          	lw	a5,12(sp)
    d100:	01a404b3          	add	s1,s0,s10
    d104:	00249493          	slli	s1,s1,0x2
    d108:	009784b3          	add	s1,a5,s1
    d10c:	009c04b3          	add	s1,s8,s1
    d110:	80c4a683          	lw	a3,-2036(s1)
    d114:	0026f613          	andi	a2,a3,2
    d118:	02060863          	beqz	a2,d148 <main+0x460>
    d11c:	8284d603          	lhu	a2,-2008(s1)
    d120:	03760463          	beq	a2,s7,d148 <main+0x460>
    d124:	000107b7          	lui	a5,0x10
    d128:	000b0693          	mv	a3,s6
    d12c:	000d0593          	mv	a1,s10
    d130:	37878513          	addi	a0,a5,888 # 10378 <errpat+0x348>
    d134:	d7cfe0ef          	jal	ra,b6b0 <ee_printf>
    d138:	82c4d603          	lhu	a2,-2004(s1)
    d13c:	80c4a683          	lw	a3,-2036(s1)
    d140:	00160613          	addi	a2,a2,1
    d144:	82c49623          	sh	a2,-2004(s1)
    d148:	0046f693          	andi	a3,a3,4
    d14c:	f20680e3          	beqz	a3,d06c <main+0x384>
    d150:	00c12783          	lw	a5,12(sp)
    d154:	01a40433          	add	s0,s0,s10
    d158:	00241413          	slli	s0,s0,0x2
    d15c:	00878433          	add	s0,a5,s0
    d160:	008c0433          	add	s0,s8,s0
    d164:	82a45603          	lhu	a2,-2006(s0)
    d168:	0b361263          	bne	a2,s3,d20c <main+0x524>
    d16c:	82c45683          	lhu	a3,-2004(s0)
    d170:	f15ff06f          	j	d084 <main+0x39c>
    d174:	00001737          	lui	a4,0x1
    d178:	01010693          	addi	a3,sp,16
    d17c:	82070713          	addi	a4,a4,-2016 # 820 <_start-0x77e0>
    d180:	00d70733          	add	a4,a4,a3
    d184:	fffff7b7          	lui	a5,0xfffff
    d188:	00f707b3          	add	a5,a4,a5
    d18c:	7ec79603          	lh	a2,2028(a5) # fffff7ec <stack_top+0xfffdf7ec>
    d190:	7f87a583          	lw	a1,2040(a5)
    d194:	00098513          	mv	a0,s3
    d198:	00f12623          	sw	a5,12(sp)
    d19c:	f18fb0ef          	jal	ra,88b4 <core_list_init>
    d1a0:	03c12403          	lw	s0,60(sp)
    d1a4:	04a12023          	sw	a0,64(sp)
    d1a8:	00247493          	andi	s1,s0,2
    d1ac:	cc0482e3          	beqz	s1,ce70 <main+0x188>
    d1b0:	00001737          	lui	a4,0x1
    d1b4:	01010693          	addi	a3,sp,16
    d1b8:	82070713          	addi	a4,a4,-2016 # 820 <_start-0x77e0>
    d1bc:	00d70733          	add	a4,a4,a3
    d1c0:	fffff7b7          	lui	a5,0xfffff
    d1c4:	00f707b3          	add	a5,a4,a5
    d1c8:	00f12623          	sw	a5,12(sp)
    d1cc:	00c12703          	lw	a4,12(sp)
    d1d0:	7ee79783          	lh	a5,2030(a5) # fffff7ee <stack_top+0xfffdf7ee>
    d1d4:	03412503          	lw	a0,52(sp)
    d1d8:	7ec71603          	lh	a2,2028(a4)
    d1dc:	7fc72583          	lw	a1,2044(a4)
    d1e0:	01079793          	slli	a5,a5,0x10
    d1e4:	04410693          	addi	a3,sp,68
    d1e8:	00c7e633          	or	a2,a5,a2
    d1ec:	a40fc0ef          	jal	ra,942c <core_init_matrix>
    d1f0:	03c12403          	lw	s0,60(sp)
    d1f4:	c7dff06f          	j	ce70 <main+0x188>
    d1f8:	04a11b23          	sh	a0,86(sp)
    d1fc:	00100793          	li	a5,1
    d200:	d2f90ee3          	beq	s2,a5,cf3c <main+0x254>
    d204:	00100413          	li	s0,1
    d208:	cf5ff06f          	j	cefc <main+0x214>
    d20c:	000107b7          	lui	a5,0x10
    d210:	00098693          	mv	a3,s3
    d214:	000d0593          	mv	a1,s10
    d218:	3ac78513          	addi	a0,a5,940 # 103ac <errpat+0x37c>
    d21c:	c94fe0ef          	jal	ra,b6b0 <ee_printf>
    d220:	82c45683          	lhu	a3,-2004(s0)
    d224:	00168693          	addi	a3,a3,1
    d228:	01069693          	slli	a3,a3,0x10
    d22c:	0106d693          	srli	a3,a3,0x10
    d230:	82d41623          	sh	a3,-2004(s0)
    d234:	e51ff06f          	j	d084 <main+0x39c>
    d238:	000099b7          	lui	s3,0x9
    d23c:	a0298793          	addi	a5,s3,-1534 # 8a02 <core_list_init+0x14e>
    d240:	4cf50663          	beq	a0,a5,d70c <main+0xa24>
    d244:	0000f7b7          	lui	a5,0xf
    d248:	9f578793          	addi	a5,a5,-1547 # e9f5 <main+0x1d0d>
    d24c:	4ef51c63          	bne	a0,a5,d744 <main+0xa5c>
    d250:	00010537          	lui	a0,0x10
    d254:	00002b37          	lui	s6,0x2
    d258:	2ec50513          	addi	a0,a0,748 # 102ec <errpat+0x2bc>
    d25c:	fd7b0b13          	addi	s6,s6,-41 # 1fd7 <_start-0x6029>
    d260:	0000eab7          	lui	s5,0xe
    d264:	c4cfe0ef          	jal	ra,b6b0 <ee_printf>
    d268:	e3a98993          	addi	s3,s3,-454
    d26c:	000b0b93          	mv	s7,s6
    d270:	714a8a93          	addi	s5,s5,1812 # e714 <main+0x1a2c>
    d274:	dc1ff06f          	j	d034 <main+0x34c>
    d278:	00000493          	li	s1,0
    d27c:	ca1fd0ef          	jal	ra,af1c <check_data_types>
    d280:	03412583          	lw	a1,52(sp)
    d284:	00a484b3          	add	s1,s1,a0
    d288:	00010537          	lui	a0,0x10
    d28c:	3dc50513          	addi	a0,a0,988 # 103dc <errpat+0x3ac>
    d290:	c20fe0ef          	jal	ra,b6b0 <ee_printf>
    d294:	00010537          	lui	a0,0x10
    d298:	000a0593          	mv	a1,s4
    d29c:	3f450513          	addi	a0,a0,1012 # 103f4 <errpat+0x3c4>
    d2a0:	c10fe0ef          	jal	ra,b6b0 <ee_printf>
    d2a4:	000a0513          	mv	a0,s4
    d2a8:	d39fd0ef          	jal	ra,afe0 <time_in_secs>
    d2ac:	00050593          	mv	a1,a0
    d2b0:	00010537          	lui	a0,0x10
    d2b4:	40c50513          	addi	a0,a0,1036 # 1040c <errpat+0x3dc>
    d2b8:	bf8fe0ef          	jal	ra,b6b0 <ee_printf>
    d2bc:	01049493          	slli	s1,s1,0x10
    d2c0:	000a0513          	mv	a0,s4
    d2c4:	0104d493          	srli	s1,s1,0x10
    d2c8:	d19fd0ef          	jal	ra,afe0 <time_in_secs>
    d2cc:	3a051a63          	bnez	a0,d680 <main+0x998>
    d2d0:	000a0513          	mv	a0,s4
    d2d4:	d0dfd0ef          	jal	ra,afe0 <time_in_secs>
    d2d8:	00900793          	li	a5,9
    d2dc:	38a7f063          	bgeu	a5,a0,d65c <main+0x974>
    d2e0:	76cda583          	lw	a1,1900(s11)
    d2e4:	03812503          	lw	a0,56(sp)
    d2e8:	01049493          	slli	s1,s1,0x10
    d2ec:	4104d493          	srai	s1,s1,0x10
    d2f0:	921ff0ef          	jal	ra,cc10 <__mulsi3>
    d2f4:	00050593          	mv	a1,a0
    d2f8:	00010537          	lui	a0,0x10
    d2fc:	47c50513          	addi	a0,a0,1148 # 1047c <errpat+0x44c>
    d300:	bb0fe0ef          	jal	ra,b6b0 <ee_printf>
    d304:	000105b7          	lui	a1,0x10
    d308:	00010537          	lui	a0,0x10
    d30c:	49458593          	addi	a1,a1,1172 # 10494 <errpat+0x464>
    d310:	4a050513          	addi	a0,a0,1184 # 104a0 <errpat+0x470>
    d314:	b9cfe0ef          	jal	ra,b6b0 <ee_printf>
    d318:	000105b7          	lui	a1,0x10
    d31c:	00010537          	lui	a0,0x10
    d320:	31858593          	addi	a1,a1,792 # 10318 <errpat+0x2e8>
    d324:	4b850513          	addi	a0,a0,1208 # 104b8 <errpat+0x488>
    d328:	b88fe0ef          	jal	ra,b6b0 <ee_printf>
    d32c:	000105b7          	lui	a1,0x10
    d330:	00010537          	lui	a0,0x10
    d334:	4d058593          	addi	a1,a1,1232 # 104d0 <errpat+0x4a0>
    d338:	4d850513          	addi	a0,a0,1240 # 104d8 <errpat+0x4a8>
    d33c:	b74fe0ef          	jal	ra,b6b0 <ee_printf>
    d340:	00010537          	lui	a0,0x10
    d344:	00090593          	mv	a1,s2
    d348:	4f050513          	addi	a0,a0,1264 # 104f0 <errpat+0x4c0>
    d34c:	b64fe0ef          	jal	ra,b6b0 <ee_printf>
    d350:	03c12783          	lw	a5,60(sp)
    d354:	0017f713          	andi	a4,a5,1
    d358:	06070a63          	beqz	a4,d3cc <main+0x6e4>
    d35c:	76cda703          	lw	a4,1900(s11)
    d360:	06070663          	beqz	a4,d3cc <main+0x6e4>
    d364:	00001737          	lui	a4,0x1
    d368:	82070713          	addi	a4,a4,-2016 # 820 <_start-0x77e0>
    d36c:	01010693          	addi	a3,sp,16
    d370:	fffff7b7          	lui	a5,0xfffff
    d374:	00d70733          	add	a4,a4,a3
    d378:	00f707b3          	add	a5,a4,a5
    d37c:	00000413          	li	s0,0
    d380:	000109b7          	lui	s3,0x10
    d384:	00f12623          	sw	a5,12(sp)
    d388:	00001937          	lui	s2,0x1
    d38c:	00c12703          	lw	a4,12(sp)
    d390:	00441793          	slli	a5,s0,0x4
    d394:	008787b3          	add	a5,a5,s0
    d398:	00279793          	slli	a5,a5,0x2
    d39c:	00f707b3          	add	a5,a4,a5
    d3a0:	00f907b3          	add	a5,s2,a5
    d3a4:	8267d603          	lhu	a2,-2010(a5) # ffffe826 <stack_top+0xfffde826>
    d3a8:	00040593          	mv	a1,s0
    d3ac:	50c98513          	addi	a0,s3,1292 # 1050c <errpat+0x4dc>
    d3b0:	b00fe0ef          	jal	ra,b6b0 <ee_printf>
    d3b4:	00140413          	addi	s0,s0,1
    d3b8:	76cda783          	lw	a5,1900(s11)
    d3bc:	01041413          	slli	s0,s0,0x10
    d3c0:	01045413          	srli	s0,s0,0x10
    d3c4:	fcf464e3          	bltu	s0,a5,d38c <main+0x6a4>
    d3c8:	03c12783          	lw	a5,60(sp)
    d3cc:	0027f713          	andi	a4,a5,2
    d3d0:	06070a63          	beqz	a4,d444 <main+0x75c>
    d3d4:	76cda703          	lw	a4,1900(s11)
    d3d8:	36070063          	beqz	a4,d738 <main+0xa50>
    d3dc:	00001737          	lui	a4,0x1
    d3e0:	82070713          	addi	a4,a4,-2016 # 820 <_start-0x77e0>
    d3e4:	01010693          	addi	a3,sp,16
    d3e8:	fffff7b7          	lui	a5,0xfffff
    d3ec:	00d70733          	add	a4,a4,a3
    d3f0:	00f707b3          	add	a5,a4,a5
    d3f4:	00000413          	li	s0,0
    d3f8:	000109b7          	lui	s3,0x10
    d3fc:	00f12623          	sw	a5,12(sp)
    d400:	00001937          	lui	s2,0x1
    d404:	00c12703          	lw	a4,12(sp)
    d408:	00441793          	slli	a5,s0,0x4
    d40c:	008787b3          	add	a5,a5,s0
    d410:	00279793          	slli	a5,a5,0x2
    d414:	00f707b3          	add	a5,a4,a5
    d418:	00f907b3          	add	a5,s2,a5
    d41c:	8287d603          	lhu	a2,-2008(a5) # ffffe828 <stack_top+0xfffde828>
    d420:	00040593          	mv	a1,s0
    d424:	52898513          	addi	a0,s3,1320 # 10528 <errpat+0x4f8>
    d428:	a88fe0ef          	jal	ra,b6b0 <ee_printf>
    d42c:	00140413          	addi	s0,s0,1
    d430:	76cda783          	lw	a5,1900(s11)
    d434:	01041413          	slli	s0,s0,0x10
    d438:	01045413          	srli	s0,s0,0x10
    d43c:	fcf464e3          	bltu	s0,a5,d404 <main+0x71c>
    d440:	03c12783          	lw	a5,60(sp)
    d444:	0047f793          	andi	a5,a5,4
    d448:	06078863          	beqz	a5,d4b8 <main+0x7d0>
    d44c:	76cda783          	lw	a5,1900(s11)
    d450:	0c078663          	beqz	a5,d51c <main+0x834>
    d454:	00001737          	lui	a4,0x1
    d458:	82070713          	addi	a4,a4,-2016 # 820 <_start-0x77e0>
    d45c:	01010693          	addi	a3,sp,16
    d460:	fffff7b7          	lui	a5,0xfffff
    d464:	00d70733          	add	a4,a4,a3
    d468:	00f707b3          	add	a5,a4,a5
    d46c:	00000413          	li	s0,0
    d470:	000109b7          	lui	s3,0x10
    d474:	00f12623          	sw	a5,12(sp)
    d478:	00001937          	lui	s2,0x1
    d47c:	00c12703          	lw	a4,12(sp)
    d480:	00441793          	slli	a5,s0,0x4
    d484:	008787b3          	add	a5,a5,s0
    d488:	00279793          	slli	a5,a5,0x2
    d48c:	00f707b3          	add	a5,a4,a5
    d490:	00f907b3          	add	a5,s2,a5
    d494:	82a7d603          	lhu	a2,-2006(a5) # ffffe82a <stack_top+0xfffde82a>
    d498:	00040593          	mv	a1,s0
    d49c:	54498513          	addi	a0,s3,1348 # 10544 <errpat+0x514>
    d4a0:	a10fe0ef          	jal	ra,b6b0 <ee_printf>
    d4a4:	00140413          	addi	s0,s0,1
    d4a8:	76cda783          	lw	a5,1900(s11)
    d4ac:	01041413          	slli	s0,s0,0x10
    d4b0:	01045413          	srli	s0,s0,0x10
    d4b4:	fcf464e3          	bltu	s0,a5,d47c <main+0x794>
    d4b8:	00001737          	lui	a4,0x1
    d4bc:	76cda783          	lw	a5,1900(s11)
    d4c0:	82070713          	addi	a4,a4,-2016 # 820 <_start-0x77e0>
    d4c4:	01010693          	addi	a3,sp,16
    d4c8:	fffff937          	lui	s2,0xfffff
    d4cc:	00d70733          	add	a4,a4,a3
    d4d0:	00000413          	li	s0,0
    d4d4:	00010a37          	lui	s4,0x10
    d4d8:	01270933          	add	s2,a4,s2
    d4dc:	000019b7          	lui	s3,0x1
    d4e0:	02078e63          	beqz	a5,d51c <main+0x834>
    d4e4:	00441793          	slli	a5,s0,0x4
    d4e8:	008787b3          	add	a5,a5,s0
    d4ec:	00279793          	slli	a5,a5,0x2
    d4f0:	00f907b3          	add	a5,s2,a5
    d4f4:	00f987b3          	add	a5,s3,a5
    d4f8:	8247d603          	lhu	a2,-2012(a5)
